   1              		.cpu cortex-m4
   2              		.arch armv7e-m
   3              		.fpu fpv4-sp-d16
   4              		.eabi_attribute 27, 1
   5              		.eabi_attribute 20, 1
   6              		.eabi_attribute 21, 1
   7              		.eabi_attribute 23, 3
   8              		.eabi_attribute 24, 1
   9              		.eabi_attribute 25, 1
  10              		.eabi_attribute 26, 1
  11              		.eabi_attribute 30, 1
  12              		.eabi_attribute 34, 1
  13              		.eabi_attribute 18, 4
  14              		.file	"main.c"
  15              		.text
  16              	.Ltext0:
  17              		.cfi_sections	.debug_frame
  18              		.file 1 "main.c"
  19              		.section	.text.main,"ax",%progbits
  20              		.align	1
  21              		.global	main
  22              		.syntax unified
  23              		.thumb
  24              		.thumb_func
  26              	main:
  27              	.LFB193:
   1:main.c        **** /* Main source file for assignment 2 part A, which implements shitty homebrewn crypto together with
   2:main.c        ****  * a nasty little stack based buffer overflow
   3:main.c        ****  *
   4:main.c        ****  * Copyright 2018 TUM
   5:main.c        ****  * Created: 2018-11-15 Florian Wilde <florian.wilde@tum.de>
   6:main.c        ****  **************************************************************************************************
   7:main.c        **** 
   8:main.c        **** #include "VirtualSerial.h"
   9:main.c        **** #include "packetizer.h"
  10:main.c        **** #include "crypto.h"
  11:main.c        **** #include "sodium.h"
  12:main.c        **** #include "system_XMC4500.h"
  13:main.c        **** 
  14:main.c        **** int main(void)
  15:main.c        **** {
  28              		.loc 1 15 1 view -0
  29              		.cfi_startproc
  30              		@ args = 0, pretend = 0, frame = 56
  31              		@ frame_needed = 0, uses_anonymous_args = 0
  32 0000 70B5     		push	{r4, r5, r6, lr}
  33              	.LCFI0:
  34              		.cfi_def_cfa_offset 16
  35              		.cfi_offset 4, -16
  36              		.cfi_offset 5, -12
  37              		.cfi_offset 6, -8
  38              		.cfi_offset 14, -4
  39 0002 90B0     		sub	sp, sp, #64
  40              	.LCFI1:
  41              		.cfi_def_cfa_offset 80
  42              		.loc 1 15 1 is_stmt 0 view .LVU1
  43 0004 284B     		ldr	r3, .L16
  44 0006 1B68     		ldr	r3, [r3]
  45 0008 0F93     		str	r3, [sp, #60]
  46 000a 4FF00003 		mov	r3, #0
  16:main.c        ****   sodium_init();
  47              		.loc 1 16 3 is_stmt 1 view .LVU2
  48 000e FFF7FEFF 		bl	sodium_init
  49              	.LVL0:
  17:main.c        ****   int j = 0;
  50              		.loc 1 17 3 view .LVU3
  18:main.c        **** 
  19:main.c        ****   uint8_t key[32];
  51              		.loc 1 19 3 view .LVU4
  20:main.c        ****   for (int i = 1; i < 32; i++)
  52              		.loc 1 20 3 view .LVU5
  53              	.LBB2:
  54              		.loc 1 20 8 view .LVU6
  55              		.loc 1 20 21 discriminator 1 view .LVU7
  56 0012 07AA     		add	r2, sp, #28
  57 0014 0DF13B04 		add	r4, sp, #59
  58              	.LBE2:
  17:main.c        ****   int j = 0;
  59              		.loc 1 17 7 is_stmt 0 view .LVU8
  60 0018 0023     		movs	r3, #0
  61              	.LBB3:
  21:main.c        ****   {
  22:main.c        ****     key[i] = g_chipid[j];
  62              		.loc 1 22 22 view .LVU9
  63 001a 2448     		ldr	r0, .L16+4
  64              	.LVL1:
  65              	.L3:
  66              		.loc 1 22 5 is_stmt 1 view .LVU10
  67              		.loc 1 22 12 is_stmt 0 view .LVU11
  68 001c C15C     		ldrb	r1, [r0, r3]	@ zero_extendqisi2
  69 001e 02F8011F 		strb	r1, [r2, #1]!
  70              	.LVL2:
  23:main.c        ****     j++;
  71              		.loc 1 23 5 is_stmt 1 view .LVU12
  72              		.loc 1 23 6 is_stmt 0 view .LVU13
  73 0022 0133     		adds	r3, r3, #1
  74              	.LVL3:
  24:main.c        ****     if (j == 16)
  75              		.loc 1 24 5 is_stmt 1 view .LVU14
  25:main.c        ****     {
  26:main.c        ****       j = 0;
  76              		.loc 1 26 9 is_stmt 0 view .LVU15
  77 0024 102B     		cmp	r3, #16
  78 0026 08BF     		it	eq
  79 0028 0023     		moveq	r3, #0
  80              	.LVL4:
  20:main.c        ****   {
  81              		.loc 1 20 28 is_stmt 1 discriminator 2 view .LVU16
  20:main.c        ****   {
  82              		.loc 1 20 21 discriminator 1 view .LVU17
  83 002a A242     		cmp	r2, r4
  84 002c F6D1     		bne	.L3
  85              	.LBE3:
  27:main.c        ****     }
  28:main.c        ****   }
  29:main.c        **** 
  30:main.c        ****   pt_s plaintext = {0};
  86              		.loc 1 30 3 view .LVU18
  87              		.loc 1 30 8 is_stmt 0 view .LVU19
  88 002e 0023     		movs	r3, #0
  89              	.LVL5:
  90              		.loc 1 30 8 view .LVU20
  91 0030 0493     		str	r3, [sp, #16]
  92 0032 0593     		str	r3, [sp, #20]
  93 0034 0693     		str	r3, [sp, #24]
  31:main.c        ****   ct_s ciphertext = {0};
  94              		.loc 1 31 3 is_stmt 1 view .LVU21
  95              		.loc 1 31 8 is_stmt 0 view .LVU22
  96 0036 0293     		str	r3, [sp, #8]
  97 0038 0393     		str	r3, [sp, #12]
  32:main.c        **** 
  33:main.c        ****   USB_Init();
  98              		.loc 1 33 3 is_stmt 1 view .LVU23
  99 003a FFF7FEFF 		bl	USB_Init
 100              	.LVL6:
  34:main.c        **** 
  35:main.c        ****   while (1)
  36:main.c        ****   {
  37:main.c        ****     /* Consumes incoming data and parses it until we received a valid packet.
  38:main.c        ****        If so, it will fill the plaintextJob struct with the appropriate information. */
  39:main.c        ****     if (packetizerReceive(&plaintext) == 0)
  40:main.c        ****     {
  41:main.c        ****       /* If the sender did not sent a nonce, generate one */
  42:main.c        ****       if (plaintext.nonce == NULL)
  43:main.c        ****       {
  44:main.c        ****         plaintext.nonce = malloc(CRYPTO_NONCE_BYTES);
 101              		.loc 1 44 27 is_stmt 0 view .LVU24
 102 003e 1826     		movs	r6, #24
  45:main.c        ****         for (size_t i = 0; i < CRYPTO_NONCE_BYTES; i++)
  46:main.c        ****         {
  47:main.c        ****           plaintext.nonce[i] = rand() & UINT8_MAX;
  48:main.c        ****         }
  49:main.c        ****       }
  50:main.c        ****       /* Now encrypt the plaintext */
  51:main.c        ****       if (crypto_secretbox_easy(ciphertext.text, plaintext.text, plaintext.textLen, plaintext.nonce
 103              		.loc 1 51 11 view .LVU25
 104 0040 0025     		movs	r5, #0
 105 0042 14E0     		b	.L4
 106              	.L15:
  44:main.c        ****         for (size_t i = 0; i < CRYPTO_NONCE_BYTES; i++)
 107              		.loc 1 44 9 is_stmt 1 view .LVU26
  44:main.c        ****         for (size_t i = 0; i < CRYPTO_NONCE_BYTES; i++)
 108              		.loc 1 44 27 is_stmt 0 view .LVU27
 109 0044 3046     		mov	r0, r6
 110 0046 FFF7FEFF 		bl	malloc
 111              	.LVL7:
  44:main.c        ****         for (size_t i = 0; i < CRYPTO_NONCE_BYTES; i++)
 112              		.loc 1 44 25 discriminator 1 view .LVU28
 113 004a 0690     		str	r0, [sp, #24]
  45:main.c        ****         for (size_t i = 0; i < CRYPTO_NONCE_BYTES; i++)
 114              		.loc 1 45 9 is_stmt 1 view .LVU29
 115              	.LBB4:
  45:main.c        ****         for (size_t i = 0; i < CRYPTO_NONCE_BYTES; i++)
 116              		.loc 1 45 14 view .LVU30
 117              	.LVL8:
  45:main.c        ****         for (size_t i = 0; i < CRYPTO_NONCE_BYTES; i++)
 118              		.loc 1 45 30 discriminator 1 view .LVU31
  45:main.c        ****         for (size_t i = 0; i < CRYPTO_NONCE_BYTES; i++)
 119              		.loc 1 45 21 is_stmt 0 view .LVU32
 120 004c 0024     		movs	r4, #0
 121              	.LVL9:
 122              	.L6:
  47:main.c        ****         }
 123              		.loc 1 47 11 is_stmt 1 view .LVU33
  47:main.c        ****         }
 124              		.loc 1 47 32 is_stmt 0 view .LVU34
 125 004e FFF7FEFF 		bl	rand
 126              	.LVL10:
  47:main.c        ****         }
 127              		.loc 1 47 30 discriminator 1 view .LVU35
 128 0052 069B     		ldr	r3, [sp, #24]
 129 0054 1855     		strb	r0, [r3, r4]
  45:main.c        ****         for (size_t i = 0; i < CRYPTO_NONCE_BYTES; i++)
 130              		.loc 1 45 53 is_stmt 1 discriminator 3 view .LVU36
 131 0056 0134     		adds	r4, r4, #1
 132              	.LVL11:
  45:main.c        ****         for (size_t i = 0; i < CRYPTO_NONCE_BYTES; i++)
 133              		.loc 1 45 30 discriminator 1 view .LVU37
 134 0058 182C     		cmp	r4, #24
 135 005a F8D1     		bne	.L6
 136 005c 0FE0     		b	.L5
 137              	.LVL12:
 138              	.L7:
  45:main.c        ****         for (size_t i = 0; i < CRYPTO_NONCE_BYTES; i++)
 139              		.loc 1 45 30 is_stmt 0 discriminator 1 view .LVU38
 140              	.LBE4:
  52:main.c        ****                                 key) == 0)
  53:main.c        ****       {
  54:main.c        ****         ciphertext.textLen = getCiphertextLength(plaintext.textLen);
  55:main.c        ****         /* Finally, if encryption was successful, send ciphertext back in a packet */
  56:main.c        ****         packetizerSend(&ciphertext);
  57:main.c        ****       }
  58:main.c        ****       /* Free all buffers that were allocated in the meantime */
  59:main.c        ****       free(plaintext.text);
 141              		.loc 1 59 7 is_stmt 1 view .LVU39
 142 005e 0498     		ldr	r0, [sp, #16]
 143 0060 FFF7FEFF 		bl	free
 144              	.LVL13:
  60:main.c        ****       plaintext.text = NULL;
 145              		.loc 1 60 7 view .LVU40
 146              		.loc 1 60 22 is_stmt 0 view .LVU41
 147 0064 0495     		str	r5, [sp, #16]
  61:main.c        ****       free(ciphertext.text);
 148              		.loc 1 61 7 is_stmt 1 view .LVU42
 149 0066 0298     		ldr	r0, [sp, #8]
 150 0068 FFF7FEFF 		bl	free
 151              	.LVL14:
  62:main.c        ****       ciphertext.text = NULL;
 152              		.loc 1 62 7 view .LVU43
 153              		.loc 1 62 23 is_stmt 0 view .LVU44
 154 006c 0295     		str	r5, [sp, #8]
 155              	.L4:
  35:main.c        ****   {
 156              		.loc 1 35 3 is_stmt 1 view .LVU45
  39:main.c        ****     {
 157              		.loc 1 39 5 view .LVU46
  39:main.c        ****     {
 158              		.loc 1 39 9 is_stmt 0 view .LVU47
 159 006e 04A8     		add	r0, sp, #16
 160 0070 FFF7FEFF 		bl	packetizerReceive
 161              	.LVL15:
  39:main.c        ****     {
 162              		.loc 1 39 8 discriminator 1 view .LVU48
 163 0074 0028     		cmp	r0, #0
 164 0076 FAD1     		bne	.L4
  42:main.c        ****       {
 165              		.loc 1 42 7 is_stmt 1 view .LVU49
  42:main.c        ****       {
 166              		.loc 1 42 10 is_stmt 0 view .LVU50
 167 0078 069B     		ldr	r3, [sp, #24]
 168 007a 002B     		cmp	r3, #0
 169 007c E2D0     		beq	.L15
 170              	.L5:
  51:main.c        ****                                 key) == 0)
 171              		.loc 1 51 7 is_stmt 1 view .LVU51
  51:main.c        ****                                 key) == 0)
 172              		.loc 1 51 11 is_stmt 0 view .LVU52
 173 007e 07AB     		add	r3, sp, #28
 174 0080 0193     		str	r3, [sp, #4]
 175 0082 069B     		ldr	r3, [sp, #24]
 176 0084 0093     		str	r3, [sp]
 177 0086 059A     		ldr	r2, [sp, #20]
 178 0088 2B46     		mov	r3, r5
 179 008a 0499     		ldr	r1, [sp, #16]
 180 008c 0298     		ldr	r0, [sp, #8]
 181 008e FFF7FEFF 		bl	crypto_secretbox_easy
 182              	.LVL16:
  51:main.c        ****                                 key) == 0)
 183              		.loc 1 51 10 discriminator 1 view .LVU53
 184 0092 0028     		cmp	r0, #0
 185 0094 E3D1     		bne	.L7
  54:main.c        ****         /* Finally, if encryption was successful, send ciphertext back in a packet */
 186              		.loc 1 54 9 is_stmt 1 view .LVU54
  54:main.c        ****         /* Finally, if encryption was successful, send ciphertext back in a packet */
 187              		.loc 1 54 30 is_stmt 0 view .LVU55
 188 0096 0598     		ldr	r0, [sp, #20]
 189 0098 FFF7FEFF 		bl	getCiphertextLength
 190              	.LVL17:
  54:main.c        ****         /* Finally, if encryption was successful, send ciphertext back in a packet */
 191              		.loc 1 54 28 discriminator 1 view .LVU56
 192 009c 0390     		str	r0, [sp, #12]
  56:main.c        ****       }
 193              		.loc 1 56 9 is_stmt 1 view .LVU57
 194 009e 02A8     		add	r0, sp, #8
 195 00a0 FFF7FEFF 		bl	packetizerSend
 196              	.LVL18:
 197 00a4 DBE7     		b	.L7
 198              	.L17:
 199 00a6 00BF     		.align	2
 200              	.L16:
 201 00a8 00000000 		.word	__stack_chk_guard
 202 00ac 00000000 		.word	g_chipid
 203              		.cfi_endproc
 204              	.LFE193:
 206              		.text
 207              	.Letext0:
 208              		.file 2 "/usr/lib/gcc/arm-none-eabi/13.2.1/include/stdint.h"
 209              		.file 3 "/usr/lib/gcc/arm-none-eabi/13.2.1/include/stddef.h"
 210              		.file 4 "packetizer.h"
 211              		.file 5 "crypto.h"
 212              		.file 6 "../sodium/sodium-1.0.15/include/sodium/crypto_secretbox.h"
 213              		.file 7 "/usr/include/newlib/stdlib.h"
 214              		.file 8 "../sodium/sodium-1.0.15/include/sodium/core.h"
 215              		.file 9 "/opt/XMClib/XMC_Peripheral_Library_v2.1.16/CMSIS/Infineon/XMC4500_series/Include/system_X
 216              		.file 10 "VirtualSerial.h"