   1              		.cpu cortex-m4
   2              		.arch armv7e-m
   3              		.fpu fpv4-sp-d16
   4              		.eabi_attribute 27, 1
   5              		.eabi_attribute 20, 1
   6              		.eabi_attribute 21, 1
   7              		.eabi_attribute 23, 3
   8              		.eabi_attribute 24, 1
   9              		.eabi_attribute 25, 1
  10              		.eabi_attribute 26, 1
  11              		.eabi_attribute 30, 1
  12              		.eabi_attribute 34, 1
  13              		.eabi_attribute 18, 4
  14              		.file	"xmc_usbd.c"
  15              		.text
  16              	.Ltext0:
  17              		.cfi_sections	.debug_frame
  18              		.file 1 "/opt/XMClib/XMC_Peripheral_Library_v2.1.16/XMCLib/src/xmc_usbd.c"
  19              		.section	.text.XMC_USBD_lReadFifo,"ax",%progbits
  20              		.align	1
  21              		.syntax unified
  22              		.thumb
  23              		.thumb_func
  25              	XMC_USBD_lReadFifo:
  26              	.LVL0:
  27              	.LFB163:
   1:/opt/XMClib/XMC_Peripheral_Library_v2.1.16/XMCLib/src/xmc_usbd.c **** /**
   2:/opt/XMClib/XMC_Peripheral_Library_v2.1.16/XMCLib/src/xmc_usbd.c ****  * @file xmc_usbd.c
   3:/opt/XMClib/XMC_Peripheral_Library_v2.1.16/XMCLib/src/xmc_usbd.c ****  * @date 2015-06-20
   4:/opt/XMClib/XMC_Peripheral_Library_v2.1.16/XMCLib/src/xmc_usbd.c ****  *
   5:/opt/XMClib/XMC_Peripheral_Library_v2.1.16/XMCLib/src/xmc_usbd.c ****  * @cond
   6:/opt/XMClib/XMC_Peripheral_Library_v2.1.16/XMCLib/src/xmc_usbd.c ****  **********************************************************************************
   7:/opt/XMClib/XMC_Peripheral_Library_v2.1.16/XMCLib/src/xmc_usbd.c ****  * XMClib v2.1.16 - XMC Peripheral Driver Library 
   8:/opt/XMClib/XMC_Peripheral_Library_v2.1.16/XMCLib/src/xmc_usbd.c ****  *
   9:/opt/XMClib/XMC_Peripheral_Library_v2.1.16/XMCLib/src/xmc_usbd.c ****  * Copyright (c) 2015-2017, Infineon Technologies AG
  10:/opt/XMClib/XMC_Peripheral_Library_v2.1.16/XMCLib/src/xmc_usbd.c ****  * All rights reserved.                        
  11:/opt/XMClib/XMC_Peripheral_Library_v2.1.16/XMCLib/src/xmc_usbd.c ****  *                                             
  12:/opt/XMClib/XMC_Peripheral_Library_v2.1.16/XMCLib/src/xmc_usbd.c ****  * Redistribution and use in source and binary forms, with or without           
  13:/opt/XMClib/XMC_Peripheral_Library_v2.1.16/XMCLib/src/xmc_usbd.c ****  * modification,are permitted provided that the following conditions are met:   
  14:/opt/XMClib/XMC_Peripheral_Library_v2.1.16/XMCLib/src/xmc_usbd.c ****  *                                                                              
  15:/opt/XMClib/XMC_Peripheral_Library_v2.1.16/XMCLib/src/xmc_usbd.c ****  *   Redistributions of source code must retain the above copyright notice,      
  16:/opt/XMClib/XMC_Peripheral_Library_v2.1.16/XMCLib/src/xmc_usbd.c ****  *   this list of conditions and the following disclaimer.                        
  17:/opt/XMClib/XMC_Peripheral_Library_v2.1.16/XMCLib/src/xmc_usbd.c ****  * 
  18:/opt/XMClib/XMC_Peripheral_Library_v2.1.16/XMCLib/src/xmc_usbd.c ****  *   Redistributions in binary form must reproduce the above copyright notice,   
  19:/opt/XMClib/XMC_Peripheral_Library_v2.1.16/XMCLib/src/xmc_usbd.c ****  *   this list of conditions and the following disclaimer in the documentation    
  20:/opt/XMClib/XMC_Peripheral_Library_v2.1.16/XMCLib/src/xmc_usbd.c ****  *   and/or other materials provided with the distribution.                       
  21:/opt/XMClib/XMC_Peripheral_Library_v2.1.16/XMCLib/src/xmc_usbd.c ****  * 
  22:/opt/XMClib/XMC_Peripheral_Library_v2.1.16/XMCLib/src/xmc_usbd.c ****  *   Neither the name of the copyright holders nor the names of its contributors 
  23:/opt/XMClib/XMC_Peripheral_Library_v2.1.16/XMCLib/src/xmc_usbd.c ****  *   may be used to endorse or promote products derived from this software without
  24:/opt/XMClib/XMC_Peripheral_Library_v2.1.16/XMCLib/src/xmc_usbd.c ****  *   specific prior written permission.                                           
  25:/opt/XMClib/XMC_Peripheral_Library_v2.1.16/XMCLib/src/xmc_usbd.c ****  *                                                                              
  26:/opt/XMClib/XMC_Peripheral_Library_v2.1.16/XMCLib/src/xmc_usbd.c ****  * THIS SOFTWARE IS PROVIDED BY THE COPYRIGHT HOLDERS AND CONTRIBUTORS "AS IS"  
  27:/opt/XMClib/XMC_Peripheral_Library_v2.1.16/XMCLib/src/xmc_usbd.c ****  * AND ANY EXPRESS OR IMPLIED WARRANTIES, INCLUDING, BUT NOT LIMITED TO, THE    
  28:/opt/XMClib/XMC_Peripheral_Library_v2.1.16/XMCLib/src/xmc_usbd.c ****  * IMPLIED WARRANTIES OF MERCHANTABILITY AND FITNESS FOR A PARTICULAR PURPOSE   
  29:/opt/XMClib/XMC_Peripheral_Library_v2.1.16/XMCLib/src/xmc_usbd.c ****  * ARE  DISCLAIMED. IN NO EVENT SHALL THE COPYRIGHT HOLDER OR CONTRIBUTORS BE   
  30:/opt/XMClib/XMC_Peripheral_Library_v2.1.16/XMCLib/src/xmc_usbd.c ****  * LIABLE  FOR ANY DIRECT, INDIRECT, INCIDENTAL, SPECIAL, EXEMPLARY, OR         
  31:/opt/XMClib/XMC_Peripheral_Library_v2.1.16/XMCLib/src/xmc_usbd.c ****  * CONSEQUENTIAL DAMAGES (INCLUDING, BUT NOT LIMITED TO, PROCUREMENT OF         
  32:/opt/XMClib/XMC_Peripheral_Library_v2.1.16/XMCLib/src/xmc_usbd.c ****  * SUBSTITUTE GOODS OR  SERVICES; LOSS OF USE, DATA, OR PROFITS; OR BUSINESS    
  33:/opt/XMClib/XMC_Peripheral_Library_v2.1.16/XMCLib/src/xmc_usbd.c ****  * INTERRUPTION) HOWEVER CAUSED AND ON ANY THEORY OF LIABILITY, WHETHER IN      
  34:/opt/XMClib/XMC_Peripheral_Library_v2.1.16/XMCLib/src/xmc_usbd.c ****  * CONTRACT, STRICT LIABILITY,OR TORT (INCLUDING NEGLIGENCE OR OTHERWISE)       
  35:/opt/XMClib/XMC_Peripheral_Library_v2.1.16/XMCLib/src/xmc_usbd.c ****  * ARISING IN ANY WAY OUT OF THE USE OF THIS SOFTWARE, EVEN IF ADVISED OF THE   
  36:/opt/XMClib/XMC_Peripheral_Library_v2.1.16/XMCLib/src/xmc_usbd.c ****  * POSSIBILITY OF SUCH DAMAGE.                                                  
  37:/opt/XMClib/XMC_Peripheral_Library_v2.1.16/XMCLib/src/xmc_usbd.c ****  *                                                                              
  38:/opt/XMClib/XMC_Peripheral_Library_v2.1.16/XMCLib/src/xmc_usbd.c ****  * To improve the quality of the software, users are encouraged to share        
  39:/opt/XMClib/XMC_Peripheral_Library_v2.1.16/XMCLib/src/xmc_usbd.c ****  * modifications, enhancements or bug fixes with Infineon Technologies AG       
  40:/opt/XMClib/XMC_Peripheral_Library_v2.1.16/XMCLib/src/xmc_usbd.c ****  * dave@infineon.com).                                                          
  41:/opt/XMClib/XMC_Peripheral_Library_v2.1.16/XMCLib/src/xmc_usbd.c ****  **********************************************************************************
  42:/opt/XMClib/XMC_Peripheral_Library_v2.1.16/XMCLib/src/xmc_usbd.c ****  *
  43:/opt/XMClib/XMC_Peripheral_Library_v2.1.16/XMCLib/src/xmc_usbd.c ****  * Change History
  44:/opt/XMClib/XMC_Peripheral_Library_v2.1.16/XMCLib/src/xmc_usbd.c ****  * --------------
  45:/opt/XMClib/XMC_Peripheral_Library_v2.1.16/XMCLib/src/xmc_usbd.c ****  *
  46:/opt/XMClib/XMC_Peripheral_Library_v2.1.16/XMCLib/src/xmc_usbd.c ****  * 2015-02-16:
  47:/opt/XMClib/XMC_Peripheral_Library_v2.1.16/XMCLib/src/xmc_usbd.c ****  *     - Initial Version.<br>           
  48:/opt/XMClib/XMC_Peripheral_Library_v2.1.16/XMCLib/src/xmc_usbd.c ****  * 2015-03-18:
  49:/opt/XMClib/XMC_Peripheral_Library_v2.1.16/XMCLib/src/xmc_usbd.c ****  *     - Updated the XMC_USBD_EndpointStall() to fix issue on USB clear stall. <br>
  50:/opt/XMClib/XMC_Peripheral_Library_v2.1.16/XMCLib/src/xmc_usbd.c ****  *     - Updated the XMC_USBD_EndpointConfigure() to fix issue in EP0 configuration.<br>
  51:/opt/XMClib/XMC_Peripheral_Library_v2.1.16/XMCLib/src/xmc_usbd.c ****  *     - Updated the XMC_USBD_IRQHandler()(Removed the DAVE_CE check on SOF event).<br>
  52:/opt/XMClib/XMC_Peripheral_Library_v2.1.16/XMCLib/src/xmc_usbd.c ****  * 2015-06-20:
  53:/opt/XMClib/XMC_Peripheral_Library_v2.1.16/XMCLib/src/xmc_usbd.c ****  *     - Removed GetDriverVersion API.<br>
  54:/opt/XMClib/XMC_Peripheral_Library_v2.1.16/XMCLib/src/xmc_usbd.c ****  *     - Updated the XMC_USBD_IsEnumDone() API.<br>
  55:/opt/XMClib/XMC_Peripheral_Library_v2.1.16/XMCLib/src/xmc_usbd.c ****  *     - Updated the copy right in the file header.<br>
  56:/opt/XMClib/XMC_Peripheral_Library_v2.1.16/XMCLib/src/xmc_usbd.c ****  *     - Updated the XMC_USBD_Disable() API to gate the clock after programming the SCU registers.<
  57:/opt/XMClib/XMC_Peripheral_Library_v2.1.16/XMCLib/src/xmc_usbd.c ****  *
  58:/opt/XMClib/XMC_Peripheral_Library_v2.1.16/XMCLib/src/xmc_usbd.c ****  * @endcond 
  59:/opt/XMClib/XMC_Peripheral_Library_v2.1.16/XMCLib/src/xmc_usbd.c ****  *
  60:/opt/XMClib/XMC_Peripheral_Library_v2.1.16/XMCLib/src/xmc_usbd.c ****  */
  61:/opt/XMClib/XMC_Peripheral_Library_v2.1.16/XMCLib/src/xmc_usbd.c **** 
  62:/opt/XMClib/XMC_Peripheral_Library_v2.1.16/XMCLib/src/xmc_usbd.c **** 
  63:/opt/XMClib/XMC_Peripheral_Library_v2.1.16/XMCLib/src/xmc_usbd.c **** /*******************************************************************************
  64:/opt/XMClib/XMC_Peripheral_Library_v2.1.16/XMCLib/src/xmc_usbd.c ****  * HEADER FILES
  65:/opt/XMClib/XMC_Peripheral_Library_v2.1.16/XMCLib/src/xmc_usbd.c ****  *******************************************************************************/
  66:/opt/XMClib/XMC_Peripheral_Library_v2.1.16/XMCLib/src/xmc_usbd.c **** #include <xmc_usbd.h>
  67:/opt/XMClib/XMC_Peripheral_Library_v2.1.16/XMCLib/src/xmc_usbd.c **** 
  68:/opt/XMClib/XMC_Peripheral_Library_v2.1.16/XMCLib/src/xmc_usbd.c **** #if defined(USB0)
  69:/opt/XMClib/XMC_Peripheral_Library_v2.1.16/XMCLib/src/xmc_usbd.c **** 	
  70:/opt/XMClib/XMC_Peripheral_Library_v2.1.16/XMCLib/src/xmc_usbd.c **** /**< macro to check the maximum number of endpoints used*/
  71:/opt/XMClib/XMC_Peripheral_Library_v2.1.16/XMCLib/src/xmc_usbd.c **** #define XMC_USBD_CHECK_INPUT_MAX_NUM_EPS(usbd_max_num_eps) \
  72:/opt/XMClib/XMC_Peripheral_Library_v2.1.16/XMCLib/src/xmc_usbd.c ****   ((usbd_max_num_eps ==  XMC_USBD_MAX_NUM_EPS_1 ) || \
  73:/opt/XMClib/XMC_Peripheral_Library_v2.1.16/XMCLib/src/xmc_usbd.c ****    (usbd_max_num_eps ==  XMC_USBD_MAX_NUM_EPS_2 ) || \
  74:/opt/XMClib/XMC_Peripheral_Library_v2.1.16/XMCLib/src/xmc_usbd.c ****    (usbd_max_num_eps ==  XMC_USBD_MAX_NUM_EPS_3 ) || \
  75:/opt/XMClib/XMC_Peripheral_Library_v2.1.16/XMCLib/src/xmc_usbd.c ****    (usbd_max_num_eps ==  XMC_USBD_MAX_NUM_EPS_4 ) || \
  76:/opt/XMClib/XMC_Peripheral_Library_v2.1.16/XMCLib/src/xmc_usbd.c ****    (usbd_max_num_eps ==  XMC_USBD_MAX_NUM_EPS_5 ) || \
  77:/opt/XMClib/XMC_Peripheral_Library_v2.1.16/XMCLib/src/xmc_usbd.c ****    (usbd_max_num_eps ==  XMC_USBD_MAX_NUM_EPS_6 ) || \
  78:/opt/XMClib/XMC_Peripheral_Library_v2.1.16/XMCLib/src/xmc_usbd.c ****    (usbd_max_num_eps == XMC_USBD_MAX_NUM_EPS_7 ))
  79:/opt/XMClib/XMC_Peripheral_Library_v2.1.16/XMCLib/src/xmc_usbd.c **** 
  80:/opt/XMClib/XMC_Peripheral_Library_v2.1.16/XMCLib/src/xmc_usbd.c **** /*******************************************************************************
  81:/opt/XMClib/XMC_Peripheral_Library_v2.1.16/XMCLib/src/xmc_usbd.c ****  *GLOBAL DATA
  82:/opt/XMClib/XMC_Peripheral_Library_v2.1.16/XMCLib/src/xmc_usbd.c ****  *******************************************************************************/
  83:/opt/XMClib/XMC_Peripheral_Library_v2.1.16/XMCLib/src/xmc_usbd.c **** /*
  84:/opt/XMClib/XMC_Peripheral_Library_v2.1.16/XMCLib/src/xmc_usbd.c ****  * Endpoint Out Fifo Size
  85:/opt/XMClib/XMC_Peripheral_Library_v2.1.16/XMCLib/src/xmc_usbd.c ****  */
  86:/opt/XMClib/XMC_Peripheral_Library_v2.1.16/XMCLib/src/xmc_usbd.c **** uint32_t XMC_USBD_EP_OUT_BUFFERSIZE[7] = {0U,0U,0U,0U,0U,0U,0U};
  87:/opt/XMClib/XMC_Peripheral_Library_v2.1.16/XMCLib/src/xmc_usbd.c **** /*
  88:/opt/XMClib/XMC_Peripheral_Library_v2.1.16/XMCLib/src/xmc_usbd.c ****  * Endpoint In Fifo Size
  89:/opt/XMClib/XMC_Peripheral_Library_v2.1.16/XMCLib/src/xmc_usbd.c ****  */
  90:/opt/XMClib/XMC_Peripheral_Library_v2.1.16/XMCLib/src/xmc_usbd.c **** uint32_t XMC_USBD_EP_IN_BUFFERSIZE[7] = {0U,0U,0U,0U,0U,0U,0U};
  91:/opt/XMClib/XMC_Peripheral_Library_v2.1.16/XMCLib/src/xmc_usbd.c **** /*
  92:/opt/XMClib/XMC_Peripheral_Library_v2.1.16/XMCLib/src/xmc_usbd.c ****  * Device definition
  93:/opt/XMClib/XMC_Peripheral_Library_v2.1.16/XMCLib/src/xmc_usbd.c ****  */
  94:/opt/XMClib/XMC_Peripheral_Library_v2.1.16/XMCLib/src/xmc_usbd.c ****  XMC_USBD_DEVICE_t xmc_device;
  95:/opt/XMClib/XMC_Peripheral_Library_v2.1.16/XMCLib/src/xmc_usbd.c **** #ifdef __GNUC__															  /*GCC*/
  96:/opt/XMClib/XMC_Peripheral_Library_v2.1.16/XMCLib/src/xmc_usbd.c **** /*
  97:/opt/XMClib/XMC_Peripheral_Library_v2.1.16/XMCLib/src/xmc_usbd.c ****  * Endpoint Out Fifo
  98:/opt/XMClib/XMC_Peripheral_Library_v2.1.16/XMCLib/src/xmc_usbd.c ****  */
  99:/opt/XMClib/XMC_Peripheral_Library_v2.1.16/XMCLib/src/xmc_usbd.c **** static __attribute__((aligned(4))) uint8_t XMC_USBD_EP_OUT_BUFFER[7][256] __attribute__((section("U
 100:/opt/XMClib/XMC_Peripheral_Library_v2.1.16/XMCLib/src/xmc_usbd.c **** /*
 101:/opt/XMClib/XMC_Peripheral_Library_v2.1.16/XMCLib/src/xmc_usbd.c ****  * Endpoint In Fifo
 102:/opt/XMClib/XMC_Peripheral_Library_v2.1.16/XMCLib/src/xmc_usbd.c ****  */
 103:/opt/XMClib/XMC_Peripheral_Library_v2.1.16/XMCLib/src/xmc_usbd.c **** static __attribute__((aligned(4))) uint8_t XMC_USBD_EP_IN_BUFFER[7][256] __attribute__((section("US
 104:/opt/XMClib/XMC_Peripheral_Library_v2.1.16/XMCLib/src/xmc_usbd.c **** #endif
 105:/opt/XMClib/XMC_Peripheral_Library_v2.1.16/XMCLib/src/xmc_usbd.c **** #if defined(__ICCARM__)
 106:/opt/XMClib/XMC_Peripheral_Library_v2.1.16/XMCLib/src/xmc_usbd.c **** #pragma data_alignment=4
 107:/opt/XMClib/XMC_Peripheral_Library_v2.1.16/XMCLib/src/xmc_usbd.c **** /*
 108:/opt/XMClib/XMC_Peripheral_Library_v2.1.16/XMCLib/src/xmc_usbd.c ****  * Endpoint Out Fifo
 109:/opt/XMClib/XMC_Peripheral_Library_v2.1.16/XMCLib/src/xmc_usbd.c ****  */
 110:/opt/XMClib/XMC_Peripheral_Library_v2.1.16/XMCLib/src/xmc_usbd.c **** static uint8_t XMC_USBD_EP_OUT_BUFFER[7][256] @ ".dram";
 111:/opt/XMClib/XMC_Peripheral_Library_v2.1.16/XMCLib/src/xmc_usbd.c **** /*
 112:/opt/XMClib/XMC_Peripheral_Library_v2.1.16/XMCLib/src/xmc_usbd.c ****  * Endpoint In Fifo
 113:/opt/XMClib/XMC_Peripheral_Library_v2.1.16/XMCLib/src/xmc_usbd.c ****  */
 114:/opt/XMClib/XMC_Peripheral_Library_v2.1.16/XMCLib/src/xmc_usbd.c **** #pragma data_alignment=4
 115:/opt/XMClib/XMC_Peripheral_Library_v2.1.16/XMCLib/src/xmc_usbd.c **** static uint8_t XMC_USBD_EP_IN_BUFFER[7][256] @ ".dram";
 116:/opt/XMClib/XMC_Peripheral_Library_v2.1.16/XMCLib/src/xmc_usbd.c **** #endif
 117:/opt/XMClib/XMC_Peripheral_Library_v2.1.16/XMCLib/src/xmc_usbd.c **** #if defined(__CC_ARM)
 118:/opt/XMClib/XMC_Peripheral_Library_v2.1.16/XMCLib/src/xmc_usbd.c **** /*
 119:/opt/XMClib/XMC_Peripheral_Library_v2.1.16/XMCLib/src/xmc_usbd.c ****  * Endpoint Out Fifo
 120:/opt/XMClib/XMC_Peripheral_Library_v2.1.16/XMCLib/src/xmc_usbd.c ****  */
 121:/opt/XMClib/XMC_Peripheral_Library_v2.1.16/XMCLib/src/xmc_usbd.c **** static __attribute__((aligned(4))) uint8_t XMC_USBD_EP_OUT_BUFFER[7][256] __attribute__((section ("
 122:/opt/XMClib/XMC_Peripheral_Library_v2.1.16/XMCLib/src/xmc_usbd.c **** /*
 123:/opt/XMClib/XMC_Peripheral_Library_v2.1.16/XMCLib/src/xmc_usbd.c ****  * Endpoint In Fifo
 124:/opt/XMClib/XMC_Peripheral_Library_v2.1.16/XMCLib/src/xmc_usbd.c ****  */
 125:/opt/XMClib/XMC_Peripheral_Library_v2.1.16/XMCLib/src/xmc_usbd.c **** static __attribute__((aligned(4))) uint8_t XMC_USBD_EP_IN_BUFFER[7][256] __attribute__((section ("R
 126:/opt/XMClib/XMC_Peripheral_Library_v2.1.16/XMCLib/src/xmc_usbd.c **** #endif
 127:/opt/XMClib/XMC_Peripheral_Library_v2.1.16/XMCLib/src/xmc_usbd.c **** XMC_USBD_t *usbd_init;
 128:/opt/XMClib/XMC_Peripheral_Library_v2.1.16/XMCLib/src/xmc_usbd.c **** 
 129:/opt/XMClib/XMC_Peripheral_Library_v2.1.16/XMCLib/src/xmc_usbd.c **** /*******************************************************************************
 130:/opt/XMClib/XMC_Peripheral_Library_v2.1.16/XMCLib/src/xmc_usbd.c ****  *LOCAL ROUTINES
 131:/opt/XMClib/XMC_Peripheral_Library_v2.1.16/XMCLib/src/xmc_usbd.c ****  *******************************************************************************/
 132:/opt/XMClib/XMC_Peripheral_Library_v2.1.16/XMCLib/src/xmc_usbd.c **** /*Local routines prototypes*/
 133:/opt/XMClib/XMC_Peripheral_Library_v2.1.16/XMCLib/src/xmc_usbd.c **** uint8_t XMC_USBD_lDeviceActive(const XMC_USBD_t *const obj);
 134:/opt/XMClib/XMC_Peripheral_Library_v2.1.16/XMCLib/src/xmc_usbd.c **** static void XMC_USBD_lReadFifo(const uint32_t ep_num,const uint32_t byte_count);
 135:/opt/XMClib/XMC_Peripheral_Library_v2.1.16/XMCLib/src/xmc_usbd.c **** static uint32_t XMC_USBD_lWriteFifo(XMC_USBD_EP_t *ep);
 136:/opt/XMClib/XMC_Peripheral_Library_v2.1.16/XMCLib/src/xmc_usbd.c **** static void XMC_USBD_lFlushTXFifo(const uint8_t fifo_num);
 137:/opt/XMClib/XMC_Peripheral_Library_v2.1.16/XMCLib/src/xmc_usbd.c **** static void XMC_USBD_lFlushRXFifo(void);
 138:/opt/XMClib/XMC_Peripheral_Library_v2.1.16/XMCLib/src/xmc_usbd.c **** static uint8_t XMC_USBD_lAssignTXFifo(void);
 139:/opt/XMClib/XMC_Peripheral_Library_v2.1.16/XMCLib/src/xmc_usbd.c **** static void XMC_USBD_lStartReadXfer(XMC_USBD_EP_t *const ep);
 140:/opt/XMClib/XMC_Peripheral_Library_v2.1.16/XMCLib/src/xmc_usbd.c **** static void XMC_USBD_lStartWriteXfer(XMC_USBD_EP_t *const ep);
 141:/opt/XMClib/XMC_Peripheral_Library_v2.1.16/XMCLib/src/xmc_usbd.c **** static void XMC_USBD_lHandleEnumDone(void);
 142:/opt/XMClib/XMC_Peripheral_Library_v2.1.16/XMCLib/src/xmc_usbd.c **** static void XMC_USBD_lHandleOEPInt(const XMC_USBD_t *const obj);
 143:/opt/XMClib/XMC_Peripheral_Library_v2.1.16/XMCLib/src/xmc_usbd.c **** static void XMC_USBD_lHandleRxFLvl(void);
 144:/opt/XMClib/XMC_Peripheral_Library_v2.1.16/XMCLib/src/xmc_usbd.c **** static void XMC_USBD_lHandleIEPInt(const XMC_USBD_t *const obj);
 145:/opt/XMClib/XMC_Peripheral_Library_v2.1.16/XMCLib/src/xmc_usbd.c **** static void XMC_USBD_lUnassignFifo(const uint8_t fifo_nr);
 146:/opt/XMClib/XMC_Peripheral_Library_v2.1.16/XMCLib/src/xmc_usbd.c **** static void XMC_USBD_lHandleUSBReset(const XMC_USBD_t *const obj);
 147:/opt/XMClib/XMC_Peripheral_Library_v2.1.16/XMCLib/src/xmc_usbd.c **** static void XMC_USBD_lHandleOTGInt(void);
 148:/opt/XMClib/XMC_Peripheral_Library_v2.1.16/XMCLib/src/xmc_usbd.c **** static void XMC_USBD_lClearEventOTG(uint32_t event);
 149:/opt/XMClib/XMC_Peripheral_Library_v2.1.16/XMCLib/src/xmc_usbd.c **** 
 150:/opt/XMClib/XMC_Peripheral_Library_v2.1.16/XMCLib/src/xmc_usbd.c **** /**
 151:/opt/XMClib/XMC_Peripheral_Library_v2.1.16/XMCLib/src/xmc_usbd.c ****  *  The device driver
 152:/opt/XMClib/XMC_Peripheral_Library_v2.1.16/XMCLib/src/xmc_usbd.c ****  */
 153:/opt/XMClib/XMC_Peripheral_Library_v2.1.16/XMCLib/src/xmc_usbd.c **** const XMC_USBD_DRIVER_t Driver_USBD0 =
 154:/opt/XMClib/XMC_Peripheral_Library_v2.1.16/XMCLib/src/xmc_usbd.c **** {
 155:/opt/XMClib/XMC_Peripheral_Library_v2.1.16/XMCLib/src/xmc_usbd.c ****   .GetCapabilities = XMC_USBD_GetCapabilities,
 156:/opt/XMClib/XMC_Peripheral_Library_v2.1.16/XMCLib/src/xmc_usbd.c ****   .Initialize = XMC_USBD_Init,
 157:/opt/XMClib/XMC_Peripheral_Library_v2.1.16/XMCLib/src/xmc_usbd.c ****   .Uninitialize = XMC_USBD_Uninitialize,
 158:/opt/XMClib/XMC_Peripheral_Library_v2.1.16/XMCLib/src/xmc_usbd.c ****   .DeviceConnect = XMC_USBD_DeviceConnect,
 159:/opt/XMClib/XMC_Peripheral_Library_v2.1.16/XMCLib/src/xmc_usbd.c ****   .DeviceDisconnect = XMC_USBD_DeviceDisconnect,
 160:/opt/XMClib/XMC_Peripheral_Library_v2.1.16/XMCLib/src/xmc_usbd.c ****   .DeviceGetState = XMC_USBD_DeviceGetState,
 161:/opt/XMClib/XMC_Peripheral_Library_v2.1.16/XMCLib/src/xmc_usbd.c ****   .DeviceSetAddress = XMC_USBD_DeviceSetAddress,
 162:/opt/XMClib/XMC_Peripheral_Library_v2.1.16/XMCLib/src/xmc_usbd.c ****   .EndpointConfigure = XMC_USBD_EndpointConfigure,
 163:/opt/XMClib/XMC_Peripheral_Library_v2.1.16/XMCLib/src/xmc_usbd.c ****   .EndpointUnconfigure = XMC_USBD_EndpointUnconfigure,
 164:/opt/XMClib/XMC_Peripheral_Library_v2.1.16/XMCLib/src/xmc_usbd.c ****   .EndpointStall = XMC_USBD_EndpointStall,
 165:/opt/XMClib/XMC_Peripheral_Library_v2.1.16/XMCLib/src/xmc_usbd.c ****   .EndpointReadStart = XMC_USBD_EndpointReadStart,
 166:/opt/XMClib/XMC_Peripheral_Library_v2.1.16/XMCLib/src/xmc_usbd.c ****   .EndpointRead = XMC_USBD_EndpointRead,
 167:/opt/XMClib/XMC_Peripheral_Library_v2.1.16/XMCLib/src/xmc_usbd.c ****   .EndpointWrite = XMC_USBD_EndpointWrite,
 168:/opt/XMClib/XMC_Peripheral_Library_v2.1.16/XMCLib/src/xmc_usbd.c ****   .EndpointAbort = XMC_USBD_EndpointAbort,
 169:/opt/XMClib/XMC_Peripheral_Library_v2.1.16/XMCLib/src/xmc_usbd.c ****   .GetFrameNumber = XMC_USBD_GetFrameNumber,
 170:/opt/XMClib/XMC_Peripheral_Library_v2.1.16/XMCLib/src/xmc_usbd.c ****   .IsEnumDone = XMC_USBD_IsEnumDone
 171:/opt/XMClib/XMC_Peripheral_Library_v2.1.16/XMCLib/src/xmc_usbd.c **** };
 172:/opt/XMClib/XMC_Peripheral_Library_v2.1.16/XMCLib/src/xmc_usbd.c **** 
 173:/opt/XMClib/XMC_Peripheral_Library_v2.1.16/XMCLib/src/xmc_usbd.c **** /**
 174:/opt/XMClib/XMC_Peripheral_Library_v2.1.16/XMCLib/src/xmc_usbd.c ****  * @brief Checks if device is active
 175:/opt/XMClib/XMC_Peripheral_Library_v2.1.16/XMCLib/src/xmc_usbd.c ****  *
 176:/opt/XMClib/XMC_Peripheral_Library_v2.1.16/XMCLib/src/xmc_usbd.c ****  * Therefore the endpoint inInUse flag are checked and if one endpoint is in use, 1 is returned,
 177:/opt/XMClib/XMC_Peripheral_Library_v2.1.16/XMCLib/src/xmc_usbd.c ****  * else 0 is returned.
 178:/opt/XMClib/XMC_Peripheral_Library_v2.1.16/XMCLib/src/xmc_usbd.c ****  * @return 1 if an endpoint is active else 0
 179:/opt/XMClib/XMC_Peripheral_Library_v2.1.16/XMCLib/src/xmc_usbd.c ****  */
 180:/opt/XMClib/XMC_Peripheral_Library_v2.1.16/XMCLib/src/xmc_usbd.c **** uint8_t XMC_USBD_lDeviceActive(const XMC_USBD_t *const obj) 
 181:/opt/XMClib/XMC_Peripheral_Library_v2.1.16/XMCLib/src/xmc_usbd.c **** {
 182:/opt/XMClib/XMC_Peripheral_Library_v2.1.16/XMCLib/src/xmc_usbd.c ****   uint8_t i;
 183:/opt/XMClib/XMC_Peripheral_Library_v2.1.16/XMCLib/src/xmc_usbd.c ****   uint8_t result = 0U;
 184:/opt/XMClib/XMC_Peripheral_Library_v2.1.16/XMCLib/src/xmc_usbd.c ****   for (i = 0U; i < (uint8_t)obj->usbd_max_num_eps; i++)
 185:/opt/XMClib/XMC_Peripheral_Library_v2.1.16/XMCLib/src/xmc_usbd.c ****   {
 186:/opt/XMClib/XMC_Peripheral_Library_v2.1.16/XMCLib/src/xmc_usbd.c ****     if (xmc_device.ep[i].inInUse || xmc_device.ep[i].outInUse)
 187:/opt/XMClib/XMC_Peripheral_Library_v2.1.16/XMCLib/src/xmc_usbd.c ****     {
 188:/opt/XMClib/XMC_Peripheral_Library_v2.1.16/XMCLib/src/xmc_usbd.c ****       result = 1U;
 189:/opt/XMClib/XMC_Peripheral_Library_v2.1.16/XMCLib/src/xmc_usbd.c ****     }
 190:/opt/XMClib/XMC_Peripheral_Library_v2.1.16/XMCLib/src/xmc_usbd.c ****   }
 191:/opt/XMClib/XMC_Peripheral_Library_v2.1.16/XMCLib/src/xmc_usbd.c ****   return result;
 192:/opt/XMClib/XMC_Peripheral_Library_v2.1.16/XMCLib/src/xmc_usbd.c **** }
 193:/opt/XMClib/XMC_Peripheral_Library_v2.1.16/XMCLib/src/xmc_usbd.c **** 
 194:/opt/XMClib/XMC_Peripheral_Library_v2.1.16/XMCLib/src/xmc_usbd.c **** 
 195:/opt/XMClib/XMC_Peripheral_Library_v2.1.16/XMCLib/src/xmc_usbd.c **** /**
 196:/opt/XMClib/XMC_Peripheral_Library_v2.1.16/XMCLib/src/xmc_usbd.c ****  * @brief Read data from the rx fifo
 197:/opt/XMClib/XMC_Peripheral_Library_v2.1.16/XMCLib/src/xmc_usbd.c ****  *
 198:/opt/XMClib/XMC_Peripheral_Library_v2.1.16/XMCLib/src/xmc_usbd.c ****  * The data from the fifo is copied in to the buffer specified by @ref xfer_buffer and
 199:/opt/XMClib/XMC_Peripheral_Library_v2.1.16/XMCLib/src/xmc_usbd.c ****  * the transfer values get updated. If the endpoint is disabled or the buffer not existent
 200:/opt/XMClib/XMC_Peripheral_Library_v2.1.16/XMCLib/src/xmc_usbd.c ****  * the function exits.
 201:/opt/XMClib/XMC_Peripheral_Library_v2.1.16/XMCLib/src/xmc_usbd.c ****  *
 202:/opt/XMClib/XMC_Peripheral_Library_v2.1.16/XMCLib/src/xmc_usbd.c ****  * @arg ep_num the endpoint to read for
 203:/opt/XMClib/XMC_Peripheral_Library_v2.1.16/XMCLib/src/xmc_usbd.c ****  * @arg byte_count the byte count to read
 204:/opt/XMClib/XMC_Peripheral_Library_v2.1.16/XMCLib/src/xmc_usbd.c ****  */
 205:/opt/XMClib/XMC_Peripheral_Library_v2.1.16/XMCLib/src/xmc_usbd.c **** static void XMC_USBD_lReadFifo(const uint32_t ep_num,const uint32_t byte_count) 
 206:/opt/XMClib/XMC_Peripheral_Library_v2.1.16/XMCLib/src/xmc_usbd.c **** {
  28              		.loc 1 206 1 view -0
  29              		.cfi_startproc
  30              		@ args = 0, pretend = 0, frame = 0
  31              		@ frame_needed = 0, uses_anonymous_args = 0
 207:/opt/XMClib/XMC_Peripheral_Library_v2.1.16/XMCLib/src/xmc_usbd.c ****   XMC_USBD_EP_t * ep = &xmc_device.ep[ep_num];
  32              		.loc 1 207 3 view .LVU1
 208:/opt/XMClib/XMC_Peripheral_Library_v2.1.16/XMCLib/src/xmc_usbd.c ****   uint32_t word_count;
  33              		.loc 1 208 3 view .LVU2
 209:/opt/XMClib/XMC_Peripheral_Library_v2.1.16/XMCLib/src/xmc_usbd.c ****   uint32_t temp_data;
  34              		.loc 1 209 3 view .LVU3
 210:/opt/XMClib/XMC_Peripheral_Library_v2.1.16/XMCLib/src/xmc_usbd.c ****   uint32_t temp_word_count;
  35              		.loc 1 210 3 view .LVU4
 211:/opt/XMClib/XMC_Peripheral_Library_v2.1.16/XMCLib/src/xmc_usbd.c ****   volatile uint32_t *fifo = xmc_device.fifo[0U];
  36              		.loc 1 211 3 view .LVU5
 212:/opt/XMClib/XMC_Peripheral_Library_v2.1.16/XMCLib/src/xmc_usbd.c ****   uint32_t i;
  37              		.loc 1 212 3 view .LVU6
 213:/opt/XMClib/XMC_Peripheral_Library_v2.1.16/XMCLib/src/xmc_usbd.c ****   depctl_data_t data;
  38              		.loc 1 213 3 view .LVU7
 214:/opt/XMClib/XMC_Peripheral_Library_v2.1.16/XMCLib/src/xmc_usbd.c ****   data.d32 = xmc_device.endpoint_out_register[ep_num]->doepctl;
  39              		.loc 1 214 3 view .LVU8
  40              		.loc 1 214 46 is_stmt 0 view .LVU9
  41 0000 2B4B     		ldr	r3, .L16
  42 0002 03EB8003 		add	r3, r3, r0, lsl #2
  43 0006 D3F8C431 		ldr	r3, [r3, #452]
  44              		.loc 1 214 54 view .LVU10
  45 000a 1B68     		ldr	r3, [r3]
  46              	.LVL1:
 215:/opt/XMClib/XMC_Peripheral_Library_v2.1.16/XMCLib/src/xmc_usbd.c ****   word_count = (byte_count >> 2U );
  47              		.loc 1 215 3 is_stmt 1 view .LVU11
 216:/opt/XMClib/XMC_Peripheral_Library_v2.1.16/XMCLib/src/xmc_usbd.c ****   temp_word_count = (word_count << 2U);
  48              		.loc 1 216 3 view .LVU12
 217:/opt/XMClib/XMC_Peripheral_Library_v2.1.16/XMCLib/src/xmc_usbd.c ****   /* Check if ep is enabled and has buffer */
 218:/opt/XMClib/XMC_Peripheral_Library_v2.1.16/XMCLib/src/xmc_usbd.c ****   if (!data.b.usbactep)
  49              		.loc 1 218 3 view .LVU13
  50              		.loc 1 218 6 is_stmt 0 view .LVU14
  51 000c 13F4004F 		tst	r3, #32768
  52 0010 00D1     		bne	.L15
  53              	.LVL2:
  54              	.L12:
  55              		.loc 1 218 6 view .LVU15
  56 0012 7047     		bx	lr
  57              	.LVL3:
  58              	.L15:
 219:/opt/XMClib/XMC_Peripheral_Library_v2.1.16/XMCLib/src/xmc_usbd.c ****   {
 220:/opt/XMClib/XMC_Peripheral_Library_v2.1.16/XMCLib/src/xmc_usbd.c ****     /*Do Nothing*/
 221:/opt/XMClib/XMC_Peripheral_Library_v2.1.16/XMCLib/src/xmc_usbd.c ****   }
 222:/opt/XMClib/XMC_Peripheral_Library_v2.1.16/XMCLib/src/xmc_usbd.c ****   else if (ep->xferBuffer == NULL)
  59              		.loc 1 222 8 is_stmt 1 view .LVU16
  60              		.loc 1 222 14 is_stmt 0 view .LVU17
  61 0014 264B     		ldr	r3, .L16
  62              	.LVL4:
  63              		.loc 1 222 14 view .LVU18
  64 0016 3422     		movs	r2, #52
  65 0018 02FB0033 		mla	r3, r2, r0, r3
  66              		.loc 1 222 11 view .LVU19
  67 001c 5B6A     		ldr	r3, [r3, #36]
  68 001e 002B     		cmp	r3, #0
  69 0020 F7D0     		beq	.L12
 206:/opt/XMClib/XMC_Peripheral_Library_v2.1.16/XMCLib/src/xmc_usbd.c ****   XMC_USBD_EP_t * ep = &xmc_device.ep[ep_num];
  70              		.loc 1 206 1 view .LVU20
  71 0022 F0B5     		push	{r4, r5, r6, r7, lr}
  72              	.LCFI0:
  73              		.cfi_def_cfa_offset 20
  74              		.cfi_offset 4, -20
  75              		.cfi_offset 5, -16
  76              		.cfi_offset 6, -12
  77              		.cfi_offset 7, -8
  78              		.cfi_offset 14, -4
 211:/opt/XMClib/XMC_Peripheral_Library_v2.1.16/XMCLib/src/xmc_usbd.c ****   uint32_t i;
  79              		.loc 1 211 22 view .LVU21
  80 0024 224B     		ldr	r3, .L16
  81 0026 D3F8E051 		ldr	r5, [r3, #480]
  82              	.LVL5:
 223:/opt/XMClib/XMC_Peripheral_Library_v2.1.16/XMCLib/src/xmc_usbd.c ****   {
 224:/opt/XMClib/XMC_Peripheral_Library_v2.1.16/XMCLib/src/xmc_usbd.c **** 	/*Do Nothing*/
 225:/opt/XMClib/XMC_Peripheral_Library_v2.1.16/XMCLib/src/xmc_usbd.c ****   }
 226:/opt/XMClib/XMC_Peripheral_Library_v2.1.16/XMCLib/src/xmc_usbd.c ****   else
 227:/opt/XMClib/XMC_Peripheral_Library_v2.1.16/XMCLib/src/xmc_usbd.c ****   {
 228:/opt/XMClib/XMC_Peripheral_Library_v2.1.16/XMCLib/src/xmc_usbd.c ****     /* store the data */
 229:/opt/XMClib/XMC_Peripheral_Library_v2.1.16/XMCLib/src/xmc_usbd.c ****     for (i = 0U;i < word_count; i++)
  83              		.loc 1 229 19 is_stmt 1 discriminator 1 view .LVU22
  84 002a 8F08     		lsrs	r7, r1, #2
  85 002c 38D0     		beq	.L3
  86 002e 4FEA870E 		lsl	lr, r7, #2
  87 0032 0023     		movs	r3, #0
 230:/opt/XMClib/XMC_Peripheral_Library_v2.1.16/XMCLib/src/xmc_usbd.c ****     {
 231:/opt/XMClib/XMC_Peripheral_Library_v2.1.16/XMCLib/src/xmc_usbd.c ****       *(((uint32_t*)ep->xferBuffer)+i) = *fifo;
  88              		.loc 1 231 23 is_stmt 0 view .LVU23
  89 0034 1E4A     		ldr	r2, .L16
  90 0036 3424     		movs	r4, #52
  91 0038 04FB002C 		mla	ip, r4, r0, r2
  92              	.LVL6:
  93              	.L4:
  94              		.loc 1 231 7 is_stmt 1 view .LVU24
  95              		.loc 1 231 42 is_stmt 0 view .LVU25
  96 003c 2C68     		ldr	r4, [r5]
  97              		.loc 1 231 40 view .LVU26
  98 003e DCF82420 		ldr	r2, [ip, #36]
  99 0042 D450     		str	r4, [r2, r3]
 229:/opt/XMClib/XMC_Peripheral_Library_v2.1.16/XMCLib/src/xmc_usbd.c ****     {
 100              		.loc 1 229 34 is_stmt 1 discriminator 3 view .LVU27
 229:/opt/XMClib/XMC_Peripheral_Library_v2.1.16/XMCLib/src/xmc_usbd.c ****     {
 101              		.loc 1 229 19 discriminator 1 view .LVU28
 102 0044 0433     		adds	r3, r3, #4
 103 0046 7345     		cmp	r3, lr
 104 0048 F8D1     		bne	.L4
 232:/opt/XMClib/XMC_Peripheral_Library_v2.1.16/XMCLib/src/xmc_usbd.c ****     }
 233:/opt/XMClib/XMC_Peripheral_Library_v2.1.16/XMCLib/src/xmc_usbd.c ****     /* space is not devidable by 4 */
 234:/opt/XMClib/XMC_Peripheral_Library_v2.1.16/XMCLib/src/xmc_usbd.c ****     if (byte_count!=temp_word_count)
 105              		.loc 1 234 5 view .LVU29
 106              		.loc 1 234 8 is_stmt 0 view .LVU30
 107 004a 11F0030F 		tst	r1, #3
 108 004e 1CD0     		beq	.L5
 216:/opt/XMClib/XMC_Peripheral_Library_v2.1.16/XMCLib/src/xmc_usbd.c ****   /* Check if ep is enabled and has buffer */
 109              		.loc 1 216 19 view .LVU31
 110 0050 21F00303 		bic	r3, r1, #3
 235:/opt/XMClib/XMC_Peripheral_Library_v2.1.16/XMCLib/src/xmc_usbd.c ****     {
 236:/opt/XMClib/XMC_Peripheral_Library_v2.1.16/XMCLib/src/xmc_usbd.c ****       temp_data = *fifo;
 111              		.loc 1 236 7 is_stmt 1 view .LVU32
 112              		.loc 1 236 17 is_stmt 0 view .LVU33
 113 0054 2E68     		ldr	r6, [r5]
 114              	.LVL7:
 237:/opt/XMClib/XMC_Peripheral_Library_v2.1.16/XMCLib/src/xmc_usbd.c ****       for (i = 0U;(temp_word_count + i) < byte_count;i++)
 115              		.loc 1 237 7 is_stmt 1 view .LVU34
 116              		.loc 1 237 41 discriminator 1 view .LVU35
 117 0056 9942     		cmp	r1, r3
 118 0058 17D9     		bls	.L5
 119              	.L7:
 238:/opt/XMClib/XMC_Peripheral_Library_v2.1.16/XMCLib/src/xmc_usbd.c ****       {
 239:/opt/XMClib/XMC_Peripheral_Library_v2.1.16/XMCLib/src/xmc_usbd.c ****         ep->xferBuffer[(word_count << 2)+i] = (uint8_t)((temp_data & ((uint32_t)0xFFU << (i * 8U)))
 120              		.loc 1 239 36 is_stmt 0 view .LVU36
 121 005a 4FEA870C 		lsl	ip, r7, #2
 122 005e C3EB8705 		rsb	r5, r3, r7, lsl #2
 123 0062 0D44     		add	r5, r5, r1
 124 0064 0022     		movs	r2, #0
 125              		.loc 1 239 11 view .LVU37
 126 0066 124B     		ldr	r3, .L16
 127 0068 3424     		movs	r4, #52
 128 006a 04FB003E 		mla	lr, r4, r0, r3
 129              		.loc 1 239 87 view .LVU38
 130 006e FF27     		movs	r7, #255
 131              	.LVL8:
 132              	.L6:
 133              		.loc 1 239 9 is_stmt 1 view .LVU39
 134              		.loc 1 239 45 is_stmt 0 view .LVU40
 135 0070 DEF82440 		ldr	r4, [lr, #36]
 136              		.loc 1 239 87 view .LVU41
 137 0074 07FA02F3 		lsl	r3, r7, r2
 138              		.loc 1 239 68 view .LVU42
 139 0078 3340     		ands	r3, r3, r6
 140              		.loc 1 239 101 view .LVU43
 141 007a D340     		lsrs	r3, r3, r2
 142              		.loc 1 239 47 view .LVU44
 143 007c 04F80C30 		strb	r3, [r4, ip]
 237:/opt/XMClib/XMC_Peripheral_Library_v2.1.16/XMCLib/src/xmc_usbd.c ****       for (i = 0U;(temp_word_count + i) < byte_count;i++)
 144              		.loc 1 237 55 is_stmt 1 discriminator 3 view .LVU45
 145              	.LVL9:
 237:/opt/XMClib/XMC_Peripheral_Library_v2.1.16/XMCLib/src/xmc_usbd.c ****       for (i = 0U;(temp_word_count + i) < byte_count;i++)
 146              		.loc 1 237 41 discriminator 1 view .LVU46
 147 0080 0832     		adds	r2, r2, #8
 148 0082 0CF1010C 		add	ip, ip, #1
 149 0086 AC45     		cmp	ip, r5
 150 0088 F2D1     		bne	.L6
 151              	.LVL10:
 152              	.L5:
 240:/opt/XMClib/XMC_Peripheral_Library_v2.1.16/XMCLib/src/xmc_usbd.c ****       }
 241:/opt/XMClib/XMC_Peripheral_Library_v2.1.16/XMCLib/src/xmc_usbd.c ****     }
 242:/opt/XMClib/XMC_Peripheral_Library_v2.1.16/XMCLib/src/xmc_usbd.c **** 
 243:/opt/XMClib/XMC_Peripheral_Library_v2.1.16/XMCLib/src/xmc_usbd.c ****     /* save the amount of data */
 244:/opt/XMClib/XMC_Peripheral_Library_v2.1.16/XMCLib/src/xmc_usbd.c ****     ep->xferCount += byte_count;
 153              		.loc 1 244 5 view .LVU47
 154              		.loc 1 244 19 is_stmt 0 view .LVU48
 155 008a 094B     		ldr	r3, .L16
 156 008c 3422     		movs	r2, #52
 157 008e 02FB0033 		mla	r3, r2, r0, r3
 158 0092 DA6A     		ldr	r2, [r3, #44]
 159 0094 0A44     		add	r2, r2, r1
 160 0096 DA62     		str	r2, [r3, #44]
 245:/opt/XMClib/XMC_Peripheral_Library_v2.1.16/XMCLib/src/xmc_usbd.c ****     ep->xferBuffer += byte_count;
 161              		.loc 1 245 5 is_stmt 1 view .LVU49
 162              		.loc 1 245 20 is_stmt 0 view .LVU50
 163 0098 5A6A     		ldr	r2, [r3, #36]
 164 009a 0A44     		add	r2, r2, r1
 165 009c 5A62     		str	r2, [r3, #36]
 166              	.LVL11:
 246:/opt/XMClib/XMC_Peripheral_Library_v2.1.16/XMCLib/src/xmc_usbd.c ****   }
 247:/opt/XMClib/XMC_Peripheral_Library_v2.1.16/XMCLib/src/xmc_usbd.c **** }
 167              		.loc 1 247 1 view .LVU51
 168 009e F0BD     		pop	{r4, r5, r6, r7, pc}
 169              	.LVL12:
 170              	.L3:
 234:/opt/XMClib/XMC_Peripheral_Library_v2.1.16/XMCLib/src/xmc_usbd.c ****     {
 171              		.loc 1 234 5 is_stmt 1 view .LVU52
 234:/opt/XMClib/XMC_Peripheral_Library_v2.1.16/XMCLib/src/xmc_usbd.c ****     {
 172              		.loc 1 234 8 is_stmt 0 view .LVU53
 173 00a0 11F0030F 		tst	r1, #3
 174 00a4 F1D0     		beq	.L5
 216:/opt/XMClib/XMC_Peripheral_Library_v2.1.16/XMCLib/src/xmc_usbd.c ****   /* Check if ep is enabled and has buffer */
 175              		.loc 1 216 19 view .LVU54
 176 00a6 21F00303 		bic	r3, r1, #3
 236:/opt/XMClib/XMC_Peripheral_Library_v2.1.16/XMCLib/src/xmc_usbd.c ****       for (i = 0U;(temp_word_count + i) < byte_count;i++)
 177              		.loc 1 236 7 is_stmt 1 view .LVU55
 236:/opt/XMClib/XMC_Peripheral_Library_v2.1.16/XMCLib/src/xmc_usbd.c ****       for (i = 0U;(temp_word_count + i) < byte_count;i++)
 178              		.loc 1 236 17 is_stmt 0 view .LVU56
 179 00aa 2E68     		ldr	r6, [r5]
 180              	.LVL13:
 237:/opt/XMClib/XMC_Peripheral_Library_v2.1.16/XMCLib/src/xmc_usbd.c ****       {
 181              		.loc 1 237 7 is_stmt 1 view .LVU57
 237:/opt/XMClib/XMC_Peripheral_Library_v2.1.16/XMCLib/src/xmc_usbd.c ****       {
 182              		.loc 1 237 41 discriminator 1 view .LVU58
 183 00ac D5E7     		b	.L7
 184              	.L17:
 185 00ae 00BF     		.align	2
 186              	.L16:
 187 00b0 00000000 		.word	.LANCHOR0
 188              		.cfi_endproc
 189              	.LFE163:
 191              		.section	.text.XMC_USBD_lFlushTXFifo,"ax",%progbits
 192              		.align	1
 193              		.syntax unified
 194              		.thumb
 195              		.thumb_func
 197              	XMC_USBD_lFlushTXFifo:
 198              	.LVL14:
 199              	.LFB165:
 248:/opt/XMClib/XMC_Peripheral_Library_v2.1.16/XMCLib/src/xmc_usbd.c **** 
 249:/opt/XMClib/XMC_Peripheral_Library_v2.1.16/XMCLib/src/xmc_usbd.c **** /**
 250:/opt/XMClib/XMC_Peripheral_Library_v2.1.16/XMCLib/src/xmc_usbd.c ****  * @brief Write data to an endpoint fifo
 251:/opt/XMClib/XMC_Peripheral_Library_v2.1.16/XMCLib/src/xmc_usbd.c ****  *
 252:/opt/XMClib/XMC_Peripheral_Library_v2.1.16/XMCLib/src/xmc_usbd.c ****  * The data from the @ref xfer_buffer gets copied in to the tx fifo of the endpoint until the buffe
 253:/opt/XMClib/XMC_Peripheral_Library_v2.1.16/XMCLib/src/xmc_usbd.c ****  *completely or the tx fifo is full. The transfer values are not updated.
 254:/opt/XMClib/XMC_Peripheral_Library_v2.1.16/XMCLib/src/xmc_usbd.c ****  *
 255:/opt/XMClib/XMC_Peripheral_Library_v2.1.16/XMCLib/src/xmc_usbd.c ****  * @arg[in] ep the endpoint to use
 256:/opt/XMClib/XMC_Peripheral_Library_v2.1.16/XMCLib/src/xmc_usbd.c ****  * @return the number of bytes written to the fifo
 257:/opt/XMClib/XMC_Peripheral_Library_v2.1.16/XMCLib/src/xmc_usbd.c ****  */
 258:/opt/XMClib/XMC_Peripheral_Library_v2.1.16/XMCLib/src/xmc_usbd.c **** static uint32_t XMC_USBD_lWriteFifo(XMC_USBD_EP_t *const ep) 
 259:/opt/XMClib/XMC_Peripheral_Library_v2.1.16/XMCLib/src/xmc_usbd.c **** {
 260:/opt/XMClib/XMC_Peripheral_Library_v2.1.16/XMCLib/src/xmc_usbd.c ****   dtxfsts_data_t freeSpace; 
 261:/opt/XMClib/XMC_Peripheral_Library_v2.1.16/XMCLib/src/xmc_usbd.c ****   volatile uint32_t *fifo;
 262:/opt/XMClib/XMC_Peripheral_Library_v2.1.16/XMCLib/src/xmc_usbd.c ****   uint32_t byte_count;
 263:/opt/XMClib/XMC_Peripheral_Library_v2.1.16/XMCLib/src/xmc_usbd.c ****   uint32_t word_count;
 264:/opt/XMClib/XMC_Peripheral_Library_v2.1.16/XMCLib/src/xmc_usbd.c ****   uint32_t result;
 265:/opt/XMClib/XMC_Peripheral_Library_v2.1.16/XMCLib/src/xmc_usbd.c ****   uint32_t i;
 266:/opt/XMClib/XMC_Peripheral_Library_v2.1.16/XMCLib/src/xmc_usbd.c ****   fifo = xmc_device.fifo[ep->address_u.address_st.number]; /* fifo */
 267:/opt/XMClib/XMC_Peripheral_Library_v2.1.16/XMCLib/src/xmc_usbd.c ****   freeSpace.d32 = xmc_device.endpoint_in_register[ep->address_u.address_st.number]->dtxfsts;
 268:/opt/XMClib/XMC_Peripheral_Library_v2.1.16/XMCLib/src/xmc_usbd.c ****   /* calculate the length and the amount of dwords to copy based on the fifo status */
 269:/opt/XMClib/XMC_Peripheral_Library_v2.1.16/XMCLib/src/xmc_usbd.c ****   byte_count = ep->xferLength - ep->xferCount;
 270:/opt/XMClib/XMC_Peripheral_Library_v2.1.16/XMCLib/src/xmc_usbd.c ****   if (!byte_count)
 271:/opt/XMClib/XMC_Peripheral_Library_v2.1.16/XMCLib/src/xmc_usbd.c ****   {
 272:/opt/XMClib/XMC_Peripheral_Library_v2.1.16/XMCLib/src/xmc_usbd.c ****     result = 0U;
 273:/opt/XMClib/XMC_Peripheral_Library_v2.1.16/XMCLib/src/xmc_usbd.c ****   }
 274:/opt/XMClib/XMC_Peripheral_Library_v2.1.16/XMCLib/src/xmc_usbd.c ****   else
 275:/opt/XMClib/XMC_Peripheral_Library_v2.1.16/XMCLib/src/xmc_usbd.c ****   {
 276:/opt/XMClib/XMC_Peripheral_Library_v2.1.16/XMCLib/src/xmc_usbd.c ****     /* add the unaligned bytes to the word count to compare with the fifo space */
 277:/opt/XMClib/XMC_Peripheral_Library_v2.1.16/XMCLib/src/xmc_usbd.c ****     word_count = ((uint32_t)byte_count + 3U) >> 2U;
 278:/opt/XMClib/XMC_Peripheral_Library_v2.1.16/XMCLib/src/xmc_usbd.c ****     if (word_count > (uint32_t)freeSpace.b.txfspcavail )
 279:/opt/XMClib/XMC_Peripheral_Library_v2.1.16/XMCLib/src/xmc_usbd.c ****     {
 280:/opt/XMClib/XMC_Peripheral_Library_v2.1.16/XMCLib/src/xmc_usbd.c ****       word_count = (uint32_t)freeSpace.b.txfspcavail;
 281:/opt/XMClib/XMC_Peripheral_Library_v2.1.16/XMCLib/src/xmc_usbd.c ****       byte_count = (uint32_t)word_count << (uint32_t)2U;
 282:/opt/XMClib/XMC_Peripheral_Library_v2.1.16/XMCLib/src/xmc_usbd.c ****     }
 283:/opt/XMClib/XMC_Peripheral_Library_v2.1.16/XMCLib/src/xmc_usbd.c **** 
 284:/opt/XMClib/XMC_Peripheral_Library_v2.1.16/XMCLib/src/xmc_usbd.c ****     /* copy data dword wise */
 285:/opt/XMClib/XMC_Peripheral_Library_v2.1.16/XMCLib/src/xmc_usbd.c ****     for (i = 0U; i < word_count;ep->xferBuffer+= 4U)
 286:/opt/XMClib/XMC_Peripheral_Library_v2.1.16/XMCLib/src/xmc_usbd.c ****     {
 287:/opt/XMClib/XMC_Peripheral_Library_v2.1.16/XMCLib/src/xmc_usbd.c ****       *fifo = *(uint32_t*)ep->xferBuffer;
 288:/opt/XMClib/XMC_Peripheral_Library_v2.1.16/XMCLib/src/xmc_usbd.c ****       i++;
 289:/opt/XMClib/XMC_Peripheral_Library_v2.1.16/XMCLib/src/xmc_usbd.c ****     }
 290:/opt/XMClib/XMC_Peripheral_Library_v2.1.16/XMCLib/src/xmc_usbd.c ****     result=byte_count;
 291:/opt/XMClib/XMC_Peripheral_Library_v2.1.16/XMCLib/src/xmc_usbd.c ****   }
 292:/opt/XMClib/XMC_Peripheral_Library_v2.1.16/XMCLib/src/xmc_usbd.c ****   return result;
 293:/opt/XMClib/XMC_Peripheral_Library_v2.1.16/XMCLib/src/xmc_usbd.c **** }
 294:/opt/XMClib/XMC_Peripheral_Library_v2.1.16/XMCLib/src/xmc_usbd.c **** 
 295:/opt/XMClib/XMC_Peripheral_Library_v2.1.16/XMCLib/src/xmc_usbd.c **** /**
 296:/opt/XMClib/XMC_Peripheral_Library_v2.1.16/XMCLib/src/xmc_usbd.c ****  * @brief Flush a tx fifo
 297:/opt/XMClib/XMC_Peripheral_Library_v2.1.16/XMCLib/src/xmc_usbd.c ****  *
 298:/opt/XMClib/XMC_Peripheral_Library_v2.1.16/XMCLib/src/xmc_usbd.c ****  * @param[in] fifo_num Fifo number to flush
 299:/opt/XMClib/XMC_Peripheral_Library_v2.1.16/XMCLib/src/xmc_usbd.c ****  *
 300:/opt/XMClib/XMC_Peripheral_Library_v2.1.16/XMCLib/src/xmc_usbd.c ****  * @note Use 0x10 as parameter to flush all tx fifos.
 301:/opt/XMClib/XMC_Peripheral_Library_v2.1.16/XMCLib/src/xmc_usbd.c ****  */
 302:/opt/XMClib/XMC_Peripheral_Library_v2.1.16/XMCLib/src/xmc_usbd.c **** static void XMC_USBD_lFlushTXFifo(const uint8_t fifo_num) 
 303:/opt/XMClib/XMC_Peripheral_Library_v2.1.16/XMCLib/src/xmc_usbd.c **** {
 200              		.loc 1 303 1 view -0
 201              		.cfi_startproc
 202              		@ args = 0, pretend = 0, frame = 8
 203              		@ frame_needed = 0, uses_anonymous_args = 0
 204              		@ link register save eliminated.
 205              		.loc 1 303 1 is_stmt 0 view .LVU60
 206 0000 82B0     		sub	sp, sp, #8
 207              	.LCFI1:
 208              		.cfi_def_cfa_offset 8
 304:/opt/XMClib/XMC_Peripheral_Library_v2.1.16/XMCLib/src/xmc_usbd.c ****   volatile grstctl_t data;  
 209              		.loc 1 304 3 is_stmt 1 view .LVU61
 305:/opt/XMClib/XMC_Peripheral_Library_v2.1.16/XMCLib/src/xmc_usbd.c ****   uint32_t count;
 210              		.loc 1 305 3 view .LVU62
 306:/opt/XMClib/XMC_Peripheral_Library_v2.1.16/XMCLib/src/xmc_usbd.c ****   data.d32 = 0U;
 211              		.loc 1 306 3 view .LVU63
 212              		.loc 1 306 12 is_stmt 0 view .LVU64
 213 0002 0023     		movs	r3, #0
 214 0004 0193     		str	r3, [sp, #4]
 307:/opt/XMClib/XMC_Peripheral_Library_v2.1.16/XMCLib/src/xmc_usbd.c ****   /*flush fifo */
 308:/opt/XMClib/XMC_Peripheral_Library_v2.1.16/XMCLib/src/xmc_usbd.c ****   data.b.txfflsh = 1U;
 215              		.loc 1 308 3 is_stmt 1 view .LVU65
 216              		.loc 1 308 18 is_stmt 0 view .LVU66
 217 0006 019B     		ldr	r3, [sp, #4]
 218 0008 43F02003 		orr	r3, r3, #32
 219 000c 0193     		str	r3, [sp, #4]
 309:/opt/XMClib/XMC_Peripheral_Library_v2.1.16/XMCLib/src/xmc_usbd.c ****   data.b.txfnum = fifo_num;
 220              		.loc 1 309 3 is_stmt 1 view .LVU67
 221              		.loc 1 309 17 is_stmt 0 view .LVU68
 222 000e 019B     		ldr	r3, [sp, #4]
 223 0010 60F38A13 		bfi	r3, r0, #6, #5
 224 0014 0193     		str	r3, [sp, #4]
 310:/opt/XMClib/XMC_Peripheral_Library_v2.1.16/XMCLib/src/xmc_usbd.c ****   xmc_device.global_register->grstctl = data.d32;
 225              		.loc 1 310 3 is_stmt 1 view .LVU69
 226              		.loc 1 310 13 is_stmt 0 view .LVU70
 227 0016 0C4B     		ldr	r3, .L26
 228 0018 D3F8A031 		ldr	r3, [r3, #416]
 229              		.loc 1 310 45 view .LVU71
 230 001c 019A     		ldr	r2, [sp, #4]
 231              		.loc 1 310 39 view .LVU72
 232 001e 1A61     		str	r2, [r3, #16]
 311:/opt/XMClib/XMC_Peripheral_Library_v2.1.16/XMCLib/src/xmc_usbd.c ****   for (count = 0U;count < 1000U; count++){}
 233              		.loc 1 311 3 is_stmt 1 view .LVU73
 234              	.LVL15:
 235              		.loc 1 311 25 discriminator 1 view .LVU74
 310:/opt/XMClib/XMC_Peripheral_Library_v2.1.16/XMCLib/src/xmc_usbd.c ****   xmc_device.global_register->grstctl = data.d32;
 236              		.loc 1 310 39 is_stmt 0 view .LVU75
 237 0020 4FF47A73 		mov	r3, #1000
 238              	.LVL16:
 239              	.L19:
 240              		.loc 1 311 43 is_stmt 1 discriminator 3 view .LVU76
 241              		.loc 1 311 39 discriminator 3 view .LVU77
 242              		.loc 1 311 25 discriminator 1 view .LVU78
 243 0024 013B     		subs	r3, r3, #1
 244              	.LVL17:
 245              		.loc 1 311 25 is_stmt 0 discriminator 1 view .LVU79
 246 0026 FDD1     		bne	.L19
 312:/opt/XMClib/XMC_Peripheral_Library_v2.1.16/XMCLib/src/xmc_usbd.c ****   do
 313:/opt/XMClib/XMC_Peripheral_Library_v2.1.16/XMCLib/src/xmc_usbd.c ****   {
 314:/opt/XMClib/XMC_Peripheral_Library_v2.1.16/XMCLib/src/xmc_usbd.c ****    data.d32 = xmc_device.global_register->grstctl;
 247              		.loc 1 314 25 view .LVU80
 248 0028 074B     		ldr	r3, .L26
 249              	.LVL18:
 250              		.loc 1 314 25 view .LVU81
 251 002a D3F8A021 		ldr	r2, [r3, #416]
 252              	.L20:
 312:/opt/XMClib/XMC_Peripheral_Library_v2.1.16/XMCLib/src/xmc_usbd.c ****   do
 253              		.loc 1 312 3 is_stmt 1 view .LVU82
 254              		.loc 1 314 4 view .LVU83
 255              		.loc 1 314 41 is_stmt 0 view .LVU84
 256 002e 1369     		ldr	r3, [r2, #16]
 257              		.loc 1 314 13 view .LVU85
 258 0030 0193     		str	r3, [sp, #4]
 315:/opt/XMClib/XMC_Peripheral_Library_v2.1.16/XMCLib/src/xmc_usbd.c ****   } while (data.b.txfflsh);
 259              		.loc 1 315 12 is_stmt 1 discriminator 1 view .LVU86
 260              		.loc 1 315 18 is_stmt 0 discriminator 1 view .LVU87
 261 0032 019B     		ldr	r3, [sp, #4]
 262              		.loc 1 315 12 discriminator 1 view .LVU88
 263 0034 13F0200F 		tst	r3, #32
 264 0038 F9D1     		bne	.L20
 265 003a 40F2E933 		movw	r3, #1001
 266              	.LVL19:
 267              	.L21:
 316:/opt/XMClib/XMC_Peripheral_Library_v2.1.16/XMCLib/src/xmc_usbd.c ****     count = 0U;
 317:/opt/XMClib/XMC_Peripheral_Library_v2.1.16/XMCLib/src/xmc_usbd.c ****   while (count++ < 1000U)
 318:/opt/XMClib/XMC_Peripheral_Library_v2.1.16/XMCLib/src/xmc_usbd.c ****   {
 319:/opt/XMClib/XMC_Peripheral_Library_v2.1.16/XMCLib/src/xmc_usbd.c ****     /* wait 3 phy clocks */
 320:/opt/XMClib/XMC_Peripheral_Library_v2.1.16/XMCLib/src/xmc_usbd.c ****   }
 268              		.loc 1 320 3 is_stmt 1 view .LVU89
 317:/opt/XMClib/XMC_Peripheral_Library_v2.1.16/XMCLib/src/xmc_usbd.c ****   {
 269              		.loc 1 317 18 discriminator 1 view .LVU90
 317:/opt/XMClib/XMC_Peripheral_Library_v2.1.16/XMCLib/src/xmc_usbd.c ****   {
 270              		.loc 1 317 18 is_stmt 0 discriminator 1 view .LVU91
 271 003e 013B     		subs	r3, r3, #1
 272              	.LVL20:
 317:/opt/XMClib/XMC_Peripheral_Library_v2.1.16/XMCLib/src/xmc_usbd.c ****   {
 273              		.loc 1 317 18 discriminator 1 view .LVU92
 274 0040 FDD1     		bne	.L21
 321:/opt/XMClib/XMC_Peripheral_Library_v2.1.16/XMCLib/src/xmc_usbd.c **** }
 275              		.loc 1 321 1 view .LVU93
 276 0042 02B0     		add	sp, sp, #8
 277              	.LCFI2:
 278              		.cfi_def_cfa_offset 0
 279              		@ sp needed
 280 0044 7047     		bx	lr
 281              	.L27:
 282 0046 00BF     		.align	2
 283              	.L26:
 284 0048 00000000 		.word	.LANCHOR0
 285              		.cfi_endproc
 286              	.LFE165:
 288              		.section	.text.XMC_USBD_lFlushRXFifo,"ax",%progbits
 289              		.align	1
 290              		.syntax unified
 291              		.thumb
 292              		.thumb_func
 294              	XMC_USBD_lFlushRXFifo:
 295              	.LFB166:
 322:/opt/XMClib/XMC_Peripheral_Library_v2.1.16/XMCLib/src/xmc_usbd.c **** 
 323:/opt/XMClib/XMC_Peripheral_Library_v2.1.16/XMCLib/src/xmc_usbd.c **** /**
 324:/opt/XMClib/XMC_Peripheral_Library_v2.1.16/XMCLib/src/xmc_usbd.c ****  * @brief Flush the rx fifo
 325:/opt/XMClib/XMC_Peripheral_Library_v2.1.16/XMCLib/src/xmc_usbd.c ****  */
 326:/opt/XMClib/XMC_Peripheral_Library_v2.1.16/XMCLib/src/xmc_usbd.c **** static void XMC_USBD_lFlushRXFifo(void) 
 327:/opt/XMClib/XMC_Peripheral_Library_v2.1.16/XMCLib/src/xmc_usbd.c **** {
 296              		.loc 1 327 1 is_stmt 1 view -0
 297              		.cfi_startproc
 298              		@ args = 0, pretend = 0, frame = 8
 299              		@ frame_needed = 0, uses_anonymous_args = 0
 300              		@ link register save eliminated.
 301 0000 82B0     		sub	sp, sp, #8
 302              	.LCFI3:
 303              		.cfi_def_cfa_offset 8
 328:/opt/XMClib/XMC_Peripheral_Library_v2.1.16/XMCLib/src/xmc_usbd.c ****   volatile grstctl_t data;  
 304              		.loc 1 328 3 view .LVU95
 329:/opt/XMClib/XMC_Peripheral_Library_v2.1.16/XMCLib/src/xmc_usbd.c ****   uint32_t count;
 305              		.loc 1 329 3 view .LVU96
 330:/opt/XMClib/XMC_Peripheral_Library_v2.1.16/XMCLib/src/xmc_usbd.c **** 	
 331:/opt/XMClib/XMC_Peripheral_Library_v2.1.16/XMCLib/src/xmc_usbd.c **** 	data.d32 = 0U;
 306              		.loc 1 331 2 view .LVU97
 307              		.loc 1 331 11 is_stmt 0 view .LVU98
 308 0002 0023     		movs	r3, #0
 309 0004 0193     		str	r3, [sp, #4]
 332:/opt/XMClib/XMC_Peripheral_Library_v2.1.16/XMCLib/src/xmc_usbd.c ****   data.b.rxfflsh = 1U;
 310              		.loc 1 332 3 is_stmt 1 view .LVU99
 311              		.loc 1 332 18 is_stmt 0 view .LVU100
 312 0006 019B     		ldr	r3, [sp, #4]
 313 0008 43F01003 		orr	r3, r3, #16
 314 000c 0193     		str	r3, [sp, #4]
 333:/opt/XMClib/XMC_Peripheral_Library_v2.1.16/XMCLib/src/xmc_usbd.c ****   /* flush FIFO */
 334:/opt/XMClib/XMC_Peripheral_Library_v2.1.16/XMCLib/src/xmc_usbd.c ****   xmc_device.global_register->grstctl = data.d32;
 315              		.loc 1 334 3 is_stmt 1 view .LVU101
 316              		.loc 1 334 13 is_stmt 0 view .LVU102
 317 000e 0B4B     		ldr	r3, .L36
 318 0010 D3F8A021 		ldr	r2, [r3, #416]
 319              		.loc 1 334 45 view .LVU103
 320 0014 0199     		ldr	r1, [sp, #4]
 321              		.loc 1 334 39 view .LVU104
 322 0016 1161     		str	r1, [r2, #16]
 335:/opt/XMClib/XMC_Peripheral_Library_v2.1.16/XMCLib/src/xmc_usbd.c ****   do
 336:/opt/XMClib/XMC_Peripheral_Library_v2.1.16/XMCLib/src/xmc_usbd.c ****   {
 337:/opt/XMClib/XMC_Peripheral_Library_v2.1.16/XMCLib/src/xmc_usbd.c ****     for (count = 0U; count < 1000U; count++){}
 338:/opt/XMClib/XMC_Peripheral_Library_v2.1.16/XMCLib/src/xmc_usbd.c ****     data.d32 = xmc_device.global_register->grstctl;
 323              		.loc 1 338 26 view .LVU105
 324 0018 D3F8A021 		ldr	r2, [r3, #416]
 325              	.L30:
 335:/opt/XMClib/XMC_Peripheral_Library_v2.1.16/XMCLib/src/xmc_usbd.c ****   do
 326              		.loc 1 335 3 is_stmt 1 view .LVU106
 337:/opt/XMClib/XMC_Peripheral_Library_v2.1.16/XMCLib/src/xmc_usbd.c ****     data.d32 = xmc_device.global_register->grstctl;
 327              		.loc 1 337 5 view .LVU107
 328              	.LVL21:
 337:/opt/XMClib/XMC_Peripheral_Library_v2.1.16/XMCLib/src/xmc_usbd.c ****     data.d32 = xmc_device.global_register->grstctl;
 329              		.loc 1 337 28 discriminator 1 view .LVU108
 327:/opt/XMClib/XMC_Peripheral_Library_v2.1.16/XMCLib/src/xmc_usbd.c ****   volatile grstctl_t data;  
 330              		.loc 1 327 1 is_stmt 0 view .LVU109
 331 001c 4FF47A73 		mov	r3, #1000
 332              	.LVL22:
 333              	.L29:
 337:/opt/XMClib/XMC_Peripheral_Library_v2.1.16/XMCLib/src/xmc_usbd.c ****     data.d32 = xmc_device.global_register->grstctl;
 334              		.loc 1 337 46 is_stmt 1 discriminator 3 view .LVU110
 337:/opt/XMClib/XMC_Peripheral_Library_v2.1.16/XMCLib/src/xmc_usbd.c ****     data.d32 = xmc_device.global_register->grstctl;
 335              		.loc 1 337 42 discriminator 3 view .LVU111
 337:/opt/XMClib/XMC_Peripheral_Library_v2.1.16/XMCLib/src/xmc_usbd.c ****     data.d32 = xmc_device.global_register->grstctl;
 336              		.loc 1 337 28 discriminator 1 view .LVU112
 337 0020 013B     		subs	r3, r3, #1
 338              	.LVL23:
 337:/opt/XMClib/XMC_Peripheral_Library_v2.1.16/XMCLib/src/xmc_usbd.c ****     data.d32 = xmc_device.global_register->grstctl;
 339              		.loc 1 337 28 is_stmt 0 discriminator 1 view .LVU113
 340 0022 FDD1     		bne	.L29
 341              		.loc 1 338 5 is_stmt 1 view .LVU114
 342              		.loc 1 338 42 is_stmt 0 view .LVU115
 343 0024 1369     		ldr	r3, [r2, #16]
 344              	.LVL24:
 345              		.loc 1 338 14 view .LVU116
 346 0026 0193     		str	r3, [sp, #4]
 339:/opt/XMClib/XMC_Peripheral_Library_v2.1.16/XMCLib/src/xmc_usbd.c ****   } while (data.b.rxfflsh);
 347              		.loc 1 339 12 is_stmt 1 view .LVU117
 348              		.loc 1 339 18 is_stmt 0 view .LVU118
 349 0028 019B     		ldr	r3, [sp, #4]
 350              		.loc 1 339 12 view .LVU119
 351 002a 13F0100F 		tst	r3, #16
 352 002e F5D1     		bne	.L30
 353 0030 40F2E933 		movw	r3, #1001
 354              	.LVL25:
 355              	.L31:
 340:/opt/XMClib/XMC_Peripheral_Library_v2.1.16/XMCLib/src/xmc_usbd.c ****   count = 0U;
 341:/opt/XMClib/XMC_Peripheral_Library_v2.1.16/XMCLib/src/xmc_usbd.c ****   while (count++ < 1000U)
 342:/opt/XMClib/XMC_Peripheral_Library_v2.1.16/XMCLib/src/xmc_usbd.c ****   {
 343:/opt/XMClib/XMC_Peripheral_Library_v2.1.16/XMCLib/src/xmc_usbd.c ****     /* wait 3 phy clocks */
 344:/opt/XMClib/XMC_Peripheral_Library_v2.1.16/XMCLib/src/xmc_usbd.c ****   }
 356              		.loc 1 344 3 is_stmt 1 view .LVU120
 341:/opt/XMClib/XMC_Peripheral_Library_v2.1.16/XMCLib/src/xmc_usbd.c ****   {
 357              		.loc 1 341 18 discriminator 1 view .LVU121
 341:/opt/XMClib/XMC_Peripheral_Library_v2.1.16/XMCLib/src/xmc_usbd.c ****   {
 358              		.loc 1 341 18 is_stmt 0 discriminator 1 view .LVU122
 359 0034 013B     		subs	r3, r3, #1
 360              	.LVL26:
 341:/opt/XMClib/XMC_Peripheral_Library_v2.1.16/XMCLib/src/xmc_usbd.c ****   {
 361              		.loc 1 341 18 discriminator 1 view .LVU123
 362 0036 FDD1     		bne	.L31
 345:/opt/XMClib/XMC_Peripheral_Library_v2.1.16/XMCLib/src/xmc_usbd.c **** }
 363              		.loc 1 345 1 view .LVU124
 364 0038 02B0     		add	sp, sp, #8
 365              	.LCFI4:
 366              		.cfi_def_cfa_offset 0
 367              		@ sp needed
 368 003a 7047     		bx	lr
 369              	.L37:
 370              		.align	2
 371              	.L36:
 372 003c 00000000 		.word	.LANCHOR0
 373              		.cfi_endproc
 374              	.LFE166:
 376              		.section	.text.XMC_USBD_lStartReadXfer,"ax",%progbits
 377              		.align	1
 378              		.syntax unified
 379              		.thumb
 380              		.thumb_func
 382              	XMC_USBD_lStartReadXfer:
 383              	.LVL27:
 384              	.LFB169:
 346:/opt/XMClib/XMC_Peripheral_Library_v2.1.16/XMCLib/src/xmc_usbd.c **** 
 347:/opt/XMClib/XMC_Peripheral_Library_v2.1.16/XMCLib/src/xmc_usbd.c **** /*
 348:/opt/XMClib/XMC_Peripheral_Library_v2.1.16/XMCLib/src/xmc_usbd.c ****  * Support Functions
 349:/opt/XMClib/XMC_Peripheral_Library_v2.1.16/XMCLib/src/xmc_usbd.c ****  */
 350:/opt/XMClib/XMC_Peripheral_Library_v2.1.16/XMCLib/src/xmc_usbd.c **** 
 351:/opt/XMClib/XMC_Peripheral_Library_v2.1.16/XMCLib/src/xmc_usbd.c **** /**
 352:/opt/XMClib/XMC_Peripheral_Library_v2.1.16/XMCLib/src/xmc_usbd.c ****  * @brief Assign a free tx fifo
 353:/opt/XMClib/XMC_Peripheral_Library_v2.1.16/XMCLib/src/xmc_usbd.c ****  *
 354:/opt/XMClib/XMC_Peripheral_Library_v2.1.16/XMCLib/src/xmc_usbd.c ****  * A free tx fifo will be searched and the number will be returned.
 355:/opt/XMClib/XMC_Peripheral_Library_v2.1.16/XMCLib/src/xmc_usbd.c ****  *
 356:/opt/XMClib/XMC_Peripheral_Library_v2.1.16/XMCLib/src/xmc_usbd.c ****  * @return Fifo number for a free fifo
 357:/opt/XMClib/XMC_Peripheral_Library_v2.1.16/XMCLib/src/xmc_usbd.c ****  */
 358:/opt/XMClib/XMC_Peripheral_Library_v2.1.16/XMCLib/src/xmc_usbd.c **** static uint8_t XMC_USBD_lAssignTXFifo(void) 
 359:/opt/XMClib/XMC_Peripheral_Library_v2.1.16/XMCLib/src/xmc_usbd.c **** {
 360:/opt/XMClib/XMC_Peripheral_Library_v2.1.16/XMCLib/src/xmc_usbd.c ****   uint16_t mask = 1U;
 361:/opt/XMClib/XMC_Peripheral_Library_v2.1.16/XMCLib/src/xmc_usbd.c ****   uint8_t i = 0U;
 362:/opt/XMClib/XMC_Peripheral_Library_v2.1.16/XMCLib/src/xmc_usbd.c ****   uint8_t result = 0U;
 363:/opt/XMClib/XMC_Peripheral_Library_v2.1.16/XMCLib/src/xmc_usbd.c ****   while( (i < (uint8_t)XMC_USBD_NUM_TX_FIFOS)&&((xmc_device.txfifomsk & mask) != 0U))
 364:/opt/XMClib/XMC_Peripheral_Library_v2.1.16/XMCLib/src/xmc_usbd.c ****   {
 365:/opt/XMClib/XMC_Peripheral_Library_v2.1.16/XMCLib/src/xmc_usbd.c ****     mask = (uint16_t)(mask << 1U);
 366:/opt/XMClib/XMC_Peripheral_Library_v2.1.16/XMCLib/src/xmc_usbd.c ****     i++;
 367:/opt/XMClib/XMC_Peripheral_Library_v2.1.16/XMCLib/src/xmc_usbd.c ****   }
 368:/opt/XMClib/XMC_Peripheral_Library_v2.1.16/XMCLib/src/xmc_usbd.c ****   if ((xmc_device.txfifomsk & mask) == 0U)
 369:/opt/XMClib/XMC_Peripheral_Library_v2.1.16/XMCLib/src/xmc_usbd.c ****   {
 370:/opt/XMClib/XMC_Peripheral_Library_v2.1.16/XMCLib/src/xmc_usbd.c ****     xmc_device.txfifomsk |= mask;
 371:/opt/XMClib/XMC_Peripheral_Library_v2.1.16/XMCLib/src/xmc_usbd.c ****     result=i;
 372:/opt/XMClib/XMC_Peripheral_Library_v2.1.16/XMCLib/src/xmc_usbd.c ****   }
 373:/opt/XMClib/XMC_Peripheral_Library_v2.1.16/XMCLib/src/xmc_usbd.c ****   return result;
 374:/opt/XMClib/XMC_Peripheral_Library_v2.1.16/XMCLib/src/xmc_usbd.c **** }
 375:/opt/XMClib/XMC_Peripheral_Library_v2.1.16/XMCLib/src/xmc_usbd.c **** 
 376:/opt/XMClib/XMC_Peripheral_Library_v2.1.16/XMCLib/src/xmc_usbd.c **** /**
 377:/opt/XMClib/XMC_Peripheral_Library_v2.1.16/XMCLib/src/xmc_usbd.c ****  * @brief Free a tx fifo
 378:/opt/XMClib/XMC_Peripheral_Library_v2.1.16/XMCLib/src/xmc_usbd.c ****  *
 379:/opt/XMClib/XMC_Peripheral_Library_v2.1.16/XMCLib/src/xmc_usbd.c ****  * Mark an used tx fifo as free.
 380:/opt/XMClib/XMC_Peripheral_Library_v2.1.16/XMCLib/src/xmc_usbd.c ****  * @param[in] fifo_nr Fifo number to free
 381:/opt/XMClib/XMC_Peripheral_Library_v2.1.16/XMCLib/src/xmc_usbd.c ****  */
 382:/opt/XMClib/XMC_Peripheral_Library_v2.1.16/XMCLib/src/xmc_usbd.c **** static void XMC_USBD_lUnassignFifo(const uint8_t fifo_nr) 
 383:/opt/XMClib/XMC_Peripheral_Library_v2.1.16/XMCLib/src/xmc_usbd.c **** {
 384:/opt/XMClib/XMC_Peripheral_Library_v2.1.16/XMCLib/src/xmc_usbd.c ****   xmc_device.txfifomsk = (uint16_t)((uint32_t)xmc_device.txfifomsk & (uint32_t)(~((uint32_t)((uint3
 385:/opt/XMClib/XMC_Peripheral_Library_v2.1.16/XMCLib/src/xmc_usbd.c **** }
 386:/opt/XMClib/XMC_Peripheral_Library_v2.1.16/XMCLib/src/xmc_usbd.c **** 
 387:/opt/XMClib/XMC_Peripheral_Library_v2.1.16/XMCLib/src/xmc_usbd.c **** /**
 388:/opt/XMClib/XMC_Peripheral_Library_v2.1.16/XMCLib/src/xmc_usbd.c ****  * @brief Start a transfer for an out endpoint
 389:/opt/XMClib/XMC_Peripheral_Library_v2.1.16/XMCLib/src/xmc_usbd.c ****  *
 390:/opt/XMClib/XMC_Peripheral_Library_v2.1.16/XMCLib/src/xmc_usbd.c ****  * Based on the transfer values of the endpoint, the out endpoint registers will be programmed
 391:/opt/XMClib/XMC_Peripheral_Library_v2.1.16/XMCLib/src/xmc_usbd.c ****  * to start a new out transfer.
 392:/opt/XMClib/XMC_Peripheral_Library_v2.1.16/XMCLib/src/xmc_usbd.c ****  *
 393:/opt/XMClib/XMC_Peripheral_Library_v2.1.16/XMCLib/src/xmc_usbd.c ****  * @note No checking of the transfer values are done in this function. Be sure,
 394:/opt/XMClib/XMC_Peripheral_Library_v2.1.16/XMCLib/src/xmc_usbd.c ****  * that the transfer values are reasonable (e.g. buffer size is not exceeded).
 395:/opt/XMClib/XMC_Peripheral_Library_v2.1.16/XMCLib/src/xmc_usbd.c ****  *
 396:/opt/XMClib/XMC_Peripheral_Library_v2.1.16/XMCLib/src/xmc_usbd.c ****  * @param[in] ep Endpoint to start the transfer
 397:/opt/XMClib/XMC_Peripheral_Library_v2.1.16/XMCLib/src/xmc_usbd.c ****  */
 398:/opt/XMClib/XMC_Peripheral_Library_v2.1.16/XMCLib/src/xmc_usbd.c **** static void XMC_USBD_lStartReadXfer(XMC_USBD_EP_t *const ep) 
 399:/opt/XMClib/XMC_Peripheral_Library_v2.1.16/XMCLib/src/xmc_usbd.c **** {
 385              		.loc 1 399 1 is_stmt 1 view -0
 386              		.cfi_startproc
 387              		@ args = 0, pretend = 0, frame = 0
 388              		@ frame_needed = 0, uses_anonymous_args = 0
 389              		@ link register save eliminated.
 390              		.loc 1 399 1 is_stmt 0 view .LVU126
 391 0000 10B4     		push	{r4}
 392              	.LCFI5:
 393              		.cfi_def_cfa_offset 4
 394              		.cfi_offset 4, -4
 400:/opt/XMClib/XMC_Peripheral_Library_v2.1.16/XMCLib/src/xmc_usbd.c ****   deptsiz_data_t data;
 395              		.loc 1 400 3 is_stmt 1 view .LVU127
 401:/opt/XMClib/XMC_Peripheral_Library_v2.1.16/XMCLib/src/xmc_usbd.c ****   depctl_data_t epctl;
 396              		.loc 1 401 3 view .LVU128
 402:/opt/XMClib/XMC_Peripheral_Library_v2.1.16/XMCLib/src/xmc_usbd.c **** 	
 403:/opt/XMClib/XMC_Peripheral_Library_v2.1.16/XMCLib/src/xmc_usbd.c ****   data.d32 =  0U;
 397              		.loc 1 403 3 view .LVU129
 398              		.loc 1 403 12 is_stmt 0 view .LVU130
 399 0002 0021     		movs	r1, #0
 400              	.LVL28:
 404:/opt/XMClib/XMC_Peripheral_Library_v2.1.16/XMCLib/src/xmc_usbd.c ****   if ((ep->xferTotal - ep->xferLength) > ep->maxTransferSize)
 401              		.loc 1 404 3 is_stmt 1 view .LVU131
 402              		.loc 1 404 10 is_stmt 0 view .LVU132
 403 0004 046B     		ldr	r4, [r0, #48]
 404              		.loc 1 404 26 view .LVU133
 405 0006 836A     		ldr	r3, [r0, #40]
 406              		.loc 1 404 44 view .LVU134
 407 0008 8268     		ldr	r2, [r0, #8]
 408 000a C2F31202 		ubfx	r2, r2, #0, #19
 409              		.loc 1 404 22 view .LVU135
 410 000e A4EB030C 		sub	ip, r4, r3
 411              		.loc 1 404 6 view .LVU136
 412 0012 9445     		cmp	ip, r2
 405:/opt/XMClib/XMC_Peripheral_Library_v2.1.16/XMCLib/src/xmc_usbd.c ****   {
 406:/opt/XMClib/XMC_Peripheral_Library_v2.1.16/XMCLib/src/xmc_usbd.c ****     ep->xferLength += ep->maxTransferSize;
 413              		.loc 1 406 5 is_stmt 1 view .LVU137
 414              		.loc 1 406 20 is_stmt 0 view .LVU138
 415 0014 8CBF     		ite	hi
 416 0016 9B18     		addhi	r3, r3, r2
 407:/opt/XMClib/XMC_Peripheral_Library_v2.1.16/XMCLib/src/xmc_usbd.c ****   }
 408:/opt/XMClib/XMC_Peripheral_Library_v2.1.16/XMCLib/src/xmc_usbd.c ****   else
 409:/opt/XMClib/XMC_Peripheral_Library_v2.1.16/XMCLib/src/xmc_usbd.c ****   {
 410:/opt/XMClib/XMC_Peripheral_Library_v2.1.16/XMCLib/src/xmc_usbd.c ****     ep->xferLength = ep->xferTotal;
 417              		.loc 1 410 20 view .LVU139
 418 0018 2346     		movls	r3, r4
 419 001a 8362     		str	r3, [r0, #40]
 411:/opt/XMClib/XMC_Peripheral_Library_v2.1.16/XMCLib/src/xmc_usbd.c ****   }
 412:/opt/XMClib/XMC_Peripheral_Library_v2.1.16/XMCLib/src/xmc_usbd.c ****   if (ep->address_u.address_st.number == 0U)
 420              		.loc 1 412 3 is_stmt 1 view .LVU140
 421              		.loc 1 412 39 is_stmt 0 view .LVU141
 422 001c 0278     		ldrb	r2, [r0]	@ zero_extendqisi2
 423              		.loc 1 412 6 view .LVU142
 424 001e 12F00F0F 		tst	r2, #15
 425 0022 2CD1     		bne	.L40
 426              	.LBB2:
 413:/opt/XMClib/XMC_Peripheral_Library_v2.1.16/XMCLib/src/xmc_usbd.c ****   {
 414:/opt/XMClib/XMC_Peripheral_Library_v2.1.16/XMCLib/src/xmc_usbd.c **** 	/* Setup the endpoint to receive 3 setup packages and one normal package.*/
 415:/opt/XMClib/XMC_Peripheral_Library_v2.1.16/XMCLib/src/xmc_usbd.c **** 	/* Cast the data pointer to use only one variable */
 416:/opt/XMClib/XMC_Peripheral_Library_v2.1.16/XMCLib/src/xmc_usbd.c ****     deptsiz0_data_t *ep0_data = (deptsiz0_data_t*)&data;
 427              		.loc 1 416 5 is_stmt 1 view .LVU143
 428              	.LVL29:
 417:/opt/XMClib/XMC_Peripheral_Library_v2.1.16/XMCLib/src/xmc_usbd.c ****     ep0_data->b.pktcnt = 0x1U;
 429              		.loc 1 417 5 view .LVU144
 430              		.loc 1 417 24 is_stmt 0 view .LVU145
 431 0024 0123     		movs	r3, #1
 432 0026 63F3D441 		bfi	r1, r3, #19, #2
 433              	.LVL30:
 418:/opt/XMClib/XMC_Peripheral_Library_v2.1.16/XMCLib/src/xmc_usbd.c ****     ep0_data->b.supcnt = 0x3U;
 434              		.loc 1 418 5 is_stmt 1 view .LVU146
 435              		.loc 1 418 24 is_stmt 0 view .LVU147
 436 002a 41F0C041 		orr	r1, r1, #1610612736
 437              	.LVL31:
 419:/opt/XMClib/XMC_Peripheral_Library_v2.1.16/XMCLib/src/xmc_usbd.c ****     ep0_data->b.xfersize = (uint8_t)ep->xferTotal;
 438              		.loc 1 419 5 is_stmt 1 view .LVU148
 439              		.loc 1 419 26 is_stmt 0 view .LVU149
 440 002e 64F30601 		bfi	r1, r4, #0, #7
 441              	.LVL32:
 442              	.L41:
 443              		.loc 1 419 26 view .LVU150
 444              	.LBE2:
 420:/opt/XMClib/XMC_Peripheral_Library_v2.1.16/XMCLib/src/xmc_usbd.c ****   }
 421:/opt/XMClib/XMC_Peripheral_Library_v2.1.16/XMCLib/src/xmc_usbd.c ****   else
 422:/opt/XMClib/XMC_Peripheral_Library_v2.1.16/XMCLib/src/xmc_usbd.c ****   {
 423:/opt/XMClib/XMC_Peripheral_Library_v2.1.16/XMCLib/src/xmc_usbd.c ****     /* If requested length is zero, just receive one zero length packet */
 424:/opt/XMClib/XMC_Peripheral_Library_v2.1.16/XMCLib/src/xmc_usbd.c ****     if (ep->xferLength == 0U)
 425:/opt/XMClib/XMC_Peripheral_Library_v2.1.16/XMCLib/src/xmc_usbd.c ****     {
 426:/opt/XMClib/XMC_Peripheral_Library_v2.1.16/XMCLib/src/xmc_usbd.c ****       data.b.xfersize = 0U;
 427:/opt/XMClib/XMC_Peripheral_Library_v2.1.16/XMCLib/src/xmc_usbd.c ****       data.b.pktcnt = 1U;
 428:/opt/XMClib/XMC_Peripheral_Library_v2.1.16/XMCLib/src/xmc_usbd.c ****     }
 429:/opt/XMClib/XMC_Peripheral_Library_v2.1.16/XMCLib/src/xmc_usbd.c ****     else
 430:/opt/XMClib/XMC_Peripheral_Library_v2.1.16/XMCLib/src/xmc_usbd.c ****     {
 431:/opt/XMClib/XMC_Peripheral_Library_v2.1.16/XMCLib/src/xmc_usbd.c ****       /* setup endpoint to recive a amount of packages by given size */
 432:/opt/XMClib/XMC_Peripheral_Library_v2.1.16/XMCLib/src/xmc_usbd.c ****       data.b.pktcnt = (uint16_t)(((ep->xferLength - ep->xferCount) + (ep->maxPacketSize -(uint32_t)
 433:/opt/XMClib/XMC_Peripheral_Library_v2.1.16/XMCLib/src/xmc_usbd.c ****       data.b.xfersize =(uint32_t)(ep->xferLength - ep->xferCount);
 434:/opt/XMClib/XMC_Peripheral_Library_v2.1.16/XMCLib/src/xmc_usbd.c ****     }
 435:/opt/XMClib/XMC_Peripheral_Library_v2.1.16/XMCLib/src/xmc_usbd.c ****   }
 436:/opt/XMClib/XMC_Peripheral_Library_v2.1.16/XMCLib/src/xmc_usbd.c ****   if(usbd_init->usbd_transfer_mode == XMC_USBD_USE_DMA)
 445              		.loc 1 436 3 is_stmt 1 view .LVU151
 446              		.loc 1 436 15 is_stmt 0 view .LVU152
 447 0032 1C4B     		ldr	r3, .L46
 448 0034 D3F80832 		ldr	r3, [r3, #520]
 449              		.loc 1 436 5 view .LVU153
 450 0038 5B7B     		ldrb	r3, [r3, #13]	@ zero_extendqisi2
 451 003a 4BB9     		cbnz	r3, .L43
 437:/opt/XMClib/XMC_Peripheral_Library_v2.1.16/XMCLib/src/xmc_usbd.c ****   {
 438:/opt/XMClib/XMC_Peripheral_Library_v2.1.16/XMCLib/src/xmc_usbd.c ****     /* Programm dma address if needed */
 439:/opt/XMClib/XMC_Peripheral_Library_v2.1.16/XMCLib/src/xmc_usbd.c ****     xmc_device.endpoint_out_register[ep->address_u.address_st.number]->doepdma = (uint32_t)(ep->xfe
 452              		.loc 1 439 5 is_stmt 1 view .LVU154
 453              		.loc 1 439 62 is_stmt 0 view .LVU155
 454 003c 0278     		ldrb	r2, [r0]	@ zero_extendqisi2
 455 003e 02F00F02 		and	r2, r2, #15
 456              		.loc 1 439 37 view .LVU156
 457 0042 184B     		ldr	r3, .L46
 458 0044 03EB8203 		add	r3, r3, r2, lsl #2
 459 0048 D3F8C431 		ldr	r3, [r3, #452]
 460              		.loc 1 439 82 view .LVU157
 461 004c 426A     		ldr	r2, [r0, #36]
 462              		.loc 1 439 80 view .LVU158
 463 004e 5A61     		str	r2, [r3, #20]
 464              	.L43:
 440:/opt/XMClib/XMC_Peripheral_Library_v2.1.16/XMCLib/src/xmc_usbd.c ****   }
 441:/opt/XMClib/XMC_Peripheral_Library_v2.1.16/XMCLib/src/xmc_usbd.c ****   /* setup endpoint size and enable endpoint */
 442:/opt/XMClib/XMC_Peripheral_Library_v2.1.16/XMCLib/src/xmc_usbd.c ****   xmc_device.endpoint_out_register[ep->address_u.address_st.number]->doeptsiz = data.d32;
 465              		.loc 1 442 3 is_stmt 1 view .LVU159
 466              		.loc 1 442 35 is_stmt 0 view .LVU160
 467 0050 144A     		ldr	r2, .L46
 468              		.loc 1 442 60 view .LVU161
 469 0052 0378     		ldrb	r3, [r0]	@ zero_extendqisi2
 470 0054 03F00F03 		and	r3, r3, #15
 471              		.loc 1 442 35 view .LVU162
 472 0058 02EB8303 		add	r3, r2, r3, lsl #2
 473 005c D3F8C431 		ldr	r3, [r3, #452]
 474              		.loc 1 442 79 view .LVU163
 475 0060 1961     		str	r1, [r3, #16]
 443:/opt/XMClib/XMC_Peripheral_Library_v2.1.16/XMCLib/src/xmc_usbd.c ****  
 444:/opt/XMClib/XMC_Peripheral_Library_v2.1.16/XMCLib/src/xmc_usbd.c ****   epctl.d32 = xmc_device.endpoint_out_register[ep->address_u.address_st.number]->doepctl;
 476              		.loc 1 444 3 is_stmt 1 view .LVU164
 477              		.loc 1 444 72 is_stmt 0 view .LVU165
 478 0062 0378     		ldrb	r3, [r0]	@ zero_extendqisi2
 479 0064 03F00F03 		and	r3, r3, #15
 480              		.loc 1 444 47 view .LVU166
 481 0068 02EB8302 		add	r2, r2, r3, lsl #2
 482 006c D2F8C421 		ldr	r2, [r2, #452]
 483              		.loc 1 444 80 view .LVU167
 484 0070 1368     		ldr	r3, [r2]
 445:/opt/XMClib/XMC_Peripheral_Library_v2.1.16/XMCLib/src/xmc_usbd.c ****   epctl.b.cnak = 1U;
 485              		.loc 1 445 3 is_stmt 1 view .LVU168
 446:/opt/XMClib/XMC_Peripheral_Library_v2.1.16/XMCLib/src/xmc_usbd.c ****   epctl.b.epena = 1U;
 486              		.loc 1 446 3 view .LVU169
 487              		.loc 1 446 17 is_stmt 0 view .LVU170
 488 0072 43F00443 		orr	r3, r3, #-2080374784
 489              	.LVL33:
 447:/opt/XMClib/XMC_Peripheral_Library_v2.1.16/XMCLib/src/xmc_usbd.c ****   xmc_device.endpoint_out_register[ep->address_u.address_st.number]->doepctl = epctl.d32;
 490              		.loc 1 447 3 is_stmt 1 view .LVU171
 491              		.loc 1 447 78 is_stmt 0 view .LVU172
 492 0076 1360     		str	r3, [r2]
 448:/opt/XMClib/XMC_Peripheral_Library_v2.1.16/XMCLib/src/xmc_usbd.c **** }
 493              		.loc 1 448 1 view .LVU173
 494 0078 5DF8044B 		ldr	r4, [sp], #4
 495              	.LCFI6:
 496              		.cfi_remember_state
 497              		.cfi_restore 4
 498              		.cfi_def_cfa_offset 0
 499 007c 7047     		bx	lr
 500              	.LVL34:
 501              	.L40:
 502              	.LCFI7:
 503              		.cfi_restore_state
 424:/opt/XMClib/XMC_Peripheral_Library_v2.1.16/XMCLib/src/xmc_usbd.c ****     {
 504              		.loc 1 424 5 is_stmt 1 view .LVU174
 424:/opt/XMClib/XMC_Peripheral_Library_v2.1.16/XMCLib/src/xmc_usbd.c ****     {
 505              		.loc 1 424 8 is_stmt 0 view .LVU175
 506 007e 1BB9     		cbnz	r3, .L42
 426:/opt/XMClib/XMC_Peripheral_Library_v2.1.16/XMCLib/src/xmc_usbd.c ****       data.b.pktcnt = 1U;
 507              		.loc 1 426 7 is_stmt 1 view .LVU176
 427:/opt/XMClib/XMC_Peripheral_Library_v2.1.16/XMCLib/src/xmc_usbd.c ****     }
 508              		.loc 1 427 7 view .LVU177
 427:/opt/XMClib/XMC_Peripheral_Library_v2.1.16/XMCLib/src/xmc_usbd.c ****     }
 509              		.loc 1 427 21 is_stmt 0 view .LVU178
 510 0080 0123     		movs	r3, #1
 511 0082 63F3DC41 		bfi	r1, r3, #19, #10
 512              	.LVL35:
 427:/opt/XMClib/XMC_Peripheral_Library_v2.1.16/XMCLib/src/xmc_usbd.c ****     }
 513              		.loc 1 427 21 view .LVU179
 514 0086 D4E7     		b	.L41
 515              	.LVL36:
 516              	.L42:
 432:/opt/XMClib/XMC_Peripheral_Library_v2.1.16/XMCLib/src/xmc_usbd.c ****       data.b.xfersize =(uint32_t)(ep->xferLength - ep->xferCount);
 517              		.loc 1 432 7 is_stmt 1 view .LVU180
 432:/opt/XMClib/XMC_Peripheral_Library_v2.1.16/XMCLib/src/xmc_usbd.c ****       data.b.xfersize =(uint32_t)(ep->xferLength - ep->xferCount);
 518              		.loc 1 432 51 is_stmt 0 view .LVU181
 519 0088 C26A     		ldr	r2, [r0, #44]
 520 008a 9B1A     		subs	r3, r3, r2
 432:/opt/XMClib/XMC_Peripheral_Library_v2.1.16/XMCLib/src/xmc_usbd.c ****       data.b.xfersize =(uint32_t)(ep->xferLength - ep->xferCount);
 521              		.loc 1 432 73 view .LVU182
 522 008c 4468     		ldr	r4, [r0, #4]
 523 008e C4F3C624 		ubfx	r4, r4, #11, #7
 432:/opt/XMClib/XMC_Peripheral_Library_v2.1.16/XMCLib/src/xmc_usbd.c ****       data.b.xfersize =(uint32_t)(ep->xferLength - ep->xferCount);
 524              		.loc 1 432 68 view .LVU183
 525 0092 621E     		subs	r2, r4, #1
 526 0094 1A44     		add	r2, r2, r3
 432:/opt/XMClib/XMC_Peripheral_Library_v2.1.16/XMCLib/src/xmc_usbd.c ****       data.b.xfersize =(uint32_t)(ep->xferLength - ep->xferCount);
 527              		.loc 1 432 104 view .LVU184
 528 0096 B2FBF4F2 		udiv	r2, r2, r4
 432:/opt/XMClib/XMC_Peripheral_Library_v2.1.16/XMCLib/src/xmc_usbd.c ****       data.b.xfersize =(uint32_t)(ep->xferLength - ep->xferCount);
 529              		.loc 1 432 21 view .LVU185
 530 009a 62F3DC41 		bfi	r1, r2, #19, #10
 531              	.LVL37:
 433:/opt/XMClib/XMC_Peripheral_Library_v2.1.16/XMCLib/src/xmc_usbd.c ****     }
 532              		.loc 1 433 7 is_stmt 1 view .LVU186
 433:/opt/XMClib/XMC_Peripheral_Library_v2.1.16/XMCLib/src/xmc_usbd.c ****     }
 533              		.loc 1 433 23 is_stmt 0 view .LVU187
 534 009e 63F31201 		bfi	r1, r3, #0, #19
 535 00a2 C6E7     		b	.L41
 536              	.L47:
 537              		.align	2
 538              	.L46:
 539 00a4 00000000 		.word	.LANCHOR0
 540              		.cfi_endproc
 541              	.LFE169:
 543              		.section	.text.XMC_USBD_lStartWriteXfer,"ax",%progbits
 544              		.align	1
 545              		.syntax unified
 546              		.thumb
 547              		.thumb_func
 549              	XMC_USBD_lStartWriteXfer:
 550              	.LVL38:
 551              	.LFB170:
 449:/opt/XMClib/XMC_Peripheral_Library_v2.1.16/XMCLib/src/xmc_usbd.c **** 
 450:/opt/XMClib/XMC_Peripheral_Library_v2.1.16/XMCLib/src/xmc_usbd.c **** /**
 451:/opt/XMClib/XMC_Peripheral_Library_v2.1.16/XMCLib/src/xmc_usbd.c ****  * @brief Start a new in transfer
 452:/opt/XMClib/XMC_Peripheral_Library_v2.1.16/XMCLib/src/xmc_usbd.c ****  *
 453:/opt/XMClib/XMC_Peripheral_Library_v2.1.16/XMCLib/src/xmc_usbd.c ****  * Based on the transfer values of the endpoint the in endpoint registers will be programmed
 454:/opt/XMClib/XMC_Peripheral_Library_v2.1.16/XMCLib/src/xmc_usbd.c ****  * to start a new in transfer
 455:/opt/XMClib/XMC_Peripheral_Library_v2.1.16/XMCLib/src/xmc_usbd.c ****  *
 456:/opt/XMClib/XMC_Peripheral_Library_v2.1.16/XMCLib/src/xmc_usbd.c ****  * @param[in] ep Endpoint to start the transfer
 457:/opt/XMClib/XMC_Peripheral_Library_v2.1.16/XMCLib/src/xmc_usbd.c ****  */
 458:/opt/XMClib/XMC_Peripheral_Library_v2.1.16/XMCLib/src/xmc_usbd.c **** static void XMC_USBD_lStartWriteXfer(XMC_USBD_EP_t *const ep) 
 459:/opt/XMClib/XMC_Peripheral_Library_v2.1.16/XMCLib/src/xmc_usbd.c **** {
 552              		.loc 1 459 1 is_stmt 1 view -0
 553              		.cfi_startproc
 554              		@ args = 0, pretend = 0, frame = 0
 555              		@ frame_needed = 0, uses_anonymous_args = 0
 556              		@ link register save eliminated.
 557              		.loc 1 459 1 is_stmt 0 view .LVU189
 558 0000 70B4     		push	{r4, r5, r6}
 559              	.LCFI8:
 560              		.cfi_def_cfa_offset 12
 561              		.cfi_offset 4, -12
 562              		.cfi_offset 5, -8
 563              		.cfi_offset 6, -4
 460:/opt/XMClib/XMC_Peripheral_Library_v2.1.16/XMCLib/src/xmc_usbd.c ****   deptsiz_data_t size;
 564              		.loc 1 460 3 is_stmt 1 view .LVU190
 461:/opt/XMClib/XMC_Peripheral_Library_v2.1.16/XMCLib/src/xmc_usbd.c ****   depctl_data_t ctl;
 565              		.loc 1 461 3 view .LVU191
 462:/opt/XMClib/XMC_Peripheral_Library_v2.1.16/XMCLib/src/xmc_usbd.c **** 	
 463:/opt/XMClib/XMC_Peripheral_Library_v2.1.16/XMCLib/src/xmc_usbd.c ****   size.d32 = 0U;  
 566              		.loc 1 463 3 view .LVU192
 567              		.loc 1 463 12 is_stmt 0 view .LVU193
 568 0002 0025     		movs	r5, #0
 569              	.LVL39:
 464:/opt/XMClib/XMC_Peripheral_Library_v2.1.16/XMCLib/src/xmc_usbd.c ****   ctl.d32 = xmc_device.endpoint_in_register[ep->address_u.address_st.number]->diepctl;
 570              		.loc 1 464 3 is_stmt 1 view .LVU194
 571              		.loc 1 464 69 is_stmt 0 view .LVU195
 572 0004 0278     		ldrb	r2, [r0]	@ zero_extendqisi2
 573 0006 02F00F02 		and	r2, r2, #15
 574              		.loc 1 464 44 view .LVU196
 575 000a 02F16A01 		add	r1, r2, #106
 576 000e 2E4B     		ldr	r3, .L56
 577 0010 53F82130 		ldr	r3, [r3, r1, lsl #2]
 578              		.loc 1 464 77 view .LVU197
 579 0014 1C68     		ldr	r4, [r3]
 580              	.LVL40:
 465:/opt/XMClib/XMC_Peripheral_Library_v2.1.16/XMCLib/src/xmc_usbd.c **** 
 466:/opt/XMClib/XMC_Peripheral_Library_v2.1.16/XMCLib/src/xmc_usbd.c ****   if ((ep->xferTotal - ep->xferLength)  < ep->maxTransferSize)
 581              		.loc 1 466 3 is_stmt 1 view .LVU198
 582              		.loc 1 466 10 is_stmt 0 view .LVU199
 583 0016 036B     		ldr	r3, [r0, #48]
 584              		.loc 1 466 26 view .LVU200
 585 0018 866A     		ldr	r6, [r0, #40]
 586              		.loc 1 466 45 view .LVU201
 587 001a 8168     		ldr	r1, [r0, #8]
 588 001c C1F31201 		ubfx	r1, r1, #0, #19
 589              		.loc 1 466 22 view .LVU202
 590 0020 A3EB060C 		sub	ip, r3, r6
 591              		.loc 1 466 6 view .LVU203
 592 0024 8C45     		cmp	ip, r1
 467:/opt/XMClib/XMC_Peripheral_Library_v2.1.16/XMCLib/src/xmc_usbd.c ****   {
 468:/opt/XMClib/XMC_Peripheral_Library_v2.1.16/XMCLib/src/xmc_usbd.c ****     ep->xferLength = ep->xferTotal;
 469:/opt/XMClib/XMC_Peripheral_Library_v2.1.16/XMCLib/src/xmc_usbd.c ****   }
 470:/opt/XMClib/XMC_Peripheral_Library_v2.1.16/XMCLib/src/xmc_usbd.c ****   else
 471:/opt/XMClib/XMC_Peripheral_Library_v2.1.16/XMCLib/src/xmc_usbd.c ****   {
 472:/opt/XMClib/XMC_Peripheral_Library_v2.1.16/XMCLib/src/xmc_usbd.c ****     ep->xferLength += ep->maxTransferSize;
 593              		.loc 1 472 5 is_stmt 1 view .LVU204
 594              		.loc 1 472 20 is_stmt 0 view .LVU205
 595 0026 28BF     		it	cs
 596 0028 7318     		addcs	r3, r6, r1
 597 002a 8362     		str	r3, [r0, #40]
 473:/opt/XMClib/XMC_Peripheral_Library_v2.1.16/XMCLib/src/xmc_usbd.c ****   }
 474:/opt/XMClib/XMC_Peripheral_Library_v2.1.16/XMCLib/src/xmc_usbd.c ****   if (ep->xferLength == 0U)
 598              		.loc 1 474 3 is_stmt 1 view .LVU206
 599              		.loc 1 474 6 is_stmt 0 view .LVU207
 600 002c ABB9     		cbnz	r3, .L50
 475:/opt/XMClib/XMC_Peripheral_Library_v2.1.16/XMCLib/src/xmc_usbd.c ****   {
 476:/opt/XMClib/XMC_Peripheral_Library_v2.1.16/XMCLib/src/xmc_usbd.c ****     size.b.xfersize = 0U;
 601              		.loc 1 476 5 is_stmt 1 view .LVU208
 477:/opt/XMClib/XMC_Peripheral_Library_v2.1.16/XMCLib/src/xmc_usbd.c ****     size.b.pktcnt = 1U;
 602              		.loc 1 477 5 view .LVU209
 603              		.loc 1 477 19 is_stmt 0 view .LVU210
 604 002e 0123     		movs	r3, #1
 605 0030 63F3DC45 		bfi	r5, r3, #19, #10
 606              	.LVL41:
 607              	.L51:
 478:/opt/XMClib/XMC_Peripheral_Library_v2.1.16/XMCLib/src/xmc_usbd.c ****   }
 479:/opt/XMClib/XMC_Peripheral_Library_v2.1.16/XMCLib/src/xmc_usbd.c ****   else
 480:/opt/XMClib/XMC_Peripheral_Library_v2.1.16/XMCLib/src/xmc_usbd.c ****   {
 481:/opt/XMClib/XMC_Peripheral_Library_v2.1.16/XMCLib/src/xmc_usbd.c ****     if (ep->address_u.address_st.number == 0U)
 482:/opt/XMClib/XMC_Peripheral_Library_v2.1.16/XMCLib/src/xmc_usbd.c ****     {
 483:/opt/XMClib/XMC_Peripheral_Library_v2.1.16/XMCLib/src/xmc_usbd.c ****       size.b.pktcnt = 1U;
 484:/opt/XMClib/XMC_Peripheral_Library_v2.1.16/XMCLib/src/xmc_usbd.c ****       /* ep->maxXferSize equals maxPacketSize */
 485:/opt/XMClib/XMC_Peripheral_Library_v2.1.16/XMCLib/src/xmc_usbd.c ****       size.b.xfersize = (uint32_t)(ep->xferLength - ep->xferCount);
 486:/opt/XMClib/XMC_Peripheral_Library_v2.1.16/XMCLib/src/xmc_usbd.c ****     }
 487:/opt/XMClib/XMC_Peripheral_Library_v2.1.16/XMCLib/src/xmc_usbd.c ****     else
 488:/opt/XMClib/XMC_Peripheral_Library_v2.1.16/XMCLib/src/xmc_usbd.c ****     {
 489:/opt/XMClib/XMC_Peripheral_Library_v2.1.16/XMCLib/src/xmc_usbd.c ****       size.b.xfersize =(uint32_t)(ep->xferLength - ep->xferCount);
 490:/opt/XMClib/XMC_Peripheral_Library_v2.1.16/XMCLib/src/xmc_usbd.c ****       size.b.pktcnt = (uint16_t)(((uint16_t)(ep->xferLength - ep->xferCount) + (uint16_t)((uint16_t
 491:/opt/XMClib/XMC_Peripheral_Library_v2.1.16/XMCLib/src/xmc_usbd.c ****     		 ep->maxPacketSize);
 492:/opt/XMClib/XMC_Peripheral_Library_v2.1.16/XMCLib/src/xmc_usbd.c ****     }
 493:/opt/XMClib/XMC_Peripheral_Library_v2.1.16/XMCLib/src/xmc_usbd.c ****     if(usbd_init->usbd_transfer_mode == XMC_USBD_USE_DMA)
 494:/opt/XMClib/XMC_Peripheral_Library_v2.1.16/XMCLib/src/xmc_usbd.c ****     {
 495:/opt/XMClib/XMC_Peripheral_Library_v2.1.16/XMCLib/src/xmc_usbd.c ****       /* Program dma*/
 496:/opt/XMClib/XMC_Peripheral_Library_v2.1.16/XMCLib/src/xmc_usbd.c ****       xmc_device.endpoint_in_register[ep->address_u.address_st.number]->diepdma = (uint32_t)ep->xfe
 497:/opt/XMClib/XMC_Peripheral_Library_v2.1.16/XMCLib/src/xmc_usbd.c ****     }
 498:/opt/XMClib/XMC_Peripheral_Library_v2.1.16/XMCLib/src/xmc_usbd.c ****     if(usbd_init->usbd_transfer_mode == XMC_USBD_USE_FIFO)
 499:/opt/XMClib/XMC_Peripheral_Library_v2.1.16/XMCLib/src/xmc_usbd.c ****     {
 500:/opt/XMClib/XMC_Peripheral_Library_v2.1.16/XMCLib/src/xmc_usbd.c ****       /* enable fifo empty interrupt */
 501:/opt/XMClib/XMC_Peripheral_Library_v2.1.16/XMCLib/src/xmc_usbd.c **** 			xmc_device.device_register->dtknqr4_fifoemptymsk |= (uint32_t)((uint32_t)1U << (uint8_t)ep->addr
 502:/opt/XMClib/XMC_Peripheral_Library_v2.1.16/XMCLib/src/xmc_usbd.c ****     }
 503:/opt/XMClib/XMC_Peripheral_Library_v2.1.16/XMCLib/src/xmc_usbd.c ****   }
 504:/opt/XMClib/XMC_Peripheral_Library_v2.1.16/XMCLib/src/xmc_usbd.c **** 
 505:/opt/XMClib/XMC_Peripheral_Library_v2.1.16/XMCLib/src/xmc_usbd.c ****   /* Program size of transfer and enable endpoint */
 506:/opt/XMClib/XMC_Peripheral_Library_v2.1.16/XMCLib/src/xmc_usbd.c ****   xmc_device.endpoint_in_register[ep->address_u.address_st.number]->dieptsiz = size.d32;
 608              		.loc 1 506 3 is_stmt 1 view .LVU211
 609              		.loc 1 506 34 is_stmt 0 view .LVU212
 610 0034 244A     		ldr	r2, .L56
 611              		.loc 1 506 59 view .LVU213
 612 0036 0378     		ldrb	r3, [r0]	@ zero_extendqisi2
 613 0038 03F00F03 		and	r3, r3, #15
 614              		.loc 1 506 34 view .LVU214
 615 003c 6A33     		adds	r3, r3, #106
 616 003e 52F82330 		ldr	r3, [r2, r3, lsl #2]
 617              		.loc 1 506 78 view .LVU215
 618 0042 1D61     		str	r5, [r3, #16]
 507:/opt/XMClib/XMC_Peripheral_Library_v2.1.16/XMCLib/src/xmc_usbd.c ****   ctl.b.epena = 1U;
 619              		.loc 1 507 3 is_stmt 1 view .LVU216
 508:/opt/XMClib/XMC_Peripheral_Library_v2.1.16/XMCLib/src/xmc_usbd.c ****   ctl.b.cnak = 1U;
 620              		.loc 1 508 3 view .LVU217
 621              		.loc 1 508 14 is_stmt 0 view .LVU218
 622 0044 44F00444 		orr	r4, r4, #-2080374784
 623              	.LVL42:
 509:/opt/XMClib/XMC_Peripheral_Library_v2.1.16/XMCLib/src/xmc_usbd.c ****   xmc_device.endpoint_in_register[ep->address_u.address_st.number]->diepctl = ctl.d32;
 624              		.loc 1 509 3 is_stmt 1 view .LVU219
 625              		.loc 1 509 59 is_stmt 0 view .LVU220
 626 0048 0378     		ldrb	r3, [r0]	@ zero_extendqisi2
 627 004a 03F00F03 		and	r3, r3, #15
 628              		.loc 1 509 34 view .LVU221
 629 004e 6A33     		adds	r3, r3, #106
 630 0050 52F82330 		ldr	r3, [r2, r3, lsl #2]
 631              	.LVL43:
 632              		.loc 1 509 77 view .LVU222
 633 0054 1C60     		str	r4, [r3]
 510:/opt/XMClib/XMC_Peripheral_Library_v2.1.16/XMCLib/src/xmc_usbd.c **** }
 634              		.loc 1 510 1 view .LVU223
 635 0056 70BC     		pop	{r4, r5, r6}
 636              	.LCFI9:
 637              		.cfi_remember_state
 638              		.cfi_restore 6
 639              		.cfi_restore 5
 640              		.cfi_restore 4
 641              		.cfi_def_cfa_offset 0
 642              	.LVL44:
 643              		.loc 1 510 1 view .LVU224
 644 0058 7047     		bx	lr
 645              	.LVL45:
 646              	.L50:
 647              	.LCFI10:
 648              		.cfi_restore_state
 481:/opt/XMClib/XMC_Peripheral_Library_v2.1.16/XMCLib/src/xmc_usbd.c ****     {
 649              		.loc 1 481 5 is_stmt 1 view .LVU225
 481:/opt/XMClib/XMC_Peripheral_Library_v2.1.16/XMCLib/src/xmc_usbd.c ****     {
 650              		.loc 1 481 41 is_stmt 0 view .LVU226
 651 005a 0178     		ldrb	r1, [r0]	@ zero_extendqisi2
 481:/opt/XMClib/XMC_Peripheral_Library_v2.1.16/XMCLib/src/xmc_usbd.c ****     {
 652              		.loc 1 481 8 view .LVU227
 653 005c 11F00F0F 		tst	r1, #15
 654 0060 20D1     		bne	.L52
 483:/opt/XMClib/XMC_Peripheral_Library_v2.1.16/XMCLib/src/xmc_usbd.c ****       /* ep->maxXferSize equals maxPacketSize */
 655              		.loc 1 483 7 is_stmt 1 view .LVU228
 483:/opt/XMClib/XMC_Peripheral_Library_v2.1.16/XMCLib/src/xmc_usbd.c ****       /* ep->maxXferSize equals maxPacketSize */
 656              		.loc 1 483 21 is_stmt 0 view .LVU229
 657 0062 0121     		movs	r1, #1
 658 0064 61F3DC45 		bfi	r5, r1, #19, #10
 659              	.LVL46:
 485:/opt/XMClib/XMC_Peripheral_Library_v2.1.16/XMCLib/src/xmc_usbd.c ****     }
 660              		.loc 1 485 7 is_stmt 1 view .LVU230
 485:/opt/XMClib/XMC_Peripheral_Library_v2.1.16/XMCLib/src/xmc_usbd.c ****     }
 661              		.loc 1 485 51 is_stmt 0 view .LVU231
 662 0068 C16A     		ldr	r1, [r0, #44]
 663 006a 591A     		subs	r1, r3, r1
 485:/opt/XMClib/XMC_Peripheral_Library_v2.1.16/XMCLib/src/xmc_usbd.c ****     }
 664              		.loc 1 485 23 view .LVU232
 665 006c 61F31205 		bfi	r5, r1, #0, #19
 666              	.L53:
 493:/opt/XMClib/XMC_Peripheral_Library_v2.1.16/XMCLib/src/xmc_usbd.c ****     {
 667              		.loc 1 493 5 is_stmt 1 view .LVU233
 493:/opt/XMClib/XMC_Peripheral_Library_v2.1.16/XMCLib/src/xmc_usbd.c ****     {
 668              		.loc 1 493 17 is_stmt 0 view .LVU234
 669 0070 154B     		ldr	r3, .L56
 670 0072 D3F80832 		ldr	r3, [r3, #520]
 493:/opt/XMClib/XMC_Peripheral_Library_v2.1.16/XMCLib/src/xmc_usbd.c ****     {
 671              		.loc 1 493 7 view .LVU235
 672 0076 597B     		ldrb	r1, [r3, #13]	@ zero_extendqisi2
 673 0078 29B9     		cbnz	r1, .L54
 496:/opt/XMClib/XMC_Peripheral_Library_v2.1.16/XMCLib/src/xmc_usbd.c ****     }
 674              		.loc 1 496 7 is_stmt 1 view .LVU236
 496:/opt/XMClib/XMC_Peripheral_Library_v2.1.16/XMCLib/src/xmc_usbd.c ****     }
 675              		.loc 1 496 38 is_stmt 0 view .LVU237
 676 007a 6A32     		adds	r2, r2, #106
 677 007c 1249     		ldr	r1, .L56
 678 007e 51F82220 		ldr	r2, [r1, r2, lsl #2]
 496:/opt/XMClib/XMC_Peripheral_Library_v2.1.16/XMCLib/src/xmc_usbd.c ****     }
 679              		.loc 1 496 83 view .LVU238
 680 0082 416A     		ldr	r1, [r0, #36]
 496:/opt/XMClib/XMC_Peripheral_Library_v2.1.16/XMCLib/src/xmc_usbd.c ****     }
 681              		.loc 1 496 81 view .LVU239
 682 0084 5161     		str	r1, [r2, #20]
 683              	.L54:
 498:/opt/XMClib/XMC_Peripheral_Library_v2.1.16/XMCLib/src/xmc_usbd.c ****     {
 684              		.loc 1 498 5 is_stmt 1 view .LVU240
 498:/opt/XMClib/XMC_Peripheral_Library_v2.1.16/XMCLib/src/xmc_usbd.c ****     {
 685              		.loc 1 498 7 is_stmt 0 view .LVU241
 686 0086 5B7B     		ldrb	r3, [r3, #13]	@ zero_extendqisi2
 687 0088 012B     		cmp	r3, #1
 688 008a D3D1     		bne	.L51
 501:/opt/XMClib/XMC_Peripheral_Library_v2.1.16/XMCLib/src/xmc_usbd.c ****     }
 689              		.loc 1 501 4 is_stmt 1 view .LVU242
 501:/opt/XMClib/XMC_Peripheral_Library_v2.1.16/XMCLib/src/xmc_usbd.c ****     }
 690              		.loc 1 501 14 is_stmt 0 view .LVU243
 691 008c 0E4B     		ldr	r3, .L56
 692 008e D3F8A411 		ldr	r1, [r3, #420]
 501:/opt/XMClib/XMC_Peripheral_Library_v2.1.16/XMCLib/src/xmc_usbd.c ****     }
 693              		.loc 1 501 30 view .LVU244
 694 0092 4E6B     		ldr	r6, [r1, #52]
 501:/opt/XMClib/XMC_Peripheral_Library_v2.1.16/XMCLib/src/xmc_usbd.c ****     }
 695              		.loc 1 501 116 view .LVU245
 696 0094 0278     		ldrb	r2, [r0]	@ zero_extendqisi2
 501:/opt/XMClib/XMC_Peripheral_Library_v2.1.16/XMCLib/src/xmc_usbd.c ****     }
 697              		.loc 1 501 83 view .LVU246
 698 0096 02F00F02 		and	r2, r2, #15
 501:/opt/XMClib/XMC_Peripheral_Library_v2.1.16/XMCLib/src/xmc_usbd.c ****     }
 699              		.loc 1 501 56 view .LVU247
 700 009a 0123     		movs	r3, #1
 701 009c 9340     		lsls	r3, r3, r2
 501:/opt/XMClib/XMC_Peripheral_Library_v2.1.16/XMCLib/src/xmc_usbd.c ****     }
 702              		.loc 1 501 53 view .LVU248
 703 009e 3343     		orrs	r3, r3, r6
 704 00a0 4B63     		str	r3, [r1, #52]
 705 00a2 C7E7     		b	.L51
 706              	.LVL47:
 707              	.L52:
 489:/opt/XMClib/XMC_Peripheral_Library_v2.1.16/XMCLib/src/xmc_usbd.c ****       size.b.pktcnt = (uint16_t)(((uint16_t)(ep->xferLength - ep->xferCount) + (uint16_t)((uint16_t
 708              		.loc 1 489 7 is_stmt 1 view .LVU249
 489:/opt/XMClib/XMC_Peripheral_Library_v2.1.16/XMCLib/src/xmc_usbd.c ****       size.b.pktcnt = (uint16_t)(((uint16_t)(ep->xferLength - ep->xferCount) + (uint16_t)((uint16_t
 709              		.loc 1 489 54 is_stmt 0 view .LVU250
 710 00a4 C66A     		ldr	r6, [r0, #44]
 489:/opt/XMClib/XMC_Peripheral_Library_v2.1.16/XMCLib/src/xmc_usbd.c ****       size.b.pktcnt = (uint16_t)(((uint16_t)(ep->xferLength - ep->xferCount) + (uint16_t)((uint16_t
 711              		.loc 1 489 50 view .LVU251
 712 00a6 991B     		subs	r1, r3, r6
 489:/opt/XMClib/XMC_Peripheral_Library_v2.1.16/XMCLib/src/xmc_usbd.c ****       size.b.pktcnt = (uint16_t)(((uint16_t)(ep->xferLength - ep->xferCount) + (uint16_t)((uint16_t
 713              		.loc 1 489 23 view .LVU252
 714 00a8 61F31205 		bfi	r5, r1, #0, #19
 715              	.LVL48:
 490:/opt/XMClib/XMC_Peripheral_Library_v2.1.16/XMCLib/src/xmc_usbd.c ****     		 ep->maxPacketSize);
 716              		.loc 1 490 7 is_stmt 1 view .LVU253
 490:/opt/XMClib/XMC_Peripheral_Library_v2.1.16/XMCLib/src/xmc_usbd.c ****     		 ep->maxPacketSize);
 717              		.loc 1 490 103 is_stmt 0 view .LVU254
 718 00ac 4168     		ldr	r1, [r0, #4]
 719 00ae C1F3C621 		ubfx	r1, r1, #11, #7
 490:/opt/XMClib/XMC_Peripheral_Library_v2.1.16/XMCLib/src/xmc_usbd.c ****     		 ep->maxPacketSize);
 720              		.loc 1 490 35 view .LVU255
 721 00b2 9B1B     		subs	r3, r3, r6
 490:/opt/XMClib/XMC_Peripheral_Library_v2.1.16/XMCLib/src/xmc_usbd.c ****     		 ep->maxPacketSize);
 722              		.loc 1 490 80 view .LVU256
 723 00b4 4E1E     		subs	r6, r1, #1
 724 00b6 B6B2     		uxth	r6, r6
 490:/opt/XMClib/XMC_Peripheral_Library_v2.1.16/XMCLib/src/xmc_usbd.c ****     		 ep->maxPacketSize);
 725              		.loc 1 490 78 view .LVU257
 726 00b8 16FA83F3 		uxtah	r3, r6, r3
 490:/opt/XMClib/XMC_Peripheral_Library_v2.1.16/XMCLib/src/xmc_usbd.c ****     		 ep->maxPacketSize);
 727              		.loc 1 490 125 view .LVU258
 728 00bc 93FBF1F3 		sdiv	r3, r3, r1
 490:/opt/XMClib/XMC_Peripheral_Library_v2.1.16/XMCLib/src/xmc_usbd.c ****     		 ep->maxPacketSize);
 729              		.loc 1 490 21 view .LVU259
 730 00c0 63F3DC45 		bfi	r5, r3, #19, #10
 731 00c4 D4E7     		b	.L53
 732              	.L57:
 733 00c6 00BF     		.align	2
 734              	.L56:
 735 00c8 00000000 		.word	.LANCHOR0
 736              		.cfi_endproc
 737              	.LFE170:
 739              		.section	.text.XMC_USBD_GetCapabilities,"ax",%progbits
 740              		.align	1
 741              		.global	XMC_USBD_GetCapabilities
 742              		.syntax unified
 743              		.thumb
 744              		.thumb_func
 746              	XMC_USBD_GetCapabilities:
 747              	.LFB186:
 511:/opt/XMClib/XMC_Peripheral_Library_v2.1.16/XMCLib/src/xmc_usbd.c **** 
 512:/opt/XMClib/XMC_Peripheral_Library_v2.1.16/XMCLib/src/xmc_usbd.c **** 
 513:/opt/XMClib/XMC_Peripheral_Library_v2.1.16/XMCLib/src/xmc_usbd.c **** /**
 514:/opt/XMClib/XMC_Peripheral_Library_v2.1.16/XMCLib/src/xmc_usbd.c ****  * @brief Handles the USBD reset interrupt
 515:/opt/XMClib/XMC_Peripheral_Library_v2.1.16/XMCLib/src/xmc_usbd.c ****  *
 516:/opt/XMClib/XMC_Peripheral_Library_v2.1.16/XMCLib/src/xmc_usbd.c ****  * When ever the host sets the bus into reset condition the usb otg_core generates
 517:/opt/XMClib/XMC_Peripheral_Library_v2.1.16/XMCLib/src/xmc_usbd.c ****  * an interrupt, which is handled by this function. It resets the complete otg_core
 518:/opt/XMClib/XMC_Peripheral_Library_v2.1.16/XMCLib/src/xmc_usbd.c ****  * into the default state.
 519:/opt/XMClib/XMC_Peripheral_Library_v2.1.16/XMCLib/src/xmc_usbd.c ****  */
 520:/opt/XMClib/XMC_Peripheral_Library_v2.1.16/XMCLib/src/xmc_usbd.c **** static void XMC_USBD_lHandleUSBReset(const XMC_USBD_t *const obj) 
 521:/opt/XMClib/XMC_Peripheral_Library_v2.1.16/XMCLib/src/xmc_usbd.c **** {
 522:/opt/XMClib/XMC_Peripheral_Library_v2.1.16/XMCLib/src/xmc_usbd.c ****   uint32_t i;
 523:/opt/XMClib/XMC_Peripheral_Library_v2.1.16/XMCLib/src/xmc_usbd.c ****   depctl_data_t epctl;
 524:/opt/XMClib/XMC_Peripheral_Library_v2.1.16/XMCLib/src/xmc_usbd.c ****   dctl_data_t dctl;
 525:/opt/XMClib/XMC_Peripheral_Library_v2.1.16/XMCLib/src/xmc_usbd.c ****   fifosize_data_t gnptxfsiz;
 526:/opt/XMClib/XMC_Peripheral_Library_v2.1.16/XMCLib/src/xmc_usbd.c ****   daint_data_t daint;
 527:/opt/XMClib/XMC_Peripheral_Library_v2.1.16/XMCLib/src/xmc_usbd.c ****   dcfg_data_t dcfg;
 528:/opt/XMClib/XMC_Peripheral_Library_v2.1.16/XMCLib/src/xmc_usbd.c **** 	
 529:/opt/XMClib/XMC_Peripheral_Library_v2.1.16/XMCLib/src/xmc_usbd.c ****   /* Clear the Remote Wakeup Signaling */
 530:/opt/XMClib/XMC_Peripheral_Library_v2.1.16/XMCLib/src/xmc_usbd.c ****   dctl.d32 = xmc_device.device_register->dctl;
 531:/opt/XMClib/XMC_Peripheral_Library_v2.1.16/XMCLib/src/xmc_usbd.c ****   dctl.b.rmtwkupsig = 1U;
 532:/opt/XMClib/XMC_Peripheral_Library_v2.1.16/XMCLib/src/xmc_usbd.c ****   xmc_device.device_register->dctl = dctl.d32;
 533:/opt/XMClib/XMC_Peripheral_Library_v2.1.16/XMCLib/src/xmc_usbd.c **** 
 534:/opt/XMClib/XMC_Peripheral_Library_v2.1.16/XMCLib/src/xmc_usbd.c ****   /* enable naks for all eps */
 535:/opt/XMClib/XMC_Peripheral_Library_v2.1.16/XMCLib/src/xmc_usbd.c ****   for (i = 0U;i < (uint8_t)XMC_USBD_NUM_EPS;i++)
 536:/opt/XMClib/XMC_Peripheral_Library_v2.1.16/XMCLib/src/xmc_usbd.c ****   {
 537:/opt/XMClib/XMC_Peripheral_Library_v2.1.16/XMCLib/src/xmc_usbd.c ****     epctl.d32 = xmc_device.endpoint_out_register[i]->doepctl;
 538:/opt/XMClib/XMC_Peripheral_Library_v2.1.16/XMCLib/src/xmc_usbd.c **** 		epctl.b.snak = 1U;
 539:/opt/XMClib/XMC_Peripheral_Library_v2.1.16/XMCLib/src/xmc_usbd.c **** 		epctl.b.stall = 0U;
 540:/opt/XMClib/XMC_Peripheral_Library_v2.1.16/XMCLib/src/xmc_usbd.c **** 		xmc_device.endpoint_out_register[i]->doepctl = epctl.d32;
 541:/opt/XMClib/XMC_Peripheral_Library_v2.1.16/XMCLib/src/xmc_usbd.c ****   }
 542:/opt/XMClib/XMC_Peripheral_Library_v2.1.16/XMCLib/src/xmc_usbd.c **** 
 543:/opt/XMClib/XMC_Peripheral_Library_v2.1.16/XMCLib/src/xmc_usbd.c ****   /* Configure fifos */
 544:/opt/XMClib/XMC_Peripheral_Library_v2.1.16/XMCLib/src/xmc_usbd.c ****   /* Calculate the size of the rx fifo */
 545:/opt/XMClib/XMC_Peripheral_Library_v2.1.16/XMCLib/src/xmc_usbd.c ****   xmc_device.global_register->grxfsiz = 64U;
 546:/opt/XMClib/XMC_Peripheral_Library_v2.1.16/XMCLib/src/xmc_usbd.c ****   /* Calculate the size of the tx fifo for ep 0 */  
 547:/opt/XMClib/XMC_Peripheral_Library_v2.1.16/XMCLib/src/xmc_usbd.c ****   gnptxfsiz.d32 = 0U;
 548:/opt/XMClib/XMC_Peripheral_Library_v2.1.16/XMCLib/src/xmc_usbd.c ****   gnptxfsiz.b.depth = 16U;
 549:/opt/XMClib/XMC_Peripheral_Library_v2.1.16/XMCLib/src/xmc_usbd.c ****   gnptxfsiz.b.startaddr = 64U;
 550:/opt/XMClib/XMC_Peripheral_Library_v2.1.16/XMCLib/src/xmc_usbd.c ****   xmc_device.global_register->gnptxfsiz = gnptxfsiz.d32;
 551:/opt/XMClib/XMC_Peripheral_Library_v2.1.16/XMCLib/src/xmc_usbd.c ****   /* calculate the size for the rest */
 552:/opt/XMClib/XMC_Peripheral_Library_v2.1.16/XMCLib/src/xmc_usbd.c ****   for (i = 1U;i < (uint8_t)XMC_USBD_NUM_TX_FIFOS;i++)
 553:/opt/XMClib/XMC_Peripheral_Library_v2.1.16/XMCLib/src/xmc_usbd.c ****   {
 554:/opt/XMClib/XMC_Peripheral_Library_v2.1.16/XMCLib/src/xmc_usbd.c ****     xmc_device.global_register->dtxfsiz[i- 1U] = (uint32_t)(((256U + (i*(64U)))/4U) | ((uint32_t)16
 555:/opt/XMClib/XMC_Peripheral_Library_v2.1.16/XMCLib/src/xmc_usbd.c ****   }
 556:/opt/XMClib/XMC_Peripheral_Library_v2.1.16/XMCLib/src/xmc_usbd.c **** 
 557:/opt/XMClib/XMC_Peripheral_Library_v2.1.16/XMCLib/src/xmc_usbd.c ****   /* flush the fifos for proper operation */
 558:/opt/XMClib/XMC_Peripheral_Library_v2.1.16/XMCLib/src/xmc_usbd.c ****   XMC_USBD_lFlushTXFifo(0x10U); /* 0x10 == all fifos, see doc */
 559:/opt/XMClib/XMC_Peripheral_Library_v2.1.16/XMCLib/src/xmc_usbd.c ****   XMC_USBD_lFlushTXFifo(0x0U);
 560:/opt/XMClib/XMC_Peripheral_Library_v2.1.16/XMCLib/src/xmc_usbd.c ****   XMC_USBD_lFlushRXFifo();
 561:/opt/XMClib/XMC_Peripheral_Library_v2.1.16/XMCLib/src/xmc_usbd.c ****   /* Flush learning queue not needed due to fifo config */
 562:/opt/XMClib/XMC_Peripheral_Library_v2.1.16/XMCLib/src/xmc_usbd.c ****   /* enable ep0 interrupts */  
 563:/opt/XMClib/XMC_Peripheral_Library_v2.1.16/XMCLib/src/xmc_usbd.c ****   daint.d32 = 0U;
 564:/opt/XMClib/XMC_Peripheral_Library_v2.1.16/XMCLib/src/xmc_usbd.c ****   daint.b.inep0 = 1U;
 565:/opt/XMClib/XMC_Peripheral_Library_v2.1.16/XMCLib/src/xmc_usbd.c ****   daint.b.outep0 = 1U;
 566:/opt/XMClib/XMC_Peripheral_Library_v2.1.16/XMCLib/src/xmc_usbd.c ****   xmc_device.device_register->daintmsk = daint.d32;
 567:/opt/XMClib/XMC_Peripheral_Library_v2.1.16/XMCLib/src/xmc_usbd.c **** 
 568:/opt/XMClib/XMC_Peripheral_Library_v2.1.16/XMCLib/src/xmc_usbd.c ****   /* enable endpoint interrupts */
 569:/opt/XMClib/XMC_Peripheral_Library_v2.1.16/XMCLib/src/xmc_usbd.c ****   /* out ep interrupts */
 570:/opt/XMClib/XMC_Peripheral_Library_v2.1.16/XMCLib/src/xmc_usbd.c ****   XMC_USBD_EnableEventOUTEP(((uint32_t)XMC_USBD_EVENT_OUT_EP_TX_COMPLET | (uint32_t)XMC_USBD_EVENT_
 571:/opt/XMClib/XMC_Peripheral_Library_v2.1.16/XMCLib/src/xmc_usbd.c **** 		  	  	  	  	  	  (uint32_t)XMC_USBD_EVENT_OUT_EP_SETUP | (uint32_t)XMC_USBD_EVENT_OUT_EP_AHB_ERRO
 572:/opt/XMClib/XMC_Peripheral_Library_v2.1.16/XMCLib/src/xmc_usbd.c **** 
 573:/opt/XMClib/XMC_Peripheral_Library_v2.1.16/XMCLib/src/xmc_usbd.c ****   /*in ep interrupts */
 574:/opt/XMClib/XMC_Peripheral_Library_v2.1.16/XMCLib/src/xmc_usbd.c ****   XMC_USBD_EnableEventINEP(((uint32_t)XMC_USBD_EVENT_IN_EP_TX_COMPLET | (uint32_t)XMC_USBD_EVENT_IN
 575:/opt/XMClib/XMC_Peripheral_Library_v2.1.16/XMCLib/src/xmc_usbd.c **** 		  (uint32_t)XMC_USBD_EVENT_IN_EP_AHB_ERROR | (uint32_t)XMC_USBD_EVENT_IN_EP_TIMEOUT));
 576:/opt/XMClib/XMC_Peripheral_Library_v2.1.16/XMCLib/src/xmc_usbd.c **** 
 577:/opt/XMClib/XMC_Peripheral_Library_v2.1.16/XMCLib/src/xmc_usbd.c **** 
 578:/opt/XMClib/XMC_Peripheral_Library_v2.1.16/XMCLib/src/xmc_usbd.c ****   /* Clear device Address */  
 579:/opt/XMClib/XMC_Peripheral_Library_v2.1.16/XMCLib/src/xmc_usbd.c ****   dcfg.d32 = xmc_device.device_register->dcfg;
 580:/opt/XMClib/XMC_Peripheral_Library_v2.1.16/XMCLib/src/xmc_usbd.c ****   dcfg.b.devaddr = 0U;
 581:/opt/XMClib/XMC_Peripheral_Library_v2.1.16/XMCLib/src/xmc_usbd.c ****   xmc_device.device_register->dcfg = dcfg.d32;
 582:/opt/XMClib/XMC_Peripheral_Library_v2.1.16/XMCLib/src/xmc_usbd.c **** 
 583:/opt/XMClib/XMC_Peripheral_Library_v2.1.16/XMCLib/src/xmc_usbd.c ****   if(obj->usbd_transfer_mode == XMC_USBD_USE_FIFO)
 584:/opt/XMClib/XMC_Peripheral_Library_v2.1.16/XMCLib/src/xmc_usbd.c ****   {
 585:/opt/XMClib/XMC_Peripheral_Library_v2.1.16/XMCLib/src/xmc_usbd.c ****     /* Clear Empty interrupt */
 586:/opt/XMClib/XMC_Peripheral_Library_v2.1.16/XMCLib/src/xmc_usbd.c ****     xmc_device.device_register->dtknqr4_fifoemptymsk = 0U;
 587:/opt/XMClib/XMC_Peripheral_Library_v2.1.16/XMCLib/src/xmc_usbd.c ****   }
 588:/opt/XMClib/XMC_Peripheral_Library_v2.1.16/XMCLib/src/xmc_usbd.c **** 
 589:/opt/XMClib/XMC_Peripheral_Library_v2.1.16/XMCLib/src/xmc_usbd.c ****   xmc_device.ep[0U].outInUse = 0U;
 590:/opt/XMClib/XMC_Peripheral_Library_v2.1.16/XMCLib/src/xmc_usbd.c ****   xmc_device.ep[0U].inInUse = 0U;
 591:/opt/XMClib/XMC_Peripheral_Library_v2.1.16/XMCLib/src/xmc_usbd.c **** 
 592:/opt/XMClib/XMC_Peripheral_Library_v2.1.16/XMCLib/src/xmc_usbd.c ****   xmc_device.DeviceEvent_cb(XMC_USBD_EVENT_RESET);
 593:/opt/XMClib/XMC_Peripheral_Library_v2.1.16/XMCLib/src/xmc_usbd.c **** 
 594:/opt/XMClib/XMC_Peripheral_Library_v2.1.16/XMCLib/src/xmc_usbd.c ****   /* clear reset intr */
 595:/opt/XMClib/XMC_Peripheral_Library_v2.1.16/XMCLib/src/xmc_usbd.c ****   XMC_USBD_ClearEvent(XMC_USBD_EVENT_RESET);
 596:/opt/XMClib/XMC_Peripheral_Library_v2.1.16/XMCLib/src/xmc_usbd.c **** }
 597:/opt/XMClib/XMC_Peripheral_Library_v2.1.16/XMCLib/src/xmc_usbd.c **** 
 598:/opt/XMClib/XMC_Peripheral_Library_v2.1.16/XMCLib/src/xmc_usbd.c **** /**
 599:/opt/XMClib/XMC_Peripheral_Library_v2.1.16/XMCLib/src/xmc_usbd.c **** * @brief Handle OTG Interrupt
 600:/opt/XMClib/XMC_Peripheral_Library_v2.1.16/XMCLib/src/xmc_usbd.c **** *
 601:/opt/XMClib/XMC_Peripheral_Library_v2.1.16/XMCLib/src/xmc_usbd.c **** * It detects especially connect and disconnect events.
 602:/opt/XMClib/XMC_Peripheral_Library_v2.1.16/XMCLib/src/xmc_usbd.c **** */
 603:/opt/XMClib/XMC_Peripheral_Library_v2.1.16/XMCLib/src/xmc_usbd.c **** static void XMC_USBD_lHandleOTGInt(void) 
 604:/opt/XMClib/XMC_Peripheral_Library_v2.1.16/XMCLib/src/xmc_usbd.c **** {
 605:/opt/XMClib/XMC_Peripheral_Library_v2.1.16/XMCLib/src/xmc_usbd.c ****   gotgint_data_t data;
 606:/opt/XMClib/XMC_Peripheral_Library_v2.1.16/XMCLib/src/xmc_usbd.c ****   data.d32 = xmc_device.global_register->gotgint;
 607:/opt/XMClib/XMC_Peripheral_Library_v2.1.16/XMCLib/src/xmc_usbd.c ****   if (data.b.sesenddet)
 608:/opt/XMClib/XMC_Peripheral_Library_v2.1.16/XMCLib/src/xmc_usbd.c ****   {
 609:/opt/XMClib/XMC_Peripheral_Library_v2.1.16/XMCLib/src/xmc_usbd.c **** 		xmc_device.IsPowered = 0U;
 610:/opt/XMClib/XMC_Peripheral_Library_v2.1.16/XMCLib/src/xmc_usbd.c **** 		xmc_device.DeviceEvent_cb(XMC_USBD_EVENT_POWER_OFF);
 611:/opt/XMClib/XMC_Peripheral_Library_v2.1.16/XMCLib/src/xmc_usbd.c ****   }
 612:/opt/XMClib/XMC_Peripheral_Library_v2.1.16/XMCLib/src/xmc_usbd.c ****   XMC_USBD_lClearEventOTG(data.d32);
 613:/opt/XMClib/XMC_Peripheral_Library_v2.1.16/XMCLib/src/xmc_usbd.c **** 
 614:/opt/XMClib/XMC_Peripheral_Library_v2.1.16/XMCLib/src/xmc_usbd.c **** }
 615:/opt/XMClib/XMC_Peripheral_Library_v2.1.16/XMCLib/src/xmc_usbd.c **** 
 616:/opt/XMClib/XMC_Peripheral_Library_v2.1.16/XMCLib/src/xmc_usbd.c **** /**
 617:/opt/XMClib/XMC_Peripheral_Library_v2.1.16/XMCLib/src/xmc_usbd.c ****  * @brief Interrupt handler for device enumeration done.
 618:/opt/XMClib/XMC_Peripheral_Library_v2.1.16/XMCLib/src/xmc_usbd.c ****  *
 619:/opt/XMClib/XMC_Peripheral_Library_v2.1.16/XMCLib/src/xmc_usbd.c ****  * Handles the enumeration done from dwc_otg, when the host has enumerated the device.
 620:/opt/XMClib/XMC_Peripheral_Library_v2.1.16/XMCLib/src/xmc_usbd.c ****  */
 621:/opt/XMClib/XMC_Peripheral_Library_v2.1.16/XMCLib/src/xmc_usbd.c **** static void XMC_USBD_lHandleEnumDone(void) 
 622:/opt/XMClib/XMC_Peripheral_Library_v2.1.16/XMCLib/src/xmc_usbd.c **** {
 623:/opt/XMClib/XMC_Peripheral_Library_v2.1.16/XMCLib/src/xmc_usbd.c ****   /* Normaly we need to check dctl
 624:/opt/XMClib/XMC_Peripheral_Library_v2.1.16/XMCLib/src/xmc_usbd.c ****    * We are always fullspeed, so max it up. */
 625:/opt/XMClib/XMC_Peripheral_Library_v2.1.16/XMCLib/src/xmc_usbd.c ****   depctl_data_t epctl;
 626:/opt/XMClib/XMC_Peripheral_Library_v2.1.16/XMCLib/src/xmc_usbd.c ****   gusbcfg_data_t gusbcfg;
 627:/opt/XMClib/XMC_Peripheral_Library_v2.1.16/XMCLib/src/xmc_usbd.c **** 	
 628:/opt/XMClib/XMC_Peripheral_Library_v2.1.16/XMCLib/src/xmc_usbd.c ****   epctl.d32=xmc_device.endpoint_in_register[0U]->diepctl;
 629:/opt/XMClib/XMC_Peripheral_Library_v2.1.16/XMCLib/src/xmc_usbd.c ****   epctl.b.mps = 0x00U; /* 64 Byte, this is also automatically set for out ep */
 630:/opt/XMClib/XMC_Peripheral_Library_v2.1.16/XMCLib/src/xmc_usbd.c ****   xmc_device.endpoint_in_register[0U]->diepctl = epctl.d32;
 631:/opt/XMClib/XMC_Peripheral_Library_v2.1.16/XMCLib/src/xmc_usbd.c **** 
 632:/opt/XMClib/XMC_Peripheral_Library_v2.1.16/XMCLib/src/xmc_usbd.c ****   /* update device connected flag */
 633:/opt/XMClib/XMC_Peripheral_Library_v2.1.16/XMCLib/src/xmc_usbd.c ****   xmc_device.IsConnected = 1U;
 634:/opt/XMClib/XMC_Peripheral_Library_v2.1.16/XMCLib/src/xmc_usbd.c ****   xmc_device.IsPowered = 1U;
 635:/opt/XMClib/XMC_Peripheral_Library_v2.1.16/XMCLib/src/xmc_usbd.c **** 
 636:/opt/XMClib/XMC_Peripheral_Library_v2.1.16/XMCLib/src/xmc_usbd.c ****   xmc_device.DeviceEvent_cb(XMC_USBD_EVENT_CONNECT);
 637:/opt/XMClib/XMC_Peripheral_Library_v2.1.16/XMCLib/src/xmc_usbd.c **** 
 638:/opt/XMClib/XMC_Peripheral_Library_v2.1.16/XMCLib/src/xmc_usbd.c ****   /* Set Trim */  
 639:/opt/XMClib/XMC_Peripheral_Library_v2.1.16/XMCLib/src/xmc_usbd.c ****   gusbcfg.d32 = xmc_device.global_register->gusbcfg;
 640:/opt/XMClib/XMC_Peripheral_Library_v2.1.16/XMCLib/src/xmc_usbd.c ****   gusbcfg.b.usbtrdtim = 9U; /* default value for LS/FS */
 641:/opt/XMClib/XMC_Peripheral_Library_v2.1.16/XMCLib/src/xmc_usbd.c ****   xmc_device.global_register->gusbcfg = gusbcfg.d32;
 642:/opt/XMClib/XMC_Peripheral_Library_v2.1.16/XMCLib/src/xmc_usbd.c **** 
 643:/opt/XMClib/XMC_Peripheral_Library_v2.1.16/XMCLib/src/xmc_usbd.c ****   /* clear interrupt */
 644:/opt/XMClib/XMC_Peripheral_Library_v2.1.16/XMCLib/src/xmc_usbd.c ****   XMC_USBD_ClearEvent(XMC_USBD_EVENT_ENUMDONE);
 645:/opt/XMClib/XMC_Peripheral_Library_v2.1.16/XMCLib/src/xmc_usbd.c **** }
 646:/opt/XMClib/XMC_Peripheral_Library_v2.1.16/XMCLib/src/xmc_usbd.c **** 
 647:/opt/XMClib/XMC_Peripheral_Library_v2.1.16/XMCLib/src/xmc_usbd.c **** 
 648:/opt/XMClib/XMC_Peripheral_Library_v2.1.16/XMCLib/src/xmc_usbd.c **** /**
 649:/opt/XMClib/XMC_Peripheral_Library_v2.1.16/XMCLib/src/xmc_usbd.c ****  * @brief Handles all interrupts for all out endpoints
 650:/opt/XMClib/XMC_Peripheral_Library_v2.1.16/XMCLib/src/xmc_usbd.c ****  *
 651:/opt/XMClib/XMC_Peripheral_Library_v2.1.16/XMCLib/src/xmc_usbd.c ****  * The interrupt handler first checks, which endpoint has caused the interrupt and then
 652:/opt/XMClib/XMC_Peripheral_Library_v2.1.16/XMCLib/src/xmc_usbd.c ****  * determines, which interrupt should be handled.
 653:/opt/XMClib/XMC_Peripheral_Library_v2.1.16/XMCLib/src/xmc_usbd.c ****  */
 654:/opt/XMClib/XMC_Peripheral_Library_v2.1.16/XMCLib/src/xmc_usbd.c **** static void XMC_USBD_lHandleOEPInt(const XMC_USBD_t *const obj) 
 655:/opt/XMClib/XMC_Peripheral_Library_v2.1.16/XMCLib/src/xmc_usbd.c **** {
 656:/opt/XMClib/XMC_Peripheral_Library_v2.1.16/XMCLib/src/xmc_usbd.c ****   daint_data_t daint;
 657:/opt/XMClib/XMC_Peripheral_Library_v2.1.16/XMCLib/src/xmc_usbd.c ****   daint_data_t daintmsk;
 658:/opt/XMClib/XMC_Peripheral_Library_v2.1.16/XMCLib/src/xmc_usbd.c ****   doepmsk_data_t doepmsk;
 659:/opt/XMClib/XMC_Peripheral_Library_v2.1.16/XMCLib/src/xmc_usbd.c ****   doepint_data_t doepint;
 660:/opt/XMClib/XMC_Peripheral_Library_v2.1.16/XMCLib/src/xmc_usbd.c ****   deptsiz_data_t doeptsiz;
 661:/opt/XMClib/XMC_Peripheral_Library_v2.1.16/XMCLib/src/xmc_usbd.c ****   XMC_USBD_EP_t *ep;
 662:/opt/XMClib/XMC_Peripheral_Library_v2.1.16/XMCLib/src/xmc_usbd.c ****   uint16_t temp;
 663:/opt/XMClib/XMC_Peripheral_Library_v2.1.16/XMCLib/src/xmc_usbd.c ****   uint16_t temp1;
 664:/opt/XMClib/XMC_Peripheral_Library_v2.1.16/XMCLib/src/xmc_usbd.c ****   uint16_t mask;
 665:/opt/XMClib/XMC_Peripheral_Library_v2.1.16/XMCLib/src/xmc_usbd.c ****   uint8_t ep_num;
 666:/opt/XMClib/XMC_Peripheral_Library_v2.1.16/XMCLib/src/xmc_usbd.c **** 	
 667:/opt/XMClib/XMC_Peripheral_Library_v2.1.16/XMCLib/src/xmc_usbd.c ****   daint.d32 = xmc_device.device_register->daint;
 668:/opt/XMClib/XMC_Peripheral_Library_v2.1.16/XMCLib/src/xmc_usbd.c ****   
 669:/opt/XMClib/XMC_Peripheral_Library_v2.1.16/XMCLib/src/xmc_usbd.c ****   daintmsk.d32 = xmc_device.device_register->daintmsk;
 670:/opt/XMClib/XMC_Peripheral_Library_v2.1.16/XMCLib/src/xmc_usbd.c ****   
 671:/opt/XMClib/XMC_Peripheral_Library_v2.1.16/XMCLib/src/xmc_usbd.c ****   doepmsk.d32 = xmc_device.device_register->doepmsk;  
 672:/opt/XMClib/XMC_Peripheral_Library_v2.1.16/XMCLib/src/xmc_usbd.c ****   
 673:/opt/XMClib/XMC_Peripheral_Library_v2.1.16/XMCLib/src/xmc_usbd.c ****   mask = daint.ep.out & daintmsk.ep.out;
 674:/opt/XMClib/XMC_Peripheral_Library_v2.1.16/XMCLib/src/xmc_usbd.c ****   ep_num = 0U;
 675:/opt/XMClib/XMC_Peripheral_Library_v2.1.16/XMCLib/src/xmc_usbd.c ****   doeptsiz.d32 = 0U;
 676:/opt/XMClib/XMC_Peripheral_Library_v2.1.16/XMCLib/src/xmc_usbd.c ****  
 677:/opt/XMClib/XMC_Peripheral_Library_v2.1.16/XMCLib/src/xmc_usbd.c ****   while ((uint16_t)mask >> ep_num)
 678:/opt/XMClib/XMC_Peripheral_Library_v2.1.16/XMCLib/src/xmc_usbd.c ****   {
 679:/opt/XMClib/XMC_Peripheral_Library_v2.1.16/XMCLib/src/xmc_usbd.c ****     temp1 = (mask >> (uint16_t)ep_num);
 680:/opt/XMClib/XMC_Peripheral_Library_v2.1.16/XMCLib/src/xmc_usbd.c ****     temp = temp1 & 0x1U;
 681:/opt/XMClib/XMC_Peripheral_Library_v2.1.16/XMCLib/src/xmc_usbd.c ****     if (temp)
 682:/opt/XMClib/XMC_Peripheral_Library_v2.1.16/XMCLib/src/xmc_usbd.c ****     {
 683:/opt/XMClib/XMC_Peripheral_Library_v2.1.16/XMCLib/src/xmc_usbd.c ****       /* load register data for endpoint */
 684:/opt/XMClib/XMC_Peripheral_Library_v2.1.16/XMCLib/src/xmc_usbd.c ****       ep = &xmc_device.ep[ep_num];
 685:/opt/XMClib/XMC_Peripheral_Library_v2.1.16/XMCLib/src/xmc_usbd.c ****       doepint.d32 = xmc_device.endpoint_out_register[ep_num]->doepint & doepmsk.d32;
 686:/opt/XMClib/XMC_Peripheral_Library_v2.1.16/XMCLib/src/xmc_usbd.c ****       if(obj->usbd_transfer_mode == XMC_USBD_USE_DMA)
 687:/opt/XMClib/XMC_Peripheral_Library_v2.1.16/XMCLib/src/xmc_usbd.c ****       {
 688:/opt/XMClib/XMC_Peripheral_Library_v2.1.16/XMCLib/src/xmc_usbd.c ****         doeptsiz.d32 = xmc_device.endpoint_out_register[ep_num]->doeptsiz;
 689:/opt/XMClib/XMC_Peripheral_Library_v2.1.16/XMCLib/src/xmc_usbd.c ****       }
 690:/opt/XMClib/XMC_Peripheral_Library_v2.1.16/XMCLib/src/xmc_usbd.c **** 	  /* Setup Phase Complete */
 691:/opt/XMClib/XMC_Peripheral_Library_v2.1.16/XMCLib/src/xmc_usbd.c ****       if (doepint.b.setup)
 692:/opt/XMClib/XMC_Peripheral_Library_v2.1.16/XMCLib/src/xmc_usbd.c ****       {
 693:/opt/XMClib/XMC_Peripheral_Library_v2.1.16/XMCLib/src/xmc_usbd.c ****         /* ep0 not stalled any more */
 694:/opt/XMClib/XMC_Peripheral_Library_v2.1.16/XMCLib/src/xmc_usbd.c ****         ep->isStalled = 0U;
 695:/opt/XMClib/XMC_Peripheral_Library_v2.1.16/XMCLib/src/xmc_usbd.c ****         if(obj->usbd_transfer_mode == XMC_USBD_USE_DMA)
 696:/opt/XMClib/XMC_Peripheral_Library_v2.1.16/XMCLib/src/xmc_usbd.c ****         {
 697:/opt/XMClib/XMC_Peripheral_Library_v2.1.16/XMCLib/src/xmc_usbd.c ****           /* calculate size for setup packet */
 698:/opt/XMClib/XMC_Peripheral_Library_v2.1.16/XMCLib/src/xmc_usbd.c **** 		  ep->outBytesAvailable = (uint32_t)(((uint32_t)XMC_USBD_SETUP_COUNT -
 699:/opt/XMClib/XMC_Peripheral_Library_v2.1.16/XMCLib/src/xmc_usbd.c **** 		  (uint32_t)((deptsiz0_data_t*)&doeptsiz)->b.supcnt)*(uint32_t)XMC_USBD_SETUP_SIZE);
 700:/opt/XMClib/XMC_Peripheral_Library_v2.1.16/XMCLib/src/xmc_usbd.c ****         }
 701:/opt/XMClib/XMC_Peripheral_Library_v2.1.16/XMCLib/src/xmc_usbd.c **** 		if(obj->usbd_transfer_mode == XMC_USBD_USE_FIFO)
 702:/opt/XMClib/XMC_Peripheral_Library_v2.1.16/XMCLib/src/xmc_usbd.c **** 		{
 703:/opt/XMClib/XMC_Peripheral_Library_v2.1.16/XMCLib/src/xmc_usbd.c **** 			ep->outBytesAvailable += ep->xferCount;
 704:/opt/XMClib/XMC_Peripheral_Library_v2.1.16/XMCLib/src/xmc_usbd.c **** 		}
 705:/opt/XMClib/XMC_Peripheral_Library_v2.1.16/XMCLib/src/xmc_usbd.c **** 		ep->outInUse = 0U;
 706:/opt/XMClib/XMC_Peripheral_Library_v2.1.16/XMCLib/src/xmc_usbd.c **** 		xmc_device.EndpointEvent_cb(0U,XMC_USBD_EP_EVENT_SETUP); /* signal endpoint event */
 707:/opt/XMClib/XMC_Peripheral_Library_v2.1.16/XMCLib/src/xmc_usbd.c **** 				/* clear the interrupt */
 708:/opt/XMClib/XMC_Peripheral_Library_v2.1.16/XMCLib/src/xmc_usbd.c **** 		XMC_USBD_ClearEventOUTEP((uint32_t)XMC_USBD_EVENT_OUT_EP_SETUP,ep_num);
 709:/opt/XMClib/XMC_Peripheral_Library_v2.1.16/XMCLib/src/xmc_usbd.c ****       }
 710:/opt/XMClib/XMC_Peripheral_Library_v2.1.16/XMCLib/src/xmc_usbd.c ****       if (doepint.b.xfercompl)
 711:/opt/XMClib/XMC_Peripheral_Library_v2.1.16/XMCLib/src/xmc_usbd.c ****       {
 712:/opt/XMClib/XMC_Peripheral_Library_v2.1.16/XMCLib/src/xmc_usbd.c ****         if(obj->usbd_transfer_mode == XMC_USBD_USE_DMA)
 713:/opt/XMClib/XMC_Peripheral_Library_v2.1.16/XMCLib/src/xmc_usbd.c ****         {
 714:/opt/XMClib/XMC_Peripheral_Library_v2.1.16/XMCLib/src/xmc_usbd.c ****           uint32_t bytes = (ep->xferLength - ep->xferCount) - doeptsiz.b.xfersize;
 715:/opt/XMClib/XMC_Peripheral_Library_v2.1.16/XMCLib/src/xmc_usbd.c ****           ep->xferCount += bytes;
 716:/opt/XMClib/XMC_Peripheral_Library_v2.1.16/XMCLib/src/xmc_usbd.c ****           ep->xferBuffer += bytes;
 717:/opt/XMClib/XMC_Peripheral_Library_v2.1.16/XMCLib/src/xmc_usbd.c **** 				}
 718:/opt/XMClib/XMC_Peripheral_Library_v2.1.16/XMCLib/src/xmc_usbd.c ****         if (ep->xferTotal == ep->xferLength)
 719:/opt/XMClib/XMC_Peripheral_Library_v2.1.16/XMCLib/src/xmc_usbd.c ****         {
 720:/opt/XMClib/XMC_Peripheral_Library_v2.1.16/XMCLib/src/xmc_usbd.c ****           ep->outBytesAvailable = ep->xferCount;
 721:/opt/XMClib/XMC_Peripheral_Library_v2.1.16/XMCLib/src/xmc_usbd.c ****           ep->outInUse = 0U;
 722:/opt/XMClib/XMC_Peripheral_Library_v2.1.16/XMCLib/src/xmc_usbd.c ****           xmc_device.EndpointEvent_cb(ep_num,XMC_USBD_EP_EVENT_OUT);
 723:/opt/XMClib/XMC_Peripheral_Library_v2.1.16/XMCLib/src/xmc_usbd.c ****         }
 724:/opt/XMClib/XMC_Peripheral_Library_v2.1.16/XMCLib/src/xmc_usbd.c ****         else
 725:/opt/XMClib/XMC_Peripheral_Library_v2.1.16/XMCLib/src/xmc_usbd.c ****         {
 726:/opt/XMClib/XMC_Peripheral_Library_v2.1.16/XMCLib/src/xmc_usbd.c ****           XMC_USBD_lStartReadXfer(ep);
 727:/opt/XMClib/XMC_Peripheral_Library_v2.1.16/XMCLib/src/xmc_usbd.c ****         }
 728:/opt/XMClib/XMC_Peripheral_Library_v2.1.16/XMCLib/src/xmc_usbd.c **** 
 729:/opt/XMClib/XMC_Peripheral_Library_v2.1.16/XMCLib/src/xmc_usbd.c ****       }
 730:/opt/XMClib/XMC_Peripheral_Library_v2.1.16/XMCLib/src/xmc_usbd.c **** 
 731:/opt/XMClib/XMC_Peripheral_Library_v2.1.16/XMCLib/src/xmc_usbd.c ****       XMC_USBD_ClearEventOUTEP(doepint.d32,ep_num);
 732:/opt/XMClib/XMC_Peripheral_Library_v2.1.16/XMCLib/src/xmc_usbd.c ****     }
 733:/opt/XMClib/XMC_Peripheral_Library_v2.1.16/XMCLib/src/xmc_usbd.c ****     ep_num++;
 734:/opt/XMClib/XMC_Peripheral_Library_v2.1.16/XMCLib/src/xmc_usbd.c ****   }
 735:/opt/XMClib/XMC_Peripheral_Library_v2.1.16/XMCLib/src/xmc_usbd.c **** 
 736:/opt/XMClib/XMC_Peripheral_Library_v2.1.16/XMCLib/src/xmc_usbd.c ****   /* clear interrupt */
 737:/opt/XMClib/XMC_Peripheral_Library_v2.1.16/XMCLib/src/xmc_usbd.c ****   XMC_USBD_ClearEvent(XMC_USBD_EVENT_OUTEP);
 738:/opt/XMClib/XMC_Peripheral_Library_v2.1.16/XMCLib/src/xmc_usbd.c **** }
 739:/opt/XMClib/XMC_Peripheral_Library_v2.1.16/XMCLib/src/xmc_usbd.c **** 
 740:/opt/XMClib/XMC_Peripheral_Library_v2.1.16/XMCLib/src/xmc_usbd.c **** /**
 741:/opt/XMClib/XMC_Peripheral_Library_v2.1.16/XMCLib/src/xmc_usbd.c ****  * @brief Handles all interrupts for all in endpoints
 742:/opt/XMClib/XMC_Peripheral_Library_v2.1.16/XMCLib/src/xmc_usbd.c ****  *
 743:/opt/XMClib/XMC_Peripheral_Library_v2.1.16/XMCLib/src/xmc_usbd.c ****  * The interrupt handler first checks, which endpoint has caused the interrupt and then
 744:/opt/XMClib/XMC_Peripheral_Library_v2.1.16/XMCLib/src/xmc_usbd.c ****  * determines, which interrupt should be handled.
 745:/opt/XMClib/XMC_Peripheral_Library_v2.1.16/XMCLib/src/xmc_usbd.c ****  */
 746:/opt/XMClib/XMC_Peripheral_Library_v2.1.16/XMCLib/src/xmc_usbd.c **** static void XMC_USBD_lHandleIEPInt(const XMC_USBD_t *const obj) 
 747:/opt/XMClib/XMC_Peripheral_Library_v2.1.16/XMCLib/src/xmc_usbd.c **** {
 748:/opt/XMClib/XMC_Peripheral_Library_v2.1.16/XMCLib/src/xmc_usbd.c ****   XMC_USBD_EP_t *ep;
 749:/opt/XMClib/XMC_Peripheral_Library_v2.1.16/XMCLib/src/xmc_usbd.c ****   daint_data_t daint;
 750:/opt/XMClib/XMC_Peripheral_Library_v2.1.16/XMCLib/src/xmc_usbd.c ****   diepmsk_data_t diepmsk;
 751:/opt/XMClib/XMC_Peripheral_Library_v2.1.16/XMCLib/src/xmc_usbd.c ****   diepint_data_t diepint;
 752:/opt/XMClib/XMC_Peripheral_Library_v2.1.16/XMCLib/src/xmc_usbd.c ****   deptsiz_data_t dieptsiz;
 753:/opt/XMClib/XMC_Peripheral_Library_v2.1.16/XMCLib/src/xmc_usbd.c ****   uint16_t temp;
 754:/opt/XMClib/XMC_Peripheral_Library_v2.1.16/XMCLib/src/xmc_usbd.c ****   uint16_t temp1;
 755:/opt/XMClib/XMC_Peripheral_Library_v2.1.16/XMCLib/src/xmc_usbd.c ****   uint16_t mask;
 756:/opt/XMClib/XMC_Peripheral_Library_v2.1.16/XMCLib/src/xmc_usbd.c ****   uint8_t ep_num;
 757:/opt/XMClib/XMC_Peripheral_Library_v2.1.16/XMCLib/src/xmc_usbd.c ****   uint32_t inepint;
 758:/opt/XMClib/XMC_Peripheral_Library_v2.1.16/XMCLib/src/xmc_usbd.c **** 	
 759:/opt/XMClib/XMC_Peripheral_Library_v2.1.16/XMCLib/src/xmc_usbd.c ****   daint.d32 = xmc_device.device_register->daint;
 760:/opt/XMClib/XMC_Peripheral_Library_v2.1.16/XMCLib/src/xmc_usbd.c ****   
 761:/opt/XMClib/XMC_Peripheral_Library_v2.1.16/XMCLib/src/xmc_usbd.c ****   diepmsk.d32 = xmc_device.device_register->diepmsk;
 762:/opt/XMClib/XMC_Peripheral_Library_v2.1.16/XMCLib/src/xmc_usbd.c ****   
 763:/opt/XMClib/XMC_Peripheral_Library_v2.1.16/XMCLib/src/xmc_usbd.c ****   dieptsiz.d32 = 0U;
 764:/opt/XMClib/XMC_Peripheral_Library_v2.1.16/XMCLib/src/xmc_usbd.c ****   mask = daint.ep.in;
 765:/opt/XMClib/XMC_Peripheral_Library_v2.1.16/XMCLib/src/xmc_usbd.c ****   ep_num = 0U;
 766:/opt/XMClib/XMC_Peripheral_Library_v2.1.16/XMCLib/src/xmc_usbd.c ****   
 767:/opt/XMClib/XMC_Peripheral_Library_v2.1.16/XMCLib/src/xmc_usbd.c ****   while ((uint16_t)mask >> ep_num)
 768:/opt/XMClib/XMC_Peripheral_Library_v2.1.16/XMCLib/src/xmc_usbd.c ****   {
 769:/opt/XMClib/XMC_Peripheral_Library_v2.1.16/XMCLib/src/xmc_usbd.c ****     temp1 = ((uint16_t)mask >> (uint16_t)ep_num);
 770:/opt/XMClib/XMC_Peripheral_Library_v2.1.16/XMCLib/src/xmc_usbd.c ****     temp = (uint16_t)temp1 & (uint16_t)0x1U;
 771:/opt/XMClib/XMC_Peripheral_Library_v2.1.16/XMCLib/src/xmc_usbd.c ****     if ((uint16_t)temp)
 772:/opt/XMClib/XMC_Peripheral_Library_v2.1.16/XMCLib/src/xmc_usbd.c ****     {
 773:/opt/XMClib/XMC_Peripheral_Library_v2.1.16/XMCLib/src/xmc_usbd.c ****       ep = &xmc_device.ep[ep_num];
 774:/opt/XMClib/XMC_Peripheral_Library_v2.1.16/XMCLib/src/xmc_usbd.c **** 			inepint = (uint32_t)xmc_device.endpoint_in_register[ep_num]->diepint;
 775:/opt/XMClib/XMC_Peripheral_Library_v2.1.16/XMCLib/src/xmc_usbd.c ****       diepint.d32 = inepint &
 776:/opt/XMClib/XMC_Peripheral_Library_v2.1.16/XMCLib/src/xmc_usbd.c ****       ((((uint32_t)((uint32_t)xmc_device.device_register->dtknqr4_fifoemptymsk >> ep->address_u.add
 777:/opt/XMClib/XMC_Peripheral_Library_v2.1.16/XMCLib/src/xmc_usbd.c ****                      0x1U) << 7U) | (uint32_t)diepmsk.d32);
 778:/opt/XMClib/XMC_Peripheral_Library_v2.1.16/XMCLib/src/xmc_usbd.c ****       if(obj->usbd_transfer_mode == XMC_USBD_USE_DMA)
 779:/opt/XMClib/XMC_Peripheral_Library_v2.1.16/XMCLib/src/xmc_usbd.c ****       {
 780:/opt/XMClib/XMC_Peripheral_Library_v2.1.16/XMCLib/src/xmc_usbd.c ****         dieptsiz.d32 = xmc_device.endpoint_in_register[ep_num]->dieptsiz;
 781:/opt/XMClib/XMC_Peripheral_Library_v2.1.16/XMCLib/src/xmc_usbd.c ****       }
 782:/opt/XMClib/XMC_Peripheral_Library_v2.1.16/XMCLib/src/xmc_usbd.c ****       if(obj->usbd_transfer_mode == XMC_USBD_USE_FIFO)
 783:/opt/XMClib/XMC_Peripheral_Library_v2.1.16/XMCLib/src/xmc_usbd.c ****       {
 784:/opt/XMClib/XMC_Peripheral_Library_v2.1.16/XMCLib/src/xmc_usbd.c ****         if (diepint.b.emptyintr)
 785:/opt/XMClib/XMC_Peripheral_Library_v2.1.16/XMCLib/src/xmc_usbd.c ****         {
 786:/opt/XMClib/XMC_Peripheral_Library_v2.1.16/XMCLib/src/xmc_usbd.c ****           uint32_t bytes;
 787:/opt/XMClib/XMC_Peripheral_Library_v2.1.16/XMCLib/src/xmc_usbd.c ****           bytes = XMC_USBD_lWriteFifo(ep);
 788:/opt/XMClib/XMC_Peripheral_Library_v2.1.16/XMCLib/src/xmc_usbd.c ****           ep->xferCount += bytes;
 789:/opt/XMClib/XMC_Peripheral_Library_v2.1.16/XMCLib/src/xmc_usbd.c ****           ep->xferBuffer += bytes;
 790:/opt/XMClib/XMC_Peripheral_Library_v2.1.16/XMCLib/src/xmc_usbd.c ****         }
 791:/opt/XMClib/XMC_Peripheral_Library_v2.1.16/XMCLib/src/xmc_usbd.c ****       }
 792:/opt/XMClib/XMC_Peripheral_Library_v2.1.16/XMCLib/src/xmc_usbd.c ****       if (diepint.b.xfercompl)
 793:/opt/XMClib/XMC_Peripheral_Library_v2.1.16/XMCLib/src/xmc_usbd.c ****       {
 794:/opt/XMClib/XMC_Peripheral_Library_v2.1.16/XMCLib/src/xmc_usbd.c ****         if(obj->usbd_transfer_mode == XMC_USBD_USE_DMA)
 795:/opt/XMClib/XMC_Peripheral_Library_v2.1.16/XMCLib/src/xmc_usbd.c ****         {
 796:/opt/XMClib/XMC_Peripheral_Library_v2.1.16/XMCLib/src/xmc_usbd.c ****           /* update xfer values */
 797:/opt/XMClib/XMC_Peripheral_Library_v2.1.16/XMCLib/src/xmc_usbd.c ****           if ((dieptsiz.b.pktcnt == 0U) && (dieptsiz.b.xfersize == 0U))
 798:/opt/XMClib/XMC_Peripheral_Library_v2.1.16/XMCLib/src/xmc_usbd.c ****           {
 799:/opt/XMClib/XMC_Peripheral_Library_v2.1.16/XMCLib/src/xmc_usbd.c ****             uint32_t Bytes = ep->xferLength - ep->xferCount;
 800:/opt/XMClib/XMC_Peripheral_Library_v2.1.16/XMCLib/src/xmc_usbd.c ****             ep->xferCount += Bytes;
 801:/opt/XMClib/XMC_Peripheral_Library_v2.1.16/XMCLib/src/xmc_usbd.c ****             ep->xferBuffer += Bytes;
 802:/opt/XMClib/XMC_Peripheral_Library_v2.1.16/XMCLib/src/xmc_usbd.c ****           }
 803:/opt/XMClib/XMC_Peripheral_Library_v2.1.16/XMCLib/src/xmc_usbd.c ****         }
 804:/opt/XMClib/XMC_Peripheral_Library_v2.1.16/XMCLib/src/xmc_usbd.c ****         if (ep->xferTotal==ep->xferLength)
 805:/opt/XMClib/XMC_Peripheral_Library_v2.1.16/XMCLib/src/xmc_usbd.c ****         {
 806:/opt/XMClib/XMC_Peripheral_Library_v2.1.16/XMCLib/src/xmc_usbd.c ****           ep->inInUse = 0U;
 807:/opt/XMClib/XMC_Peripheral_Library_v2.1.16/XMCLib/src/xmc_usbd.c ****           if(obj->usbd_transfer_mode == XMC_USBD_USE_FIFO)
 808:/opt/XMClib/XMC_Peripheral_Library_v2.1.16/XMCLib/src/xmc_usbd.c ****           {
 809:/opt/XMClib/XMC_Peripheral_Library_v2.1.16/XMCLib/src/xmc_usbd.c ****             /* mask fifo empty interrupt */
 810:/opt/XMClib/XMC_Peripheral_Library_v2.1.16/XMCLib/src/xmc_usbd.c ****             xmc_device.device_register->dtknqr4_fifoemptymsk =
 811:/opt/XMClib/XMC_Peripheral_Library_v2.1.16/XMCLib/src/xmc_usbd.c ****             (uint32_t)(xmc_device.device_register->dtknqr4_fifoemptymsk & ~(((uint32_t)1U << ep_num
 812:/opt/XMClib/XMC_Peripheral_Library_v2.1.16/XMCLib/src/xmc_usbd.c ****           }
 813:/opt/XMClib/XMC_Peripheral_Library_v2.1.16/XMCLib/src/xmc_usbd.c ****           xmc_device.EndpointEvent_cb(0x80U | ep_num,XMC_USBD_EP_EVENT_IN);
 814:/opt/XMClib/XMC_Peripheral_Library_v2.1.16/XMCLib/src/xmc_usbd.c ****         }
 815:/opt/XMClib/XMC_Peripheral_Library_v2.1.16/XMCLib/src/xmc_usbd.c ****         else
 816:/opt/XMClib/XMC_Peripheral_Library_v2.1.16/XMCLib/src/xmc_usbd.c ****         {
 817:/opt/XMClib/XMC_Peripheral_Library_v2.1.16/XMCLib/src/xmc_usbd.c ****           /* start next step of transfer */
 818:/opt/XMClib/XMC_Peripheral_Library_v2.1.16/XMCLib/src/xmc_usbd.c ****           XMC_USBD_lStartWriteXfer(ep);
 819:/opt/XMClib/XMC_Peripheral_Library_v2.1.16/XMCLib/src/xmc_usbd.c ****         }
 820:/opt/XMClib/XMC_Peripheral_Library_v2.1.16/XMCLib/src/xmc_usbd.c **** 
 821:/opt/XMClib/XMC_Peripheral_Library_v2.1.16/XMCLib/src/xmc_usbd.c ****       }
 822:/opt/XMClib/XMC_Peripheral_Library_v2.1.16/XMCLib/src/xmc_usbd.c **** 
 823:/opt/XMClib/XMC_Peripheral_Library_v2.1.16/XMCLib/src/xmc_usbd.c ****       XMC_USBD_ClearEventINEP((uint32_t)diepint.d32,ep_num);
 824:/opt/XMClib/XMC_Peripheral_Library_v2.1.16/XMCLib/src/xmc_usbd.c ****     }
 825:/opt/XMClib/XMC_Peripheral_Library_v2.1.16/XMCLib/src/xmc_usbd.c ****     ep_num++;
 826:/opt/XMClib/XMC_Peripheral_Library_v2.1.16/XMCLib/src/xmc_usbd.c ****   }
 827:/opt/XMClib/XMC_Peripheral_Library_v2.1.16/XMCLib/src/xmc_usbd.c ****   XMC_USBD_ClearEvent(XMC_USBD_EVENT_INEP);
 828:/opt/XMClib/XMC_Peripheral_Library_v2.1.16/XMCLib/src/xmc_usbd.c **** }
 829:/opt/XMClib/XMC_Peripheral_Library_v2.1.16/XMCLib/src/xmc_usbd.c **** 
 830:/opt/XMClib/XMC_Peripheral_Library_v2.1.16/XMCLib/src/xmc_usbd.c **** /**
 831:/opt/XMClib/XMC_Peripheral_Library_v2.1.16/XMCLib/src/xmc_usbd.c ****  * @brief RX Fifo interrupt handler
 832:/opt/XMClib/XMC_Peripheral_Library_v2.1.16/XMCLib/src/xmc_usbd.c ****  *
 833:/opt/XMClib/XMC_Peripheral_Library_v2.1.16/XMCLib/src/xmc_usbd.c ****  * This function handles the interrupt, when the rx fifo is not empty anymore.
 834:/opt/XMClib/XMC_Peripheral_Library_v2.1.16/XMCLib/src/xmc_usbd.c ****  */
 835:/opt/XMClib/XMC_Peripheral_Library_v2.1.16/XMCLib/src/xmc_usbd.c **** static void XMC_USBD_lHandleRxFLvl(void) 
 836:/opt/XMClib/XMC_Peripheral_Library_v2.1.16/XMCLib/src/xmc_usbd.c **** {
 837:/opt/XMClib/XMC_Peripheral_Library_v2.1.16/XMCLib/src/xmc_usbd.c ****   device_grxsts_data_t data;	
 838:/opt/XMClib/XMC_Peripheral_Library_v2.1.16/XMCLib/src/xmc_usbd.c ****   data.d32 = xmc_device.global_register->grxstsp;
 839:/opt/XMClib/XMC_Peripheral_Library_v2.1.16/XMCLib/src/xmc_usbd.c **** 
 840:/opt/XMClib/XMC_Peripheral_Library_v2.1.16/XMCLib/src/xmc_usbd.c ****   switch (data.b.pktsts)
 841:/opt/XMClib/XMC_Peripheral_Library_v2.1.16/XMCLib/src/xmc_usbd.c **** 	{
 842:/opt/XMClib/XMC_Peripheral_Library_v2.1.16/XMCLib/src/xmc_usbd.c ****     case XMC_USBD_GRXSTS_PKTSTS_GOUTNAK:
 843:/opt/XMClib/XMC_Peripheral_Library_v2.1.16/XMCLib/src/xmc_usbd.c ****       break;
 844:/opt/XMClib/XMC_Peripheral_Library_v2.1.16/XMCLib/src/xmc_usbd.c ****     case XMC_USBD_GRXSTS_PKTSTS_OUTCMPL:
 845:/opt/XMClib/XMC_Peripheral_Library_v2.1.16/XMCLib/src/xmc_usbd.c ****       break;
 846:/opt/XMClib/XMC_Peripheral_Library_v2.1.16/XMCLib/src/xmc_usbd.c ****     case XMC_USBD_GRXSTS_PKTSTS_OUTDATA:
 847:/opt/XMClib/XMC_Peripheral_Library_v2.1.16/XMCLib/src/xmc_usbd.c ****       XMC_USBD_lReadFifo((uint32_t)data.b.epnum,(uint32_t)data.b.bcnt);
 848:/opt/XMClib/XMC_Peripheral_Library_v2.1.16/XMCLib/src/xmc_usbd.c ****       break;
 849:/opt/XMClib/XMC_Peripheral_Library_v2.1.16/XMCLib/src/xmc_usbd.c ****     case XMC_USBD_GRXSTS_PKTSTS_SETUP:
 850:/opt/XMClib/XMC_Peripheral_Library_v2.1.16/XMCLib/src/xmc_usbd.c ****       XMC_USBD_lReadFifo((uint32_t)data.b.epnum,(uint32_t)data.b.bcnt);
 851:/opt/XMClib/XMC_Peripheral_Library_v2.1.16/XMCLib/src/xmc_usbd.c ****       break;
 852:/opt/XMClib/XMC_Peripheral_Library_v2.1.16/XMCLib/src/xmc_usbd.c ****     case XMC_USBD_GRXSTS_PKTSTS_SETUPCMPL:
 853:/opt/XMClib/XMC_Peripheral_Library_v2.1.16/XMCLib/src/xmc_usbd.c ****       break;
 854:/opt/XMClib/XMC_Peripheral_Library_v2.1.16/XMCLib/src/xmc_usbd.c ****     default:
 855:/opt/XMClib/XMC_Peripheral_Library_v2.1.16/XMCLib/src/xmc_usbd.c ****       break;
 856:/opt/XMClib/XMC_Peripheral_Library_v2.1.16/XMCLib/src/xmc_usbd.c **** 	}
 857:/opt/XMClib/XMC_Peripheral_Library_v2.1.16/XMCLib/src/xmc_usbd.c ****   /* no need to clear */
 858:/opt/XMClib/XMC_Peripheral_Library_v2.1.16/XMCLib/src/xmc_usbd.c **** }
 859:/opt/XMClib/XMC_Peripheral_Library_v2.1.16/XMCLib/src/xmc_usbd.c **** 
 860:/opt/XMClib/XMC_Peripheral_Library_v2.1.16/XMCLib/src/xmc_usbd.c **** /**
 861:/opt/XMClib/XMC_Peripheral_Library_v2.1.16/XMCLib/src/xmc_usbd.c ****  * @brief Global interrupt handler
 862:/opt/XMClib/XMC_Peripheral_Library_v2.1.16/XMCLib/src/xmc_usbd.c ****  *
 863:/opt/XMClib/XMC_Peripheral_Library_v2.1.16/XMCLib/src/xmc_usbd.c ****  * The handler first checks, which global interrupt has caused the interrupt
 864:/opt/XMClib/XMC_Peripheral_Library_v2.1.16/XMCLib/src/xmc_usbd.c ****  * and then dispatches interrupt to the corresponding sub-handler.
 865:/opt/XMClib/XMC_Peripheral_Library_v2.1.16/XMCLib/src/xmc_usbd.c ****  */
 866:/opt/XMClib/XMC_Peripheral_Library_v2.1.16/XMCLib/src/xmc_usbd.c **** void XMC_USBD_IRQHandler(const XMC_USBD_t *const obj) 
 867:/opt/XMClib/XMC_Peripheral_Library_v2.1.16/XMCLib/src/xmc_usbd.c **** {
 868:/opt/XMClib/XMC_Peripheral_Library_v2.1.16/XMCLib/src/xmc_usbd.c ****   gintmsk_data_t gintmsk;
 869:/opt/XMClib/XMC_Peripheral_Library_v2.1.16/XMCLib/src/xmc_usbd.c ****   gintsts_data_t data;
 870:/opt/XMClib/XMC_Peripheral_Library_v2.1.16/XMCLib/src/xmc_usbd.c **** 	
 871:/opt/XMClib/XMC_Peripheral_Library_v2.1.16/XMCLib/src/xmc_usbd.c ****   gintmsk.d32 = xmc_device.global_register->gintmsk;
 872:/opt/XMClib/XMC_Peripheral_Library_v2.1.16/XMCLib/src/xmc_usbd.c ****   data.d32 = xmc_device.global_register->gintsts & gintmsk.d32;
 873:/opt/XMClib/XMC_Peripheral_Library_v2.1.16/XMCLib/src/xmc_usbd.c **** 	
 874:/opt/XMClib/XMC_Peripheral_Library_v2.1.16/XMCLib/src/xmc_usbd.c ****   if (data.b.sofintr)
 875:/opt/XMClib/XMC_Peripheral_Library_v2.1.16/XMCLib/src/xmc_usbd.c ****   {
 876:/opt/XMClib/XMC_Peripheral_Library_v2.1.16/XMCLib/src/xmc_usbd.c ****     xmc_device.DeviceEvent_cb(XMC_USBD_EVENT_SOF);
 877:/opt/XMClib/XMC_Peripheral_Library_v2.1.16/XMCLib/src/xmc_usbd.c ****     XMC_USBD_ClearEvent(XMC_USBD_EVENT_SOF);
 878:/opt/XMClib/XMC_Peripheral_Library_v2.1.16/XMCLib/src/xmc_usbd.c ****   }
 879:/opt/XMClib/XMC_Peripheral_Library_v2.1.16/XMCLib/src/xmc_usbd.c ****   if(obj->usbd_transfer_mode == XMC_USBD_USE_FIFO)
 880:/opt/XMClib/XMC_Peripheral_Library_v2.1.16/XMCLib/src/xmc_usbd.c ****   {
 881:/opt/XMClib/XMC_Peripheral_Library_v2.1.16/XMCLib/src/xmc_usbd.c ****     if (data.b.rxstsqlvl)
 882:/opt/XMClib/XMC_Peripheral_Library_v2.1.16/XMCLib/src/xmc_usbd.c ****     {
 883:/opt/XMClib/XMC_Peripheral_Library_v2.1.16/XMCLib/src/xmc_usbd.c ****       /* Masked that interrupt so its only done once */
 884:/opt/XMClib/XMC_Peripheral_Library_v2.1.16/XMCLib/src/xmc_usbd.c ****       gintmsk.b.rxstsqlvl = 0U;
 885:/opt/XMClib/XMC_Peripheral_Library_v2.1.16/XMCLib/src/xmc_usbd.c ****       xmc_device.global_register->gintmsk = gintmsk.d32;
 886:/opt/XMClib/XMC_Peripheral_Library_v2.1.16/XMCLib/src/xmc_usbd.c ****       XMC_USBD_lHandleRxFLvl(); /* handle the interrupt */
 887:/opt/XMClib/XMC_Peripheral_Library_v2.1.16/XMCLib/src/xmc_usbd.c ****       gintmsk.b.rxstsqlvl = 1U;
 888:/opt/XMClib/XMC_Peripheral_Library_v2.1.16/XMCLib/src/xmc_usbd.c ****       xmc_device.global_register->gintmsk = gintmsk.d32;
 889:/opt/XMClib/XMC_Peripheral_Library_v2.1.16/XMCLib/src/xmc_usbd.c ****     }
 890:/opt/XMClib/XMC_Peripheral_Library_v2.1.16/XMCLib/src/xmc_usbd.c ****   }
 891:/opt/XMClib/XMC_Peripheral_Library_v2.1.16/XMCLib/src/xmc_usbd.c ****   if (data.b.erlysuspend)
 892:/opt/XMClib/XMC_Peripheral_Library_v2.1.16/XMCLib/src/xmc_usbd.c ****   {
 893:/opt/XMClib/XMC_Peripheral_Library_v2.1.16/XMCLib/src/xmc_usbd.c ****     XMC_USBD_ClearEvent(XMC_USBD_EVENT_EARLYSUSPEND);
 894:/opt/XMClib/XMC_Peripheral_Library_v2.1.16/XMCLib/src/xmc_usbd.c ****   }
 895:/opt/XMClib/XMC_Peripheral_Library_v2.1.16/XMCLib/src/xmc_usbd.c ****   if (data.b.usbsuspend)
 896:/opt/XMClib/XMC_Peripheral_Library_v2.1.16/XMCLib/src/xmc_usbd.c ****   {
 897:/opt/XMClib/XMC_Peripheral_Library_v2.1.16/XMCLib/src/xmc_usbd.c ****     xmc_device.DeviceEvent_cb(XMC_USBD_EVENT_SUSPEND);
 898:/opt/XMClib/XMC_Peripheral_Library_v2.1.16/XMCLib/src/xmc_usbd.c ****     XMC_USBD_ClearEvent(XMC_USBD_EVENT_SUSPEND);
 899:/opt/XMClib/XMC_Peripheral_Library_v2.1.16/XMCLib/src/xmc_usbd.c ****   }
 900:/opt/XMClib/XMC_Peripheral_Library_v2.1.16/XMCLib/src/xmc_usbd.c ****   if (data.b.wkupintr)
 901:/opt/XMClib/XMC_Peripheral_Library_v2.1.16/XMCLib/src/xmc_usbd.c ****   {
 902:/opt/XMClib/XMC_Peripheral_Library_v2.1.16/XMCLib/src/xmc_usbd.c ****     xmc_device.DeviceEvent_cb(XMC_USBD_EVENT_REMOTE_WAKEUP);
 903:/opt/XMClib/XMC_Peripheral_Library_v2.1.16/XMCLib/src/xmc_usbd.c ****     XMC_USBD_ClearEvent(XMC_USBD_EVENT_REMOTE_WAKEUP);
 904:/opt/XMClib/XMC_Peripheral_Library_v2.1.16/XMCLib/src/xmc_usbd.c ****   }
 905:/opt/XMClib/XMC_Peripheral_Library_v2.1.16/XMCLib/src/xmc_usbd.c ****   if (data.b.sessreqintr)
 906:/opt/XMClib/XMC_Peripheral_Library_v2.1.16/XMCLib/src/xmc_usbd.c ****   {
 907:/opt/XMClib/XMC_Peripheral_Library_v2.1.16/XMCLib/src/xmc_usbd.c ****     xmc_device.IsPowered = 1U;
 908:/opt/XMClib/XMC_Peripheral_Library_v2.1.16/XMCLib/src/xmc_usbd.c ****     xmc_device.DeviceEvent_cb(XMC_USBD_EVENT_POWER_ON);
 909:/opt/XMClib/XMC_Peripheral_Library_v2.1.16/XMCLib/src/xmc_usbd.c ****     XMC_USBD_ClearEvent(XMC_USBD_EVENT_POWER_ON);
 910:/opt/XMClib/XMC_Peripheral_Library_v2.1.16/XMCLib/src/xmc_usbd.c ****   }
 911:/opt/XMClib/XMC_Peripheral_Library_v2.1.16/XMCLib/src/xmc_usbd.c ****   if (data.b.usbreset)
 912:/opt/XMClib/XMC_Peripheral_Library_v2.1.16/XMCLib/src/xmc_usbd.c ****   {
 913:/opt/XMClib/XMC_Peripheral_Library_v2.1.16/XMCLib/src/xmc_usbd.c ****     XMC_USBD_lHandleUSBReset(obj);
 914:/opt/XMClib/XMC_Peripheral_Library_v2.1.16/XMCLib/src/xmc_usbd.c ****   }
 915:/opt/XMClib/XMC_Peripheral_Library_v2.1.16/XMCLib/src/xmc_usbd.c ****   if (data.b.enumdone)
 916:/opt/XMClib/XMC_Peripheral_Library_v2.1.16/XMCLib/src/xmc_usbd.c ****   {
 917:/opt/XMClib/XMC_Peripheral_Library_v2.1.16/XMCLib/src/xmc_usbd.c ****     XMC_USBD_lHandleEnumDone();
 918:/opt/XMClib/XMC_Peripheral_Library_v2.1.16/XMCLib/src/xmc_usbd.c ****   }
 919:/opt/XMClib/XMC_Peripheral_Library_v2.1.16/XMCLib/src/xmc_usbd.c ****   if (data.b.inepint)
 920:/opt/XMClib/XMC_Peripheral_Library_v2.1.16/XMCLib/src/xmc_usbd.c ****   {
 921:/opt/XMClib/XMC_Peripheral_Library_v2.1.16/XMCLib/src/xmc_usbd.c ****     XMC_USBD_lHandleIEPInt(obj);
 922:/opt/XMClib/XMC_Peripheral_Library_v2.1.16/XMCLib/src/xmc_usbd.c ****   }
 923:/opt/XMClib/XMC_Peripheral_Library_v2.1.16/XMCLib/src/xmc_usbd.c ****   if (data.b.outepintr)
 924:/opt/XMClib/XMC_Peripheral_Library_v2.1.16/XMCLib/src/xmc_usbd.c ****   {
 925:/opt/XMClib/XMC_Peripheral_Library_v2.1.16/XMCLib/src/xmc_usbd.c **** 		XMC_USBD_lHandleOEPInt(obj);
 926:/opt/XMClib/XMC_Peripheral_Library_v2.1.16/XMCLib/src/xmc_usbd.c ****   }
 927:/opt/XMClib/XMC_Peripheral_Library_v2.1.16/XMCLib/src/xmc_usbd.c **** 	if (data.b.otgintr)
 928:/opt/XMClib/XMC_Peripheral_Library_v2.1.16/XMCLib/src/xmc_usbd.c ****   {
 929:/opt/XMClib/XMC_Peripheral_Library_v2.1.16/XMCLib/src/xmc_usbd.c **** 	  XMC_USBD_lHandleOTGInt();
 930:/opt/XMClib/XMC_Peripheral_Library_v2.1.16/XMCLib/src/xmc_usbd.c ****   }
 931:/opt/XMClib/XMC_Peripheral_Library_v2.1.16/XMCLib/src/xmc_usbd.c **** 
 932:/opt/XMClib/XMC_Peripheral_Library_v2.1.16/XMCLib/src/xmc_usbd.c **** }
 933:/opt/XMClib/XMC_Peripheral_Library_v2.1.16/XMCLib/src/xmc_usbd.c **** 
 934:/opt/XMClib/XMC_Peripheral_Library_v2.1.16/XMCLib/src/xmc_usbd.c **** 
 935:/opt/XMClib/XMC_Peripheral_Library_v2.1.16/XMCLib/src/xmc_usbd.c **** /*******************************************************************************
 936:/opt/XMClib/XMC_Peripheral_Library_v2.1.16/XMCLib/src/xmc_usbd.c ****  * API IMPLEMENTATION
 937:/opt/XMClib/XMC_Peripheral_Library_v2.1.16/XMCLib/src/xmc_usbd.c ****  *******************************************************************************/
 938:/opt/XMClib/XMC_Peripheral_Library_v2.1.16/XMCLib/src/xmc_usbd.c **** /**
 939:/opt/XMClib/XMC_Peripheral_Library_v2.1.16/XMCLib/src/xmc_usbd.c ****  * Enables the USB0 module
 940:/opt/XMClib/XMC_Peripheral_Library_v2.1.16/XMCLib/src/xmc_usbd.c ****  **/
 941:/opt/XMClib/XMC_Peripheral_Library_v2.1.16/XMCLib/src/xmc_usbd.c **** void XMC_USBD_Enable(void) 
 942:/opt/XMClib/XMC_Peripheral_Library_v2.1.16/XMCLib/src/xmc_usbd.c **** {
 943:/opt/XMClib/XMC_Peripheral_Library_v2.1.16/XMCLib/src/xmc_usbd.c **** #if defined(CLOCK_GATING_SUPPORTED)
 944:/opt/XMClib/XMC_Peripheral_Library_v2.1.16/XMCLib/src/xmc_usbd.c ****   XMC_SCU_CLOCK_UngatePeripheralClock(XMC_SCU_PERIPHERAL_CLOCK_USB0);
 945:/opt/XMClib/XMC_Peripheral_Library_v2.1.16/XMCLib/src/xmc_usbd.c **** #endif
 946:/opt/XMClib/XMC_Peripheral_Library_v2.1.16/XMCLib/src/xmc_usbd.c ****   /* Reset and power up */
 947:/opt/XMClib/XMC_Peripheral_Library_v2.1.16/XMCLib/src/xmc_usbd.c ****   XMC_SCU_RESET_DeassertPeripheralReset(XMC_SCU_PERIPHERAL_RESET_USB0);
 948:/opt/XMClib/XMC_Peripheral_Library_v2.1.16/XMCLib/src/xmc_usbd.c ****   XMC_SCU_POWER_EnableUsb();
 949:/opt/XMClib/XMC_Peripheral_Library_v2.1.16/XMCLib/src/xmc_usbd.c **** }
 950:/opt/XMClib/XMC_Peripheral_Library_v2.1.16/XMCLib/src/xmc_usbd.c **** 
 951:/opt/XMClib/XMC_Peripheral_Library_v2.1.16/XMCLib/src/xmc_usbd.c **** /**
 952:/opt/XMClib/XMC_Peripheral_Library_v2.1.16/XMCLib/src/xmc_usbd.c ****  * Disables the USB0 module
 953:/opt/XMClib/XMC_Peripheral_Library_v2.1.16/XMCLib/src/xmc_usbd.c ****  **/
 954:/opt/XMClib/XMC_Peripheral_Library_v2.1.16/XMCLib/src/xmc_usbd.c **** void XMC_USBD_Disable(void) 
 955:/opt/XMClib/XMC_Peripheral_Library_v2.1.16/XMCLib/src/xmc_usbd.c **** {
 956:/opt/XMClib/XMC_Peripheral_Library_v2.1.16/XMCLib/src/xmc_usbd.c ****   /* Clear Reset and power up */
 957:/opt/XMClib/XMC_Peripheral_Library_v2.1.16/XMCLib/src/xmc_usbd.c ****   XMC_SCU_RESET_AssertPeripheralReset(XMC_SCU_PERIPHERAL_RESET_USB0);
 958:/opt/XMClib/XMC_Peripheral_Library_v2.1.16/XMCLib/src/xmc_usbd.c **** #if defined(CLOCK_GATING_SUPPORTED)
 959:/opt/XMClib/XMC_Peripheral_Library_v2.1.16/XMCLib/src/xmc_usbd.c ****   XMC_SCU_CLOCK_GatePeripheralClock(XMC_SCU_PERIPHERAL_CLOCK_USB0);
 960:/opt/XMClib/XMC_Peripheral_Library_v2.1.16/XMCLib/src/xmc_usbd.c **** #endif
 961:/opt/XMClib/XMC_Peripheral_Library_v2.1.16/XMCLib/src/xmc_usbd.c ****   XMC_SCU_POWER_DisableUsb();
 962:/opt/XMClib/XMC_Peripheral_Library_v2.1.16/XMCLib/src/xmc_usbd.c **** }
 963:/opt/XMClib/XMC_Peripheral_Library_v2.1.16/XMCLib/src/xmc_usbd.c **** 
 964:/opt/XMClib/XMC_Peripheral_Library_v2.1.16/XMCLib/src/xmc_usbd.c **** /**
 965:/opt/XMClib/XMC_Peripheral_Library_v2.1.16/XMCLib/src/xmc_usbd.c ****  * Clear the USB device event
 966:/opt/XMClib/XMC_Peripheral_Library_v2.1.16/XMCLib/src/xmc_usbd.c ****  **/
 967:/opt/XMClib/XMC_Peripheral_Library_v2.1.16/XMCLib/src/xmc_usbd.c **** void XMC_USBD_ClearEvent(const XMC_USBD_EVENT_t event) 
 968:/opt/XMClib/XMC_Peripheral_Library_v2.1.16/XMCLib/src/xmc_usbd.c **** {
 969:/opt/XMClib/XMC_Peripheral_Library_v2.1.16/XMCLib/src/xmc_usbd.c ****   gintsts_data_t clear;
 970:/opt/XMClib/XMC_Peripheral_Library_v2.1.16/XMCLib/src/xmc_usbd.c ****   clear.d32 = 0U;
 971:/opt/XMClib/XMC_Peripheral_Library_v2.1.16/XMCLib/src/xmc_usbd.c ****   switch(event)
 972:/opt/XMClib/XMC_Peripheral_Library_v2.1.16/XMCLib/src/xmc_usbd.c ****   {
 973:/opt/XMClib/XMC_Peripheral_Library_v2.1.16/XMCLib/src/xmc_usbd.c ****     case (XMC_USBD_EVENT_POWER_ON):
 974:/opt/XMClib/XMC_Peripheral_Library_v2.1.16/XMCLib/src/xmc_usbd.c **** 	  clear.b.sessreqintr = 1U;
 975:/opt/XMClib/XMC_Peripheral_Library_v2.1.16/XMCLib/src/xmc_usbd.c **** 	  break;
 976:/opt/XMClib/XMC_Peripheral_Library_v2.1.16/XMCLib/src/xmc_usbd.c ****     case (XMC_USBD_EVENT_RESET):
 977:/opt/XMClib/XMC_Peripheral_Library_v2.1.16/XMCLib/src/xmc_usbd.c **** 	  clear.b.usbreset = 1U;
 978:/opt/XMClib/XMC_Peripheral_Library_v2.1.16/XMCLib/src/xmc_usbd.c **** 	  break;
 979:/opt/XMClib/XMC_Peripheral_Library_v2.1.16/XMCLib/src/xmc_usbd.c ****     case (XMC_USBD_EVENT_SUSPEND):
 980:/opt/XMClib/XMC_Peripheral_Library_v2.1.16/XMCLib/src/xmc_usbd.c **** 	  clear.b.usbsuspend = 1U;
 981:/opt/XMClib/XMC_Peripheral_Library_v2.1.16/XMCLib/src/xmc_usbd.c **** 	  break;
 982:/opt/XMClib/XMC_Peripheral_Library_v2.1.16/XMCLib/src/xmc_usbd.c ****     case (XMC_USBD_EVENT_RESUME):
 983:/opt/XMClib/XMC_Peripheral_Library_v2.1.16/XMCLib/src/xmc_usbd.c **** 	  clear.b.wkupintr = 1U;
 984:/opt/XMClib/XMC_Peripheral_Library_v2.1.16/XMCLib/src/xmc_usbd.c **** 	  break;
 985:/opt/XMClib/XMC_Peripheral_Library_v2.1.16/XMCLib/src/xmc_usbd.c ****     case (XMC_USBD_EVENT_REMOTE_WAKEUP):
 986:/opt/XMClib/XMC_Peripheral_Library_v2.1.16/XMCLib/src/xmc_usbd.c **** 	  clear.b.wkupintr = 1U;
 987:/opt/XMClib/XMC_Peripheral_Library_v2.1.16/XMCLib/src/xmc_usbd.c **** 	  break;
 988:/opt/XMClib/XMC_Peripheral_Library_v2.1.16/XMCLib/src/xmc_usbd.c ****     case (XMC_USBD_EVENT_SOF):
 989:/opt/XMClib/XMC_Peripheral_Library_v2.1.16/XMCLib/src/xmc_usbd.c **** 	  clear.b.sofintr = 1U;
 990:/opt/XMClib/XMC_Peripheral_Library_v2.1.16/XMCLib/src/xmc_usbd.c **** 	  break;
 991:/opt/XMClib/XMC_Peripheral_Library_v2.1.16/XMCLib/src/xmc_usbd.c ****     case (XMC_USBD_EVENT_EARLYSUSPEND):
 992:/opt/XMClib/XMC_Peripheral_Library_v2.1.16/XMCLib/src/xmc_usbd.c **** 	  clear.b.erlysuspend = 1U;
 993:/opt/XMClib/XMC_Peripheral_Library_v2.1.16/XMCLib/src/xmc_usbd.c **** 	  break;
 994:/opt/XMClib/XMC_Peripheral_Library_v2.1.16/XMCLib/src/xmc_usbd.c ****     case (XMC_USBD_EVENT_ENUMDONE):
 995:/opt/XMClib/XMC_Peripheral_Library_v2.1.16/XMCLib/src/xmc_usbd.c **** 	  clear.b.enumdone = 1U;
 996:/opt/XMClib/XMC_Peripheral_Library_v2.1.16/XMCLib/src/xmc_usbd.c **** 	  break;
 997:/opt/XMClib/XMC_Peripheral_Library_v2.1.16/XMCLib/src/xmc_usbd.c ****     case (XMC_USBD_EVENT_OUTEP):
 998:/opt/XMClib/XMC_Peripheral_Library_v2.1.16/XMCLib/src/xmc_usbd.c **** 	  clear.b.outepintr = 1U;
 999:/opt/XMClib/XMC_Peripheral_Library_v2.1.16/XMCLib/src/xmc_usbd.c **** 	  break;
1000:/opt/XMClib/XMC_Peripheral_Library_v2.1.16/XMCLib/src/xmc_usbd.c **** 		default:
1001:/opt/XMClib/XMC_Peripheral_Library_v2.1.16/XMCLib/src/xmc_usbd.c **** 		break;
1002:/opt/XMClib/XMC_Peripheral_Library_v2.1.16/XMCLib/src/xmc_usbd.c **** 	}
1003:/opt/XMClib/XMC_Peripheral_Library_v2.1.16/XMCLib/src/xmc_usbd.c **** 	xmc_device.global_register->gintsts = clear.d32;
1004:/opt/XMClib/XMC_Peripheral_Library_v2.1.16/XMCLib/src/xmc_usbd.c **** }
1005:/opt/XMClib/XMC_Peripheral_Library_v2.1.16/XMCLib/src/xmc_usbd.c **** 
1006:/opt/XMClib/XMC_Peripheral_Library_v2.1.16/XMCLib/src/xmc_usbd.c **** /**
1007:/opt/XMClib/XMC_Peripheral_Library_v2.1.16/XMCLib/src/xmc_usbd.c ****  * Clear the USB OTG events
1008:/opt/XMClib/XMC_Peripheral_Library_v2.1.16/XMCLib/src/xmc_usbd.c ****  **/
1009:/opt/XMClib/XMC_Peripheral_Library_v2.1.16/XMCLib/src/xmc_usbd.c **** static void XMC_USBD_lClearEventOTG(uint32_t event)
1010:/opt/XMClib/XMC_Peripheral_Library_v2.1.16/XMCLib/src/xmc_usbd.c **** {
1011:/opt/XMClib/XMC_Peripheral_Library_v2.1.16/XMCLib/src/xmc_usbd.c ****   gotgint_data_t clear = { .d32 = 0U};
1012:/opt/XMClib/XMC_Peripheral_Library_v2.1.16/XMCLib/src/xmc_usbd.c ****   clear.d32 = event;
1013:/opt/XMClib/XMC_Peripheral_Library_v2.1.16/XMCLib/src/xmc_usbd.c ****   xmc_device.global_register->gotgint = clear.d32;
1014:/opt/XMClib/XMC_Peripheral_Library_v2.1.16/XMCLib/src/xmc_usbd.c **** }
1015:/opt/XMClib/XMC_Peripheral_Library_v2.1.16/XMCLib/src/xmc_usbd.c **** 
1016:/opt/XMClib/XMC_Peripheral_Library_v2.1.16/XMCLib/src/xmc_usbd.c **** /**
1017:/opt/XMClib/XMC_Peripheral_Library_v2.1.16/XMCLib/src/xmc_usbd.c ****  * Clear the USB IN EP events
1018:/opt/XMClib/XMC_Peripheral_Library_v2.1.16/XMCLib/src/xmc_usbd.c ****  **/
1019:/opt/XMClib/XMC_Peripheral_Library_v2.1.16/XMCLib/src/xmc_usbd.c **** void XMC_USBD_ClearEventINEP(uint32_t event,const uint8_t ep_num)
1020:/opt/XMClib/XMC_Peripheral_Library_v2.1.16/XMCLib/src/xmc_usbd.c **** {
1021:/opt/XMClib/XMC_Peripheral_Library_v2.1.16/XMCLib/src/xmc_usbd.c ****   diepint_data_t clear;
1022:/opt/XMClib/XMC_Peripheral_Library_v2.1.16/XMCLib/src/xmc_usbd.c ****   clear.d32 = event;
1023:/opt/XMClib/XMC_Peripheral_Library_v2.1.16/XMCLib/src/xmc_usbd.c ****   xmc_device.endpoint_in_register[ep_num]->diepint = clear.d32;
1024:/opt/XMClib/XMC_Peripheral_Library_v2.1.16/XMCLib/src/xmc_usbd.c **** }
1025:/opt/XMClib/XMC_Peripheral_Library_v2.1.16/XMCLib/src/xmc_usbd.c **** 
1026:/opt/XMClib/XMC_Peripheral_Library_v2.1.16/XMCLib/src/xmc_usbd.c **** /**
1027:/opt/XMClib/XMC_Peripheral_Library_v2.1.16/XMCLib/src/xmc_usbd.c ****  * Clear the USB OUT EP events
1028:/opt/XMClib/XMC_Peripheral_Library_v2.1.16/XMCLib/src/xmc_usbd.c ****  **/
1029:/opt/XMClib/XMC_Peripheral_Library_v2.1.16/XMCLib/src/xmc_usbd.c **** void XMC_USBD_ClearEventOUTEP(uint32_t event,const uint8_t ep_num)
1030:/opt/XMClib/XMC_Peripheral_Library_v2.1.16/XMCLib/src/xmc_usbd.c **** {
1031:/opt/XMClib/XMC_Peripheral_Library_v2.1.16/XMCLib/src/xmc_usbd.c ****   doepint_data_t clear;
1032:/opt/XMClib/XMC_Peripheral_Library_v2.1.16/XMCLib/src/xmc_usbd.c ****   clear.d32 = event;
1033:/opt/XMClib/XMC_Peripheral_Library_v2.1.16/XMCLib/src/xmc_usbd.c ****   xmc_device.endpoint_out_register[ep_num]->doepint = clear.d32;
1034:/opt/XMClib/XMC_Peripheral_Library_v2.1.16/XMCLib/src/xmc_usbd.c **** }
1035:/opt/XMClib/XMC_Peripheral_Library_v2.1.16/XMCLib/src/xmc_usbd.c **** 
1036:/opt/XMClib/XMC_Peripheral_Library_v2.1.16/XMCLib/src/xmc_usbd.c **** /**
1037:/opt/XMClib/XMC_Peripheral_Library_v2.1.16/XMCLib/src/xmc_usbd.c ****  * Enable the USB OUT EP events
1038:/opt/XMClib/XMC_Peripheral_Library_v2.1.16/XMCLib/src/xmc_usbd.c ****  **/
1039:/opt/XMClib/XMC_Peripheral_Library_v2.1.16/XMCLib/src/xmc_usbd.c **** void XMC_USBD_EnableEventOUTEP(uint32_t event)
1040:/opt/XMClib/XMC_Peripheral_Library_v2.1.16/XMCLib/src/xmc_usbd.c **** {
1041:/opt/XMClib/XMC_Peripheral_Library_v2.1.16/XMCLib/src/xmc_usbd.c **** 	doepint_data_t doepint;
1042:/opt/XMClib/XMC_Peripheral_Library_v2.1.16/XMCLib/src/xmc_usbd.c **** 	doepint.d32 = event;
1043:/opt/XMClib/XMC_Peripheral_Library_v2.1.16/XMCLib/src/xmc_usbd.c **** 	xmc_device.device_register->doepmsk |= doepint.d32;
1044:/opt/XMClib/XMC_Peripheral_Library_v2.1.16/XMCLib/src/xmc_usbd.c **** }
1045:/opt/XMClib/XMC_Peripheral_Library_v2.1.16/XMCLib/src/xmc_usbd.c **** 
1046:/opt/XMClib/XMC_Peripheral_Library_v2.1.16/XMCLib/src/xmc_usbd.c **** /**
1047:/opt/XMClib/XMC_Peripheral_Library_v2.1.16/XMCLib/src/xmc_usbd.c ****  * Enable the USB IN EP events
1048:/opt/XMClib/XMC_Peripheral_Library_v2.1.16/XMCLib/src/xmc_usbd.c ****  **/
1049:/opt/XMClib/XMC_Peripheral_Library_v2.1.16/XMCLib/src/xmc_usbd.c **** void XMC_USBD_EnableEventINEP(uint32_t event)
1050:/opt/XMClib/XMC_Peripheral_Library_v2.1.16/XMCLib/src/xmc_usbd.c **** {
1051:/opt/XMClib/XMC_Peripheral_Library_v2.1.16/XMCLib/src/xmc_usbd.c **** 	diepint_data_t diepint;
1052:/opt/XMClib/XMC_Peripheral_Library_v2.1.16/XMCLib/src/xmc_usbd.c **** 	diepint.d32 = event;
1053:/opt/XMClib/XMC_Peripheral_Library_v2.1.16/XMCLib/src/xmc_usbd.c **** 	xmc_device.device_register->diepmsk |= diepint.d32;
1054:/opt/XMClib/XMC_Peripheral_Library_v2.1.16/XMCLib/src/xmc_usbd.c **** }
1055:/opt/XMClib/XMC_Peripheral_Library_v2.1.16/XMCLib/src/xmc_usbd.c **** 
1056:/opt/XMClib/XMC_Peripheral_Library_v2.1.16/XMCLib/src/xmc_usbd.c **** /**
1057:/opt/XMClib/XMC_Peripheral_Library_v2.1.16/XMCLib/src/xmc_usbd.c ****  * Gets the USB device capabilities
1058:/opt/XMClib/XMC_Peripheral_Library_v2.1.16/XMCLib/src/xmc_usbd.c ****  **/
1059:/opt/XMClib/XMC_Peripheral_Library_v2.1.16/XMCLib/src/xmc_usbd.c **** XMC_USBD_CAPABILITIES_t XMC_USBD_GetCapabilities()
1060:/opt/XMClib/XMC_Peripheral_Library_v2.1.16/XMCLib/src/xmc_usbd.c **** {
 748              		.loc 1 1060 1 is_stmt 1 view -0
 749              		.cfi_startproc
 750              		@ args = 0, pretend = 0, frame = 0
 751              		@ frame_needed = 0, uses_anonymous_args = 0
 752              		@ link register save eliminated.
1061:/opt/XMClib/XMC_Peripheral_Library_v2.1.16/XMCLib/src/xmc_usbd.c ****   XMC_USBD_CAPABILITIES_t cap={0U};
 753              		.loc 1 1061 3 view .LVU261
 754              	.LVL49:
1062:/opt/XMClib/XMC_Peripheral_Library_v2.1.16/XMCLib/src/xmc_usbd.c ****   cap.event_connect = 1U;
 755              		.loc 1 1062 3 view .LVU262
1063:/opt/XMClib/XMC_Peripheral_Library_v2.1.16/XMCLib/src/xmc_usbd.c ****   cap.event_disconnect = 1U;
 756              		.loc 1 1063 3 view .LVU263
1064:/opt/XMClib/XMC_Peripheral_Library_v2.1.16/XMCLib/src/xmc_usbd.c **** #if UC_SERIES == 45
1065:/opt/XMClib/XMC_Peripheral_Library_v2.1.16/XMCLib/src/xmc_usbd.c ****   cap.event_power_off = 1U;
 757              		.loc 1 1065 3 view .LVU264
1066:/opt/XMClib/XMC_Peripheral_Library_v2.1.16/XMCLib/src/xmc_usbd.c ****   cap.event_power_on = 1U;
 758              		.loc 1 1066 3 view .LVU265
1067:/opt/XMClib/XMC_Peripheral_Library_v2.1.16/XMCLib/src/xmc_usbd.c **** #else
1068:/opt/XMClib/XMC_Peripheral_Library_v2.1.16/XMCLib/src/xmc_usbd.c ****   cap.event_power_off = 0U;
1069:/opt/XMClib/XMC_Peripheral_Library_v2.1.16/XMCLib/src/xmc_usbd.c ****   cap.event_power_on = 0U;
1070:/opt/XMClib/XMC_Peripheral_Library_v2.1.16/XMCLib/src/xmc_usbd.c **** #endif
1071:/opt/XMClib/XMC_Peripheral_Library_v2.1.16/XMCLib/src/xmc_usbd.c ****   cap.event_high_speed = 0U;
 759              		.loc 1 1071 3 view .LVU266
1072:/opt/XMClib/XMC_Peripheral_Library_v2.1.16/XMCLib/src/xmc_usbd.c ****   cap.event_remote_wakeup = 1U;
 760              		.loc 1 1072 3 view .LVU267
1073:/opt/XMClib/XMC_Peripheral_Library_v2.1.16/XMCLib/src/xmc_usbd.c ****   cap.event_reset = 1U;
 761              		.loc 1 1073 3 view .LVU268
1074:/opt/XMClib/XMC_Peripheral_Library_v2.1.16/XMCLib/src/xmc_usbd.c ****   cap.event_resume = 1U;
 762              		.loc 1 1074 3 view .LVU269
1075:/opt/XMClib/XMC_Peripheral_Library_v2.1.16/XMCLib/src/xmc_usbd.c ****   cap.event_suspend = 1U;
 763              		.loc 1 1075 3 view .LVU270
1076:/opt/XMClib/XMC_Peripheral_Library_v2.1.16/XMCLib/src/xmc_usbd.c ****   cap.reserved = 0U;
 764              		.loc 1 1076 3 view .LVU271
1077:/opt/XMClib/XMC_Peripheral_Library_v2.1.16/XMCLib/src/xmc_usbd.c ****   return cap;
 765              		.loc 1 1077 3 view .LVU272
1078:/opt/XMClib/XMC_Peripheral_Library_v2.1.16/XMCLib/src/xmc_usbd.c **** }
 766              		.loc 1 1078 1 is_stmt 0 view .LVU273
 767 0000 40F2DF10 		movw	r0, #479
 768 0004 7047     		bx	lr
 769              		.cfi_endproc
 770              	.LFE186:
 772              		.section	.text.XMC_USBD_DeviceConnect,"ax",%progbits
 773              		.align	1
 774              		.global	XMC_USBD_DeviceConnect
 775              		.syntax unified
 776              		.thumb
 777              		.thumb_func
 779              	XMC_USBD_DeviceConnect:
 780              	.LFB189:
1079:/opt/XMClib/XMC_Peripheral_Library_v2.1.16/XMCLib/src/xmc_usbd.c **** 
1080:/opt/XMClib/XMC_Peripheral_Library_v2.1.16/XMCLib/src/xmc_usbd.c **** /**
1081:/opt/XMClib/XMC_Peripheral_Library_v2.1.16/XMCLib/src/xmc_usbd.c ****  * Initializes the USB device
1082:/opt/XMClib/XMC_Peripheral_Library_v2.1.16/XMCLib/src/xmc_usbd.c ****  **/
1083:/opt/XMClib/XMC_Peripheral_Library_v2.1.16/XMCLib/src/xmc_usbd.c **** XMC_USBD_STATUS_t XMC_USBD_Init(XMC_USBD_t *obj)
1084:/opt/XMClib/XMC_Peripheral_Library_v2.1.16/XMCLib/src/xmc_usbd.c **** {
1085:/opt/XMClib/XMC_Peripheral_Library_v2.1.16/XMCLib/src/xmc_usbd.c ****   uint8_t *XMC_USBD_BASE_ADDRESS;
1086:/opt/XMClib/XMC_Peripheral_Library_v2.1.16/XMCLib/src/xmc_usbd.c ****   uint32_t i;
1087:/opt/XMClib/XMC_Peripheral_Library_v2.1.16/XMCLib/src/xmc_usbd.c ****   gahbcfg_data_t gahbcfg;
1088:/opt/XMClib/XMC_Peripheral_Library_v2.1.16/XMCLib/src/xmc_usbd.c ****   gusbcfg_data_t gusbcfg;
1089:/opt/XMClib/XMC_Peripheral_Library_v2.1.16/XMCLib/src/xmc_usbd.c ****   dcfg_data_t dcfg;
1090:/opt/XMClib/XMC_Peripheral_Library_v2.1.16/XMCLib/src/xmc_usbd.c ****   dctl_data_t dctl;
1091:/opt/XMClib/XMC_Peripheral_Library_v2.1.16/XMCLib/src/xmc_usbd.c ****   gintmsk_data_t gintmsk;
1092:/opt/XMClib/XMC_Peripheral_Library_v2.1.16/XMCLib/src/xmc_usbd.c **** 
1093:/opt/XMClib/XMC_Peripheral_Library_v2.1.16/XMCLib/src/xmc_usbd.c ****   XMC_ASSERT("XMC_USBD_Init: obj.usbd_max_num_eps not of type XMC_USBD_MAX_NUM_EPS_t",
1094:/opt/XMClib/XMC_Peripheral_Library_v2.1.16/XMCLib/src/xmc_usbd.c ****  		      XMC_USBD_CHECK_INPUT_MAX_NUM_EPS(obj->usbd_max_num_eps))
1095:/opt/XMClib/XMC_Peripheral_Library_v2.1.16/XMCLib/src/xmc_usbd.c ****   
1096:/opt/XMClib/XMC_Peripheral_Library_v2.1.16/XMCLib/src/xmc_usbd.c ****   XMC_USBD_Enable();
1097:/opt/XMClib/XMC_Peripheral_Library_v2.1.16/XMCLib/src/xmc_usbd.c ****   
1098:/opt/XMClib/XMC_Peripheral_Library_v2.1.16/XMCLib/src/xmc_usbd.c ****   usbd_init = obj;
1099:/opt/XMClib/XMC_Peripheral_Library_v2.1.16/XMCLib/src/xmc_usbd.c **** 
1100:/opt/XMClib/XMC_Peripheral_Library_v2.1.16/XMCLib/src/xmc_usbd.c ****   /* Filling out buffer size */
1101:/opt/XMClib/XMC_Peripheral_Library_v2.1.16/XMCLib/src/xmc_usbd.c ****   for(i = 0U;i < (uint32_t)XMC_USBD_NUM_EPS;i++)
1102:/opt/XMClib/XMC_Peripheral_Library_v2.1.16/XMCLib/src/xmc_usbd.c ****   {
1103:/opt/XMClib/XMC_Peripheral_Library_v2.1.16/XMCLib/src/xmc_usbd.c **** 	  XMC_USBD_EP_OUT_BUFFERSIZE[i] = XMC_USBD_EP0_BUFFER_SIZE;
1104:/opt/XMClib/XMC_Peripheral_Library_v2.1.16/XMCLib/src/xmc_usbd.c **** 	  XMC_USBD_EP_IN_BUFFERSIZE[i] 	= XMC_USBD_EP0_BUFFER_SIZE;
1105:/opt/XMClib/XMC_Peripheral_Library_v2.1.16/XMCLib/src/xmc_usbd.c ****   }
1106:/opt/XMClib/XMC_Peripheral_Library_v2.1.16/XMCLib/src/xmc_usbd.c **** 
1107:/opt/XMClib/XMC_Peripheral_Library_v2.1.16/XMCLib/src/xmc_usbd.c ****   /* clear device status */
1108:/opt/XMClib/XMC_Peripheral_Library_v2.1.16/XMCLib/src/xmc_usbd.c ****   memset((void*)&xmc_device,0x0U,sizeof(XMC_USBD_DEVICE_t));
1109:/opt/XMClib/XMC_Peripheral_Library_v2.1.16/XMCLib/src/xmc_usbd.c **** 
1110:/opt/XMClib/XMC_Peripheral_Library_v2.1.16/XMCLib/src/xmc_usbd.c ****   /* assign callbacks */
1111:/opt/XMClib/XMC_Peripheral_Library_v2.1.16/XMCLib/src/xmc_usbd.c ****   xmc_device.DeviceEvent_cb = obj->cb_xmc_device_event;
1112:/opt/XMClib/XMC_Peripheral_Library_v2.1.16/XMCLib/src/xmc_usbd.c ****   xmc_device.EndpointEvent_cb = obj->cb_endpoint_event;
1113:/opt/XMClib/XMC_Peripheral_Library_v2.1.16/XMCLib/src/xmc_usbd.c ****   XMC_USBD_BASE_ADDRESS = (uint8_t *)(obj->usbd);
1114:/opt/XMClib/XMC_Peripheral_Library_v2.1.16/XMCLib/src/xmc_usbd.c ****   /* assign register address */
1115:/opt/XMClib/XMC_Peripheral_Library_v2.1.16/XMCLib/src/xmc_usbd.c ****   xmc_device.global_register = (dwc_otg_core_global_regs_t*)(obj->usbd);
1116:/opt/XMClib/XMC_Peripheral_Library_v2.1.16/XMCLib/src/xmc_usbd.c ****   xmc_device.device_register = ((dwc_otg_device_global_regs_t*)(XMC_USBD_BASE_ADDRESS + DWC_DEV_GLO
1117:/opt/XMClib/XMC_Peripheral_Library_v2.1.16/XMCLib/src/xmc_usbd.c ****   for (i = 0U;i < (uint32_t)XMC_USBD_NUM_EPS;i++)
1118:/opt/XMClib/XMC_Peripheral_Library_v2.1.16/XMCLib/src/xmc_usbd.c ****   {
1119:/opt/XMClib/XMC_Peripheral_Library_v2.1.16/XMCLib/src/xmc_usbd.c ****     xmc_device.endpoint_in_register[i] = (dwc_otg_dev_in_ep_regs_t*)(XMC_USBD_BASE_ADDRESS + DWC_DE
1120:/opt/XMClib/XMC_Peripheral_Library_v2.1.16/XMCLib/src/xmc_usbd.c ****     ((uint32_t)DWC_EP_REG_OFFSET*i));
1121:/opt/XMClib/XMC_Peripheral_Library_v2.1.16/XMCLib/src/xmc_usbd.c ****   }
1122:/opt/XMClib/XMC_Peripheral_Library_v2.1.16/XMCLib/src/xmc_usbd.c ****   for (i = 0U;i < (uint32_t)XMC_USBD_NUM_EPS;i++)
1123:/opt/XMClib/XMC_Peripheral_Library_v2.1.16/XMCLib/src/xmc_usbd.c ****   {
1124:/opt/XMClib/XMC_Peripheral_Library_v2.1.16/XMCLib/src/xmc_usbd.c ****     xmc_device.endpoint_out_register[i] = (dwc_otg_dev_out_ep_regs_t*)(XMC_USBD_BASE_ADDRESS +
1125:/opt/XMClib/XMC_Peripheral_Library_v2.1.16/XMCLib/src/xmc_usbd.c ****     									  DWC_DEV_OUT_EP_REG_OFFSET +
1126:/opt/XMClib/XMC_Peripheral_Library_v2.1.16/XMCLib/src/xmc_usbd.c ****     									  ((uint32_t)DWC_EP_REG_OFFSET*i));
1127:/opt/XMClib/XMC_Peripheral_Library_v2.1.16/XMCLib/src/xmc_usbd.c ****   }
1128:/opt/XMClib/XMC_Peripheral_Library_v2.1.16/XMCLib/src/xmc_usbd.c ****   for (i = 0U;i < (uint32_t)XMC_USBD_NUM_TX_FIFOS;i++)
1129:/opt/XMClib/XMC_Peripheral_Library_v2.1.16/XMCLib/src/xmc_usbd.c ****   {
1130:/opt/XMClib/XMC_Peripheral_Library_v2.1.16/XMCLib/src/xmc_usbd.c ****     xmc_device.fifo[i] = (uint32_t*)(XMC_USBD_BASE_ADDRESS +
1131:/opt/XMClib/XMC_Peripheral_Library_v2.1.16/XMCLib/src/xmc_usbd.c ****     						XMC_USBD_TX_FIFO_REG_OFFSET +
1132:/opt/XMClib/XMC_Peripheral_Library_v2.1.16/XMCLib/src/xmc_usbd.c ****     						(i * XMC_USBD_TX_FIFO_OFFSET));
1133:/opt/XMClib/XMC_Peripheral_Library_v2.1.16/XMCLib/src/xmc_usbd.c ****   }
1134:/opt/XMClib/XMC_Peripheral_Library_v2.1.16/XMCLib/src/xmc_usbd.c ****   /* obj data structure for endpoint 0 */
1135:/opt/XMClib/XMC_Peripheral_Library_v2.1.16/XMCLib/src/xmc_usbd.c ****   /* Done by driver core */
1136:/opt/XMClib/XMC_Peripheral_Library_v2.1.16/XMCLib/src/xmc_usbd.c ****   /* configure ahb details */  
1137:/opt/XMClib/XMC_Peripheral_Library_v2.1.16/XMCLib/src/xmc_usbd.c ****   gahbcfg.d32 = xmc_device.global_register->gahbcfg;
1138:/opt/XMClib/XMC_Peripheral_Library_v2.1.16/XMCLib/src/xmc_usbd.c ****   gahbcfg.b.glblintrmsk = 1U; /* enable interrupts ( global mask ) */
1139:/opt/XMClib/XMC_Peripheral_Library_v2.1.16/XMCLib/src/xmc_usbd.c ****   gahbcfg.b.nptxfemplvl_txfemplvl = 1U;
1140:/opt/XMClib/XMC_Peripheral_Library_v2.1.16/XMCLib/src/xmc_usbd.c ****   if(obj->usbd_transfer_mode == XMC_USBD_USE_DMA)
1141:/opt/XMClib/XMC_Peripheral_Library_v2.1.16/XMCLib/src/xmc_usbd.c ****   {
1142:/opt/XMClib/XMC_Peripheral_Library_v2.1.16/XMCLib/src/xmc_usbd.c ****     /* Enable dma if needed */
1143:/opt/XMClib/XMC_Peripheral_Library_v2.1.16/XMCLib/src/xmc_usbd.c ****     gahbcfg.b.dmaenable = 1U; /* enable dma if needed */
1144:/opt/XMClib/XMC_Peripheral_Library_v2.1.16/XMCLib/src/xmc_usbd.c ****   }
1145:/opt/XMClib/XMC_Peripheral_Library_v2.1.16/XMCLib/src/xmc_usbd.c ****   else
1146:/opt/XMClib/XMC_Peripheral_Library_v2.1.16/XMCLib/src/xmc_usbd.c ****   {
1147:/opt/XMClib/XMC_Peripheral_Library_v2.1.16/XMCLib/src/xmc_usbd.c ****     gahbcfg.b.dmaenable = 0U;
1148:/opt/XMClib/XMC_Peripheral_Library_v2.1.16/XMCLib/src/xmc_usbd.c ****   }
1149:/opt/XMClib/XMC_Peripheral_Library_v2.1.16/XMCLib/src/xmc_usbd.c ****   xmc_device.global_register->gahbcfg = gahbcfg.d32;
1150:/opt/XMClib/XMC_Peripheral_Library_v2.1.16/XMCLib/src/xmc_usbd.c ****   /* configure usb details */  
1151:/opt/XMClib/XMC_Peripheral_Library_v2.1.16/XMCLib/src/xmc_usbd.c ****   gusbcfg.d32= xmc_device.global_register->gusbcfg;
1152:/opt/XMClib/XMC_Peripheral_Library_v2.1.16/XMCLib/src/xmc_usbd.c ****   gusbcfg.b.force_dev_mode = 1U; /* force us into device mode */
1153:/opt/XMClib/XMC_Peripheral_Library_v2.1.16/XMCLib/src/xmc_usbd.c ****   gusbcfg.b.srpcap = 1U; /* enable session request protocoll */
1154:/opt/XMClib/XMC_Peripheral_Library_v2.1.16/XMCLib/src/xmc_usbd.c ****   xmc_device.global_register->gusbcfg = gusbcfg.d32;
1155:/opt/XMClib/XMC_Peripheral_Library_v2.1.16/XMCLib/src/xmc_usbd.c **** 
1156:/opt/XMClib/XMC_Peripheral_Library_v2.1.16/XMCLib/src/xmc_usbd.c ****   /* Device init */
1157:/opt/XMClib/XMC_Peripheral_Library_v2.1.16/XMCLib/src/xmc_usbd.c ****   /* configure device speed */  
1158:/opt/XMClib/XMC_Peripheral_Library_v2.1.16/XMCLib/src/xmc_usbd.c ****   dcfg.d32 = xmc_device.device_register->dcfg;
1159:/opt/XMClib/XMC_Peripheral_Library_v2.1.16/XMCLib/src/xmc_usbd.c ****   dcfg.b.devspd = XMC_USBD_DCFG_DEVSPD_FS;
1160:/opt/XMClib/XMC_Peripheral_Library_v2.1.16/XMCLib/src/xmc_usbd.c ****   dcfg.b.descdma = 0U;
1161:/opt/XMClib/XMC_Peripheral_Library_v2.1.16/XMCLib/src/xmc_usbd.c ****   xmc_device.device_register->dcfg = dcfg.d32;
1162:/opt/XMClib/XMC_Peripheral_Library_v2.1.16/XMCLib/src/xmc_usbd.c ****   /* configure device functions */  
1163:/opt/XMClib/XMC_Peripheral_Library_v2.1.16/XMCLib/src/xmc_usbd.c ****   dctl.d32 = xmc_device.device_register->dctl;
1164:/opt/XMClib/XMC_Peripheral_Library_v2.1.16/XMCLib/src/xmc_usbd.c ****   dctl.b.sftdiscon = 1U; /* disconnect the device until its connected by the user */
1165:/opt/XMClib/XMC_Peripheral_Library_v2.1.16/XMCLib/src/xmc_usbd.c ****   /* all other config is done by default register value */
1166:/opt/XMClib/XMC_Peripheral_Library_v2.1.16/XMCLib/src/xmc_usbd.c ****   xmc_device.device_register->dctl = dctl.d32;
1167:/opt/XMClib/XMC_Peripheral_Library_v2.1.16/XMCLib/src/xmc_usbd.c ****   /* flush the fifos for proper operation */
1168:/opt/XMClib/XMC_Peripheral_Library_v2.1.16/XMCLib/src/xmc_usbd.c ****   XMC_USBD_lFlushTXFifo((uint8_t)0x10U); /* 0x10 == all fifos, see doc */
1169:/opt/XMClib/XMC_Peripheral_Library_v2.1.16/XMCLib/src/xmc_usbd.c ****   XMC_USBD_lFlushRXFifo();
1170:/opt/XMClib/XMC_Peripheral_Library_v2.1.16/XMCLib/src/xmc_usbd.c ****   /* Enable Global Interrupts */
1171:/opt/XMClib/XMC_Peripheral_Library_v2.1.16/XMCLib/src/xmc_usbd.c ****   /* clear interrupt status bits prior to unmasking */
1172:/opt/XMClib/XMC_Peripheral_Library_v2.1.16/XMCLib/src/xmc_usbd.c ****   xmc_device.global_register->gintmsk = 0U; /* disable all interrupts */
1173:/opt/XMClib/XMC_Peripheral_Library_v2.1.16/XMCLib/src/xmc_usbd.c ****   xmc_device.global_register->gintsts = 0xFFFFFFFFU; /* clear all interrupts */
1174:/opt/XMClib/XMC_Peripheral_Library_v2.1.16/XMCLib/src/xmc_usbd.c ****  
1175:/opt/XMClib/XMC_Peripheral_Library_v2.1.16/XMCLib/src/xmc_usbd.c ****   gintmsk.d32 = 0U;
1176:/opt/XMClib/XMC_Peripheral_Library_v2.1.16/XMCLib/src/xmc_usbd.c ****   /* enable common interrupts */
1177:/opt/XMClib/XMC_Peripheral_Library_v2.1.16/XMCLib/src/xmc_usbd.c ****   gintmsk.b.modemismatch = 1U;
1178:/opt/XMClib/XMC_Peripheral_Library_v2.1.16/XMCLib/src/xmc_usbd.c ****   gintmsk.b.otgintr = 1U;
1179:/opt/XMClib/XMC_Peripheral_Library_v2.1.16/XMCLib/src/xmc_usbd.c ****   gintmsk.b.sessreqintr = 1U;
1180:/opt/XMClib/XMC_Peripheral_Library_v2.1.16/XMCLib/src/xmc_usbd.c ****   /* enable device interrupts */
1181:/opt/XMClib/XMC_Peripheral_Library_v2.1.16/XMCLib/src/xmc_usbd.c ****   gintmsk.b.usbreset = 1U;
1182:/opt/XMClib/XMC_Peripheral_Library_v2.1.16/XMCLib/src/xmc_usbd.c ****   gintmsk.b.enumdone = 1U;
1183:/opt/XMClib/XMC_Peripheral_Library_v2.1.16/XMCLib/src/xmc_usbd.c ****   gintmsk.b.erlysuspend = 1U;
1184:/opt/XMClib/XMC_Peripheral_Library_v2.1.16/XMCLib/src/xmc_usbd.c ****   gintmsk.b.usbsuspend = 1U;
1185:/opt/XMClib/XMC_Peripheral_Library_v2.1.16/XMCLib/src/xmc_usbd.c ****   gintmsk.b.wkupintr = 1U;
1186:/opt/XMClib/XMC_Peripheral_Library_v2.1.16/XMCLib/src/xmc_usbd.c ****   gintmsk.b.sofintr = 1U;
1187:/opt/XMClib/XMC_Peripheral_Library_v2.1.16/XMCLib/src/xmc_usbd.c ****   if(obj->usbd_transfer_mode == XMC_USBD_USE_FIFO)
1188:/opt/XMClib/XMC_Peripheral_Library_v2.1.16/XMCLib/src/xmc_usbd.c ****   {
1189:/opt/XMClib/XMC_Peripheral_Library_v2.1.16/XMCLib/src/xmc_usbd.c ****     gintmsk.b.rxstsqlvl = 1U;
1190:/opt/XMClib/XMC_Peripheral_Library_v2.1.16/XMCLib/src/xmc_usbd.c ****   }
1191:/opt/XMClib/XMC_Peripheral_Library_v2.1.16/XMCLib/src/xmc_usbd.c ****   gintmsk.b.outepintr = 1U;
1192:/opt/XMClib/XMC_Peripheral_Library_v2.1.16/XMCLib/src/xmc_usbd.c ****   gintmsk.b.inepintr = 1U;
1193:/opt/XMClib/XMC_Peripheral_Library_v2.1.16/XMCLib/src/xmc_usbd.c ****   xmc_device.global_register->gintmsk = gintmsk.d32;
1194:/opt/XMClib/XMC_Peripheral_Library_v2.1.16/XMCLib/src/xmc_usbd.c ****   return XMC_USBD_STATUS_OK;
1195:/opt/XMClib/XMC_Peripheral_Library_v2.1.16/XMCLib/src/xmc_usbd.c **** }
1196:/opt/XMClib/XMC_Peripheral_Library_v2.1.16/XMCLib/src/xmc_usbd.c **** 
1197:/opt/XMClib/XMC_Peripheral_Library_v2.1.16/XMCLib/src/xmc_usbd.c **** /**
1198:/opt/XMClib/XMC_Peripheral_Library_v2.1.16/XMCLib/src/xmc_usbd.c ****  * Uninitializes the USB device
1199:/opt/XMClib/XMC_Peripheral_Library_v2.1.16/XMCLib/src/xmc_usbd.c ****  **/
1200:/opt/XMClib/XMC_Peripheral_Library_v2.1.16/XMCLib/src/xmc_usbd.c **** XMC_USBD_STATUS_t XMC_USBD_Uninitialize() 
1201:/opt/XMClib/XMC_Peripheral_Library_v2.1.16/XMCLib/src/xmc_usbd.c **** {
1202:/opt/XMClib/XMC_Peripheral_Library_v2.1.16/XMCLib/src/xmc_usbd.c ****   /* Disconnect the device */
1203:/opt/XMClib/XMC_Peripheral_Library_v2.1.16/XMCLib/src/xmc_usbd.c ****   dctl_data_t dctl;
1204:/opt/XMClib/XMC_Peripheral_Library_v2.1.16/XMCLib/src/xmc_usbd.c **** 	dctl.d32 = xmc_device.device_register->dctl;
1205:/opt/XMClib/XMC_Peripheral_Library_v2.1.16/XMCLib/src/xmc_usbd.c ****   dctl.b.sftdiscon = 1U;
1206:/opt/XMClib/XMC_Peripheral_Library_v2.1.16/XMCLib/src/xmc_usbd.c ****   xmc_device.device_register->dctl = dctl.d32;
1207:/opt/XMClib/XMC_Peripheral_Library_v2.1.16/XMCLib/src/xmc_usbd.c ****   /* clean up */
1208:/opt/XMClib/XMC_Peripheral_Library_v2.1.16/XMCLib/src/xmc_usbd.c ****   memset((void*)&xmc_device,0U,sizeof(xmc_device));
1209:/opt/XMClib/XMC_Peripheral_Library_v2.1.16/XMCLib/src/xmc_usbd.c ****   return XMC_USBD_STATUS_OK;
1210:/opt/XMClib/XMC_Peripheral_Library_v2.1.16/XMCLib/src/xmc_usbd.c **** }
1211:/opt/XMClib/XMC_Peripheral_Library_v2.1.16/XMCLib/src/xmc_usbd.c **** 
1212:/opt/XMClib/XMC_Peripheral_Library_v2.1.16/XMCLib/src/xmc_usbd.c **** /**
1213:/opt/XMClib/XMC_Peripheral_Library_v2.1.16/XMCLib/src/xmc_usbd.c ****  * Connects the USB device to host
1214:/opt/XMClib/XMC_Peripheral_Library_v2.1.16/XMCLib/src/xmc_usbd.c ****  **/
1215:/opt/XMClib/XMC_Peripheral_Library_v2.1.16/XMCLib/src/xmc_usbd.c **** XMC_USBD_STATUS_t XMC_USBD_DeviceConnect() 
1216:/opt/XMClib/XMC_Peripheral_Library_v2.1.16/XMCLib/src/xmc_usbd.c **** {
 781              		.loc 1 1216 1 is_stmt 1 view -0
 782              		.cfi_startproc
 783              		@ args = 0, pretend = 0, frame = 0
 784              		@ frame_needed = 0, uses_anonymous_args = 0
 785              		@ link register save eliminated.
1217:/opt/XMClib/XMC_Peripheral_Library_v2.1.16/XMCLib/src/xmc_usbd.c ****   /* Just disable softdisconnect */
1218:/opt/XMClib/XMC_Peripheral_Library_v2.1.16/XMCLib/src/xmc_usbd.c ****   dctl_data_t dctl;
 786              		.loc 1 1218 3 view .LVU275
1219:/opt/XMClib/XMC_Peripheral_Library_v2.1.16/XMCLib/src/xmc_usbd.c **** 	dctl.d32 = xmc_device.device_register->dctl;
 787              		.loc 1 1219 2 view .LVU276
 788              		.loc 1 1219 23 is_stmt 0 view .LVU277
 789 0000 044B     		ldr	r3, .L60
 790 0002 D3F8A421 		ldr	r2, [r3, #420]
 791              		.loc 1 1219 39 view .LVU278
 792 0006 5368     		ldr	r3, [r2, #4]
1220:/opt/XMClib/XMC_Peripheral_Library_v2.1.16/XMCLib/src/xmc_usbd.c ****   dctl.b.sftdiscon = 0U;
 793              		.loc 1 1220 3 is_stmt 1 view .LVU279
 794              	.LVL50:
 795              		.loc 1 1220 20 is_stmt 0 view .LVU280
 796 0008 23F00203 		bic	r3, r3, #2
 797              	.LVL51:
1221:/opt/XMClib/XMC_Peripheral_Library_v2.1.16/XMCLib/src/xmc_usbd.c ****   xmc_device.device_register->dctl = dctl.d32;
 798              		.loc 1 1221 3 is_stmt 1 view .LVU281
 799              		.loc 1 1221 36 is_stmt 0 view .LVU282
 800 000c 5360     		str	r3, [r2, #4]
1222:/opt/XMClib/XMC_Peripheral_Library_v2.1.16/XMCLib/src/xmc_usbd.c ****   return XMC_USBD_STATUS_OK;
 801              		.loc 1 1222 3 is_stmt 1 view .LVU283
1223:/opt/XMClib/XMC_Peripheral_Library_v2.1.16/XMCLib/src/xmc_usbd.c **** }
 802              		.loc 1 1223 1 is_stmt 0 view .LVU284
 803 000e 0020     		movs	r0, #0
 804 0010 7047     		bx	lr
 805              	.L61:
 806 0012 00BF     		.align	2
 807              	.L60:
 808 0014 00000000 		.word	.LANCHOR0
 809              		.cfi_endproc
 810              	.LFE189:
 812              		.section	.text.XMC_USBD_DeviceDisconnect,"ax",%progbits
 813              		.align	1
 814              		.global	XMC_USBD_DeviceDisconnect
 815              		.syntax unified
 816              		.thumb
 817              		.thumb_func
 819              	XMC_USBD_DeviceDisconnect:
 820              	.LFB190:
1224:/opt/XMClib/XMC_Peripheral_Library_v2.1.16/XMCLib/src/xmc_usbd.c **** 
1225:/opt/XMClib/XMC_Peripheral_Library_v2.1.16/XMCLib/src/xmc_usbd.c **** /**
1226:/opt/XMClib/XMC_Peripheral_Library_v2.1.16/XMCLib/src/xmc_usbd.c ****  * Disconnects the USB device from host
1227:/opt/XMClib/XMC_Peripheral_Library_v2.1.16/XMCLib/src/xmc_usbd.c ****  **/
1228:/opt/XMClib/XMC_Peripheral_Library_v2.1.16/XMCLib/src/xmc_usbd.c **** XMC_USBD_STATUS_t XMC_USBD_DeviceDisconnect() 
1229:/opt/XMClib/XMC_Peripheral_Library_v2.1.16/XMCLib/src/xmc_usbd.c **** {
 821              		.loc 1 1229 1 is_stmt 1 view -0
 822              		.cfi_startproc
 823              		@ args = 0, pretend = 0, frame = 0
 824              		@ frame_needed = 0, uses_anonymous_args = 0
 825              		@ link register save eliminated.
1230:/opt/XMClib/XMC_Peripheral_Library_v2.1.16/XMCLib/src/xmc_usbd.c ****   dctl_data_t dctl;
 826              		.loc 1 1230 3 view .LVU286
1231:/opt/XMClib/XMC_Peripheral_Library_v2.1.16/XMCLib/src/xmc_usbd.c **** 	dctl.d32 = xmc_device.device_register->dctl;
 827              		.loc 1 1231 2 view .LVU287
 828              		.loc 1 1231 23 is_stmt 0 view .LVU288
 829 0000 044B     		ldr	r3, .L63
 830 0002 D3F8A421 		ldr	r2, [r3, #420]
 831              		.loc 1 1231 39 view .LVU289
 832 0006 5368     		ldr	r3, [r2, #4]
1232:/opt/XMClib/XMC_Peripheral_Library_v2.1.16/XMCLib/src/xmc_usbd.c ****   dctl.b.sftdiscon = 1U;
 833              		.loc 1 1232 3 is_stmt 1 view .LVU290
 834              		.loc 1 1232 20 is_stmt 0 view .LVU291
 835 0008 43F00203 		orr	r3, r3, #2
 836              	.LVL52:
1233:/opt/XMClib/XMC_Peripheral_Library_v2.1.16/XMCLib/src/xmc_usbd.c ****   xmc_device.device_register->dctl = dctl.d32;
 837              		.loc 1 1233 3 is_stmt 1 view .LVU292
 838              		.loc 1 1233 36 is_stmt 0 view .LVU293
 839 000c 5360     		str	r3, [r2, #4]
1234:/opt/XMClib/XMC_Peripheral_Library_v2.1.16/XMCLib/src/xmc_usbd.c ****   return XMC_USBD_STATUS_OK;
 840              		.loc 1 1234 3 is_stmt 1 view .LVU294
1235:/opt/XMClib/XMC_Peripheral_Library_v2.1.16/XMCLib/src/xmc_usbd.c **** }
 841              		.loc 1 1235 1 is_stmt 0 view .LVU295
 842 000e 0020     		movs	r0, #0
 843 0010 7047     		bx	lr
 844              	.L64:
 845 0012 00BF     		.align	2
 846              	.L63:
 847 0014 00000000 		.word	.LANCHOR0
 848              		.cfi_endproc
 849              	.LFE190:
 851              		.section	.text.XMC_USBD_EndpointReadStart,"ax",%progbits
 852              		.align	1
 853              		.global	XMC_USBD_EndpointReadStart
 854              		.syntax unified
 855              		.thumb
 856              		.thumb_func
 858              	XMC_USBD_EndpointReadStart:
 859              	.LVL53:
 860              	.LFB192:
1236:/opt/XMClib/XMC_Peripheral_Library_v2.1.16/XMCLib/src/xmc_usbd.c **** 
1237:/opt/XMClib/XMC_Peripheral_Library_v2.1.16/XMCLib/src/xmc_usbd.c **** /**
1238:/opt/XMClib/XMC_Peripheral_Library_v2.1.16/XMCLib/src/xmc_usbd.c ****  * Gets the USB device state.
1239:/opt/XMClib/XMC_Peripheral_Library_v2.1.16/XMCLib/src/xmc_usbd.c ****  **/
1240:/opt/XMClib/XMC_Peripheral_Library_v2.1.16/XMCLib/src/xmc_usbd.c **** XMC_USBD_STATE_t XMC_USBD_DeviceGetState(const XMC_USBD_t *const obj) 
1241:/opt/XMClib/XMC_Peripheral_Library_v2.1.16/XMCLib/src/xmc_usbd.c **** {
1242:/opt/XMClib/XMC_Peripheral_Library_v2.1.16/XMCLib/src/xmc_usbd.c ****   XMC_USBD_STATE_t state={0U};
1243:/opt/XMClib/XMC_Peripheral_Library_v2.1.16/XMCLib/src/xmc_usbd.c ****   state.speed = XMC_USBD_SPEED_FULL;
1244:/opt/XMClib/XMC_Peripheral_Library_v2.1.16/XMCLib/src/xmc_usbd.c ****   state.connected = xmc_device.IsConnected;
1245:/opt/XMClib/XMC_Peripheral_Library_v2.1.16/XMCLib/src/xmc_usbd.c ****   state.active = XMC_USBD_lDeviceActive(obj);
1246:/opt/XMClib/XMC_Peripheral_Library_v2.1.16/XMCLib/src/xmc_usbd.c ****   state.powered = xmc_device.IsPowered;
1247:/opt/XMClib/XMC_Peripheral_Library_v2.1.16/XMCLib/src/xmc_usbd.c ****   return state;
1248:/opt/XMClib/XMC_Peripheral_Library_v2.1.16/XMCLib/src/xmc_usbd.c **** }
1249:/opt/XMClib/XMC_Peripheral_Library_v2.1.16/XMCLib/src/xmc_usbd.c **** 
1250:/opt/XMClib/XMC_Peripheral_Library_v2.1.16/XMCLib/src/xmc_usbd.c **** /**
1251:/opt/XMClib/XMC_Peripheral_Library_v2.1.16/XMCLib/src/xmc_usbd.c ****  * Prepares the endpoint to read next OUT packet
1252:/opt/XMClib/XMC_Peripheral_Library_v2.1.16/XMCLib/src/xmc_usbd.c ****  **/
1253:/opt/XMClib/XMC_Peripheral_Library_v2.1.16/XMCLib/src/xmc_usbd.c **** XMC_USBD_STATUS_t XMC_USBD_EndpointReadStart(const uint8_t ep_addr, uint32_t size) 
1254:/opt/XMClib/XMC_Peripheral_Library_v2.1.16/XMCLib/src/xmc_usbd.c **** {
 861              		.loc 1 1254 1 is_stmt 1 view -0
 862              		.cfi_startproc
 863              		@ args = 0, pretend = 0, frame = 0
 864              		@ frame_needed = 0, uses_anonymous_args = 0
1255:/opt/XMClib/XMC_Peripheral_Library_v2.1.16/XMCLib/src/xmc_usbd.c ****   XMC_USBD_EP_t *ep = &xmc_device.ep[ep_addr & (uint8_t)XMC_USBD_EP_NUM_MASK];
 865              		.loc 1 1255 3 view .LVU297
 866 0000 00F00F03 		and	r3, r0, #15
 867              	.LVL54:
1256:/opt/XMClib/XMC_Peripheral_Library_v2.1.16/XMCLib/src/xmc_usbd.c ****   XMC_USBD_STATUS_t result;
 868              		.loc 1 1256 3 view .LVU298
1257:/opt/XMClib/XMC_Peripheral_Library_v2.1.16/XMCLib/src/xmc_usbd.c **** 	
1258:/opt/XMClib/XMC_Peripheral_Library_v2.1.16/XMCLib/src/xmc_usbd.c ****   if (ep->outInUse || !ep->isConfigured)
 869              		.loc 1 1258 3 view .LVU299
 870              		.loc 1 1258 9 is_stmt 0 view .LVU300
 871 0004 144A     		ldr	r2, .L74
 872 0006 3420     		movs	r0, #52
 873              	.LVL55:
 874              		.loc 1 1258 9 view .LVU301
 875 0008 00FB0322 		mla	r2, r0, r3, r2
 876 000c 5268     		ldr	r2, [r2, #4]
 877              		.loc 1 1258 6 view .LVU302
 878 000e 12F0100F 		tst	r2, #16
 879 0012 1ED1     		bne	.L67
 880              		.loc 1 1258 23 discriminator 1 view .LVU303
 881 0014 104A     		ldr	r2, .L74
 882 0016 00FB0322 		mla	r2, r0, r3, r2
 883 001a 1279     		ldrb	r2, [r2, #4]	@ zero_extendqisi2
 884              		.loc 1 1258 20 discriminator 1 view .LVU304
 885 001c 12F0040F 		tst	r2, #4
 886 0020 01D1     		bne	.L73
1259:/opt/XMClib/XMC_Peripheral_Library_v2.1.16/XMCLib/src/xmc_usbd.c ****   {
1260:/opt/XMClib/XMC_Peripheral_Library_v2.1.16/XMCLib/src/xmc_usbd.c ****     result = XMC_USBD_STATUS_ERROR;
 887              		.loc 1 1260 12 view .LVU305
 888 0022 0120     		movs	r0, #1
 889              	.LVL56:
1261:/opt/XMClib/XMC_Peripheral_Library_v2.1.16/XMCLib/src/xmc_usbd.c ****   }
1262:/opt/XMClib/XMC_Peripheral_Library_v2.1.16/XMCLib/src/xmc_usbd.c ****   else
1263:/opt/XMClib/XMC_Peripheral_Library_v2.1.16/XMCLib/src/xmc_usbd.c ****   {
1264:/opt/XMClib/XMC_Peripheral_Library_v2.1.16/XMCLib/src/xmc_usbd.c ****     /* short the length to buffer size if needed */
1265:/opt/XMClib/XMC_Peripheral_Library_v2.1.16/XMCLib/src/xmc_usbd.c ****     if (size > ep->outBufferSize)
1266:/opt/XMClib/XMC_Peripheral_Library_v2.1.16/XMCLib/src/xmc_usbd.c ****     {
1267:/opt/XMClib/XMC_Peripheral_Library_v2.1.16/XMCLib/src/xmc_usbd.c ****       size = ep->outBufferSize;
1268:/opt/XMClib/XMC_Peripheral_Library_v2.1.16/XMCLib/src/xmc_usbd.c ****     }
1269:/opt/XMClib/XMC_Peripheral_Library_v2.1.16/XMCLib/src/xmc_usbd.c ****     /* set ep values */
1270:/opt/XMClib/XMC_Peripheral_Library_v2.1.16/XMCLib/src/xmc_usbd.c ****     ep->xferTotal = size;
1271:/opt/XMClib/XMC_Peripheral_Library_v2.1.16/XMCLib/src/xmc_usbd.c ****     ep->xferCount = 0U;
1272:/opt/XMClib/XMC_Peripheral_Library_v2.1.16/XMCLib/src/xmc_usbd.c ****     ep->xferLength = 0U;
1273:/opt/XMClib/XMC_Peripheral_Library_v2.1.16/XMCLib/src/xmc_usbd.c ****     ep->xferBuffer = ep->outBuffer;
1274:/opt/XMClib/XMC_Peripheral_Library_v2.1.16/XMCLib/src/xmc_usbd.c ****     ep->outBytesAvailable = 0U;
1275:/opt/XMClib/XMC_Peripheral_Library_v2.1.16/XMCLib/src/xmc_usbd.c ****     XMC_USBD_lStartReadXfer(ep);
1276:/opt/XMClib/XMC_Peripheral_Library_v2.1.16/XMCLib/src/xmc_usbd.c ****     result= XMC_USBD_STATUS_OK;
1277:/opt/XMClib/XMC_Peripheral_Library_v2.1.16/XMCLib/src/xmc_usbd.c ****   }
1278:/opt/XMClib/XMC_Peripheral_Library_v2.1.16/XMCLib/src/xmc_usbd.c ****   return result;
 890              		.loc 1 1278 3 is_stmt 1 view .LVU306
1279:/opt/XMClib/XMC_Peripheral_Library_v2.1.16/XMCLib/src/xmc_usbd.c **** }
 891              		.loc 1 1279 1 is_stmt 0 view .LVU307
 892 0024 7047     		bx	lr
 893              	.LVL57:
 894              	.L73:
1254:/opt/XMClib/XMC_Peripheral_Library_v2.1.16/XMCLib/src/xmc_usbd.c ****   XMC_USBD_EP_t *ep = &xmc_device.ep[ep_addr & (uint8_t)XMC_USBD_EP_NUM_MASK];
 895              		.loc 1 1254 1 view .LVU308
 896 0026 10B5     		push	{r4, lr}
 897              	.LCFI11:
 898              		.cfi_def_cfa_offset 8
 899              		.cfi_offset 4, -8
 900              		.cfi_offset 14, -4
1265:/opt/XMClib/XMC_Peripheral_Library_v2.1.16/XMCLib/src/xmc_usbd.c ****     {
 901              		.loc 1 1265 5 is_stmt 1 view .LVU309
 902              	.LVL58:
1270:/opt/XMClib/XMC_Peripheral_Library_v2.1.16/XMCLib/src/xmc_usbd.c ****     ep->xferCount = 0U;
 903              		.loc 1 1270 5 view .LVU310
1270:/opt/XMClib/XMC_Peripheral_Library_v2.1.16/XMCLib/src/xmc_usbd.c ****     ep->xferCount = 0U;
 904              		.loc 1 1270 19 is_stmt 0 view .LVU311
 905 0028 0B48     		ldr	r0, .L74
 906 002a 4FF0340C 		mov	ip, #52
 907 002e 0CFB0302 		mla	r2, ip, r3, r0
1265:/opt/XMClib/XMC_Peripheral_Library_v2.1.16/XMCLib/src/xmc_usbd.c ****     {
 908              		.loc 1 1265 8 view .LVU312
 909 0032 5469     		ldr	r4, [r2, #20]
 910 0034 A142     		cmp	r1, r4
 911 0036 28BF     		it	cs
 912 0038 2146     		movcs	r1, r4
 913              	.LVL59:
1270:/opt/XMClib/XMC_Peripheral_Library_v2.1.16/XMCLib/src/xmc_usbd.c ****     ep->xferCount = 0U;
 914              		.loc 1 1270 19 view .LVU313
 915 003a 1163     		str	r1, [r2, #48]
1271:/opt/XMClib/XMC_Peripheral_Library_v2.1.16/XMCLib/src/xmc_usbd.c ****     ep->xferLength = 0U;
 916              		.loc 1 1271 5 is_stmt 1 view .LVU314
1271:/opt/XMClib/XMC_Peripheral_Library_v2.1.16/XMCLib/src/xmc_usbd.c ****     ep->xferLength = 0U;
 917              		.loc 1 1271 19 is_stmt 0 view .LVU315
 918 003c 0024     		movs	r4, #0
 919 003e D462     		str	r4, [r2, #44]
1272:/opt/XMClib/XMC_Peripheral_Library_v2.1.16/XMCLib/src/xmc_usbd.c ****     ep->xferBuffer = ep->outBuffer;
 920              		.loc 1 1272 5 is_stmt 1 view .LVU316
1272:/opt/XMClib/XMC_Peripheral_Library_v2.1.16/XMCLib/src/xmc_usbd.c ****     ep->xferBuffer = ep->outBuffer;
 921              		.loc 1 1272 20 is_stmt 0 view .LVU317
 922 0040 9462     		str	r4, [r2, #40]
1273:/opt/XMClib/XMC_Peripheral_Library_v2.1.16/XMCLib/src/xmc_usbd.c ****     ep->outBytesAvailable = 0U;
 923              		.loc 1 1273 5 is_stmt 1 view .LVU318
1273:/opt/XMClib/XMC_Peripheral_Library_v2.1.16/XMCLib/src/xmc_usbd.c ****     ep->outBytesAvailable = 0U;
 924              		.loc 1 1273 20 is_stmt 0 view .LVU319
 925 0042 D168     		ldr	r1, [r2, #12]
 926 0044 5162     		str	r1, [r2, #36]
1274:/opt/XMClib/XMC_Peripheral_Library_v2.1.16/XMCLib/src/xmc_usbd.c ****     XMC_USBD_lStartReadXfer(ep);
 927              		.loc 1 1274 5 is_stmt 1 view .LVU320
1274:/opt/XMClib/XMC_Peripheral_Library_v2.1.16/XMCLib/src/xmc_usbd.c ****     XMC_USBD_lStartReadXfer(ep);
 928              		.loc 1 1274 27 is_stmt 0 view .LVU321
 929 0046 1461     		str	r4, [r2, #16]
1275:/opt/XMClib/XMC_Peripheral_Library_v2.1.16/XMCLib/src/xmc_usbd.c ****     result= XMC_USBD_STATUS_OK;
 930              		.loc 1 1275 5 is_stmt 1 view .LVU322
 931 0048 1046     		mov	r0, r2
 932 004a FFF7FEFF 		bl	XMC_USBD_lStartReadXfer
 933              	.LVL60:
1276:/opt/XMClib/XMC_Peripheral_Library_v2.1.16/XMCLib/src/xmc_usbd.c ****   }
 934              		.loc 1 1276 5 view .LVU323
1276:/opt/XMClib/XMC_Peripheral_Library_v2.1.16/XMCLib/src/xmc_usbd.c ****   }
 935              		.loc 1 1276 11 is_stmt 0 view .LVU324
 936 004e 2046     		mov	r0, r4
 937              	.LVL61:
1278:/opt/XMClib/XMC_Peripheral_Library_v2.1.16/XMCLib/src/xmc_usbd.c **** }
 938              		.loc 1 1278 3 is_stmt 1 view .LVU325
 939              		.loc 1 1279 1 is_stmt 0 view .LVU326
 940 0050 10BD     		pop	{r4, pc}
 941              	.LVL62:
 942              	.L67:
 943              	.LCFI12:
 944              		.cfi_def_cfa_offset 0
 945              		.cfi_restore 4
 946              		.cfi_restore 14
1260:/opt/XMClib/XMC_Peripheral_Library_v2.1.16/XMCLib/src/xmc_usbd.c ****   }
 947              		.loc 1 1260 12 view .LVU327
 948 0052 0120     		movs	r0, #1
 949 0054 7047     		bx	lr
 950              	.L75:
 951 0056 00BF     		.align	2
 952              	.L74:
 953 0058 00000000 		.word	.LANCHOR0
 954              		.cfi_endproc
 955              	.LFE192:
 957              		.section	.text.XMC_USBD_DeviceSetAddress,"ax",%progbits
 958              		.align	1
 959              		.global	XMC_USBD_DeviceSetAddress
 960              		.syntax unified
 961              		.thumb
 962              		.thumb_func
 964              	XMC_USBD_DeviceSetAddress:
 965              	.LVL63:
 966              	.LFB195:
1280:/opt/XMClib/XMC_Peripheral_Library_v2.1.16/XMCLib/src/xmc_usbd.c **** 
1281:/opt/XMClib/XMC_Peripheral_Library_v2.1.16/XMCLib/src/xmc_usbd.c **** /**
1282:/opt/XMClib/XMC_Peripheral_Library_v2.1.16/XMCLib/src/xmc_usbd.c ****  * Reads the number of bytes from the USB OUT endpoint
1283:/opt/XMClib/XMC_Peripheral_Library_v2.1.16/XMCLib/src/xmc_usbd.c ****  **/
1284:/opt/XMClib/XMC_Peripheral_Library_v2.1.16/XMCLib/src/xmc_usbd.c **** int32_t XMC_USBD_EndpointRead(const uint8_t ep_num,uint8_t * buffer,uint32_t length) 
1285:/opt/XMClib/XMC_Peripheral_Library_v2.1.16/XMCLib/src/xmc_usbd.c **** {
1286:/opt/XMClib/XMC_Peripheral_Library_v2.1.16/XMCLib/src/xmc_usbd.c ****   XMC_USBD_EP_t *ep = &xmc_device.ep[ep_num];
1287:/opt/XMClib/XMC_Peripheral_Library_v2.1.16/XMCLib/src/xmc_usbd.c ****   if (length > ep->outBytesAvailable)
1288:/opt/XMClib/XMC_Peripheral_Library_v2.1.16/XMCLib/src/xmc_usbd.c ****   {
1289:/opt/XMClib/XMC_Peripheral_Library_v2.1.16/XMCLib/src/xmc_usbd.c ****     length = ep->outBytesAvailable;
1290:/opt/XMClib/XMC_Peripheral_Library_v2.1.16/XMCLib/src/xmc_usbd.c ****   }
1291:/opt/XMClib/XMC_Peripheral_Library_v2.1.16/XMCLib/src/xmc_usbd.c ****   memcpy(buffer,&ep->outBuffer[ep->outOffset],length);
1292:/opt/XMClib/XMC_Peripheral_Library_v2.1.16/XMCLib/src/xmc_usbd.c ****   ep->outBytesAvailable -= length;
1293:/opt/XMClib/XMC_Peripheral_Library_v2.1.16/XMCLib/src/xmc_usbd.c ****   if (ep->outBytesAvailable)
1294:/opt/XMClib/XMC_Peripheral_Library_v2.1.16/XMCLib/src/xmc_usbd.c ****   {
1295:/opt/XMClib/XMC_Peripheral_Library_v2.1.16/XMCLib/src/xmc_usbd.c ****     ep->outOffset += length;
1296:/opt/XMClib/XMC_Peripheral_Library_v2.1.16/XMCLib/src/xmc_usbd.c ****   }
1297:/opt/XMClib/XMC_Peripheral_Library_v2.1.16/XMCLib/src/xmc_usbd.c ****   else
1298:/opt/XMClib/XMC_Peripheral_Library_v2.1.16/XMCLib/src/xmc_usbd.c ****   {
1299:/opt/XMClib/XMC_Peripheral_Library_v2.1.16/XMCLib/src/xmc_usbd.c ****     ep->outOffset = 0U;
1300:/opt/XMClib/XMC_Peripheral_Library_v2.1.16/XMCLib/src/xmc_usbd.c ****   }
1301:/opt/XMClib/XMC_Peripheral_Library_v2.1.16/XMCLib/src/xmc_usbd.c ****   return (int32_t)length;
1302:/opt/XMClib/XMC_Peripheral_Library_v2.1.16/XMCLib/src/xmc_usbd.c **** }
1303:/opt/XMClib/XMC_Peripheral_Library_v2.1.16/XMCLib/src/xmc_usbd.c **** 
1304:/opt/XMClib/XMC_Peripheral_Library_v2.1.16/XMCLib/src/xmc_usbd.c **** /**
1305:/opt/XMClib/XMC_Peripheral_Library_v2.1.16/XMCLib/src/xmc_usbd.c ****  * Writes number of bytes in to the USB IN endpoint.
1306:/opt/XMClib/XMC_Peripheral_Library_v2.1.16/XMCLib/src/xmc_usbd.c ****  **/
1307:/opt/XMClib/XMC_Peripheral_Library_v2.1.16/XMCLib/src/xmc_usbd.c **** int32_t XMC_USBD_EndpointWrite(const uint8_t ep_num,const uint8_t * buffer,uint32_t length) 
1308:/opt/XMClib/XMC_Peripheral_Library_v2.1.16/XMCLib/src/xmc_usbd.c **** {
1309:/opt/XMClib/XMC_Peripheral_Library_v2.1.16/XMCLib/src/xmc_usbd.c ****   XMC_USBD_EP_t * ep = &xmc_device.ep[ep_num & (uint8_t)XMC_USBD_EP_NUM_MASK];
1310:/opt/XMClib/XMC_Peripheral_Library_v2.1.16/XMCLib/src/xmc_usbd.c ****   int32_t result;
1311:/opt/XMClib/XMC_Peripheral_Library_v2.1.16/XMCLib/src/xmc_usbd.c ****   if (!ep->isConfigured)
1312:/opt/XMClib/XMC_Peripheral_Library_v2.1.16/XMCLib/src/xmc_usbd.c ****   {
1313:/opt/XMClib/XMC_Peripheral_Library_v2.1.16/XMCLib/src/xmc_usbd.c ****     result = (int32_t)XMC_USBD_STATUS_ERROR;
1314:/opt/XMClib/XMC_Peripheral_Library_v2.1.16/XMCLib/src/xmc_usbd.c ****   }
1315:/opt/XMClib/XMC_Peripheral_Library_v2.1.16/XMCLib/src/xmc_usbd.c ****   else if (ep->inInUse == 1U)
1316:/opt/XMClib/XMC_Peripheral_Library_v2.1.16/XMCLib/src/xmc_usbd.c ****   {
1317:/opt/XMClib/XMC_Peripheral_Library_v2.1.16/XMCLib/src/xmc_usbd.c ****     result=(int32_t)0;
1318:/opt/XMClib/XMC_Peripheral_Library_v2.1.16/XMCLib/src/xmc_usbd.c ****   }
1319:/opt/XMClib/XMC_Peripheral_Library_v2.1.16/XMCLib/src/xmc_usbd.c ****   else
1320:/opt/XMClib/XMC_Peripheral_Library_v2.1.16/XMCLib/src/xmc_usbd.c ****   {
1321:/opt/XMClib/XMC_Peripheral_Library_v2.1.16/XMCLib/src/xmc_usbd.c ****     if (length > ep->inBufferSize)
1322:/opt/XMClib/XMC_Peripheral_Library_v2.1.16/XMCLib/src/xmc_usbd.c ****     {
1323:/opt/XMClib/XMC_Peripheral_Library_v2.1.16/XMCLib/src/xmc_usbd.c ****       length = ep->inBufferSize;
1324:/opt/XMClib/XMC_Peripheral_Library_v2.1.16/XMCLib/src/xmc_usbd.c ****     }
1325:/opt/XMClib/XMC_Peripheral_Library_v2.1.16/XMCLib/src/xmc_usbd.c ****     /* copy data into input buffer for DMA and FIFO mode */
1326:/opt/XMClib/XMC_Peripheral_Library_v2.1.16/XMCLib/src/xmc_usbd.c **** 		memcpy(ep->inBuffer,(const void *)buffer,length);
1327:/opt/XMClib/XMC_Peripheral_Library_v2.1.16/XMCLib/src/xmc_usbd.c **** 		ep->xferBuffer = ep->inBuffer;
1328:/opt/XMClib/XMC_Peripheral_Library_v2.1.16/XMCLib/src/xmc_usbd.c ****     ep->xferTotal = length;
1329:/opt/XMClib/XMC_Peripheral_Library_v2.1.16/XMCLib/src/xmc_usbd.c ****     /* set transfer values */
1330:/opt/XMClib/XMC_Peripheral_Library_v2.1.16/XMCLib/src/xmc_usbd.c ****     ep->xferLength = 0U;
1331:/opt/XMClib/XMC_Peripheral_Library_v2.1.16/XMCLib/src/xmc_usbd.c ****     ep->xferCount = 0U;
1332:/opt/XMClib/XMC_Peripheral_Library_v2.1.16/XMCLib/src/xmc_usbd.c ****     ep->inInUse = 1U;
1333:/opt/XMClib/XMC_Peripheral_Library_v2.1.16/XMCLib/src/xmc_usbd.c ****     /* start the transfer */
1334:/opt/XMClib/XMC_Peripheral_Library_v2.1.16/XMCLib/src/xmc_usbd.c ****     XMC_USBD_lStartWriteXfer(ep);
1335:/opt/XMClib/XMC_Peripheral_Library_v2.1.16/XMCLib/src/xmc_usbd.c ****     result=(int32_t)ep->xferTotal;
1336:/opt/XMClib/XMC_Peripheral_Library_v2.1.16/XMCLib/src/xmc_usbd.c ****   }
1337:/opt/XMClib/XMC_Peripheral_Library_v2.1.16/XMCLib/src/xmc_usbd.c ****   return result;
1338:/opt/XMClib/XMC_Peripheral_Library_v2.1.16/XMCLib/src/xmc_usbd.c **** }
1339:/opt/XMClib/XMC_Peripheral_Library_v2.1.16/XMCLib/src/xmc_usbd.c **** 
1340:/opt/XMClib/XMC_Peripheral_Library_v2.1.16/XMCLib/src/xmc_usbd.c **** /**
1341:/opt/XMClib/XMC_Peripheral_Library_v2.1.16/XMCLib/src/xmc_usbd.c ****  * Sets the USB device address.
1342:/opt/XMClib/XMC_Peripheral_Library_v2.1.16/XMCLib/src/xmc_usbd.c ****  **/
1343:/opt/XMClib/XMC_Peripheral_Library_v2.1.16/XMCLib/src/xmc_usbd.c **** XMC_USBD_STATUS_t XMC_USBD_DeviceSetAddress(const uint8_t address,const XMC_USBD_SET_ADDRESS_STAGE_
1344:/opt/XMClib/XMC_Peripheral_Library_v2.1.16/XMCLib/src/xmc_usbd.c **** {
 967              		.loc 1 1344 1 is_stmt 1 view -0
 968              		.cfi_startproc
 969              		@ args = 0, pretend = 0, frame = 0
 970              		@ frame_needed = 0, uses_anonymous_args = 0
 971              		@ link register save eliminated.
1345:/opt/XMClib/XMC_Peripheral_Library_v2.1.16/XMCLib/src/xmc_usbd.c ****   dcfg_data_t data;
 972              		.loc 1 1345 3 view .LVU329
1346:/opt/XMClib/XMC_Peripheral_Library_v2.1.16/XMCLib/src/xmc_usbd.c ****   data.d32 = xmc_device.device_register->dcfg;
 973              		.loc 1 1346 3 view .LVU330
 974              		.loc 1 1346 24 is_stmt 0 view .LVU331
 975 0000 044B     		ldr	r3, .L78
 976 0002 D3F8A431 		ldr	r3, [r3, #420]
 977              		.loc 1 1346 40 view .LVU332
 978 0006 1A68     		ldr	r2, [r3]
 979              	.LVL64:
1347:/opt/XMClib/XMC_Peripheral_Library_v2.1.16/XMCLib/src/xmc_usbd.c ****   if (stage == XMC_USBD_SET_ADDRESS_STAGE_SETUP)
 980              		.loc 1 1347 3 is_stmt 1 view .LVU333
 981              		.loc 1 1347 6 is_stmt 0 view .LVU334
 982 0008 11B9     		cbnz	r1, .L77
1348:/opt/XMClib/XMC_Peripheral_Library_v2.1.16/XMCLib/src/xmc_usbd.c ****   {
1349:/opt/XMClib/XMC_Peripheral_Library_v2.1.16/XMCLib/src/xmc_usbd.c ****     data.b.devaddr = address;
 983              		.loc 1 1349 5 is_stmt 1 view .LVU335
 984              		.loc 1 1349 20 is_stmt 0 view .LVU336
 985 000a 60F30A12 		bfi	r2, r0, #4, #7
1350:/opt/XMClib/XMC_Peripheral_Library_v2.1.16/XMCLib/src/xmc_usbd.c ****     xmc_device.device_register->dcfg = data.d32;
 986              		.loc 1 1350 5 is_stmt 1 view .LVU337
 987              		.loc 1 1350 38 is_stmt 0 view .LVU338
 988 000e 1A60     		str	r2, [r3]
 989              	.L77:
1351:/opt/XMClib/XMC_Peripheral_Library_v2.1.16/XMCLib/src/xmc_usbd.c ****   }
1352:/opt/XMClib/XMC_Peripheral_Library_v2.1.16/XMCLib/src/xmc_usbd.c **** 	return XMC_USBD_STATUS_OK;
 990              		.loc 1 1352 2 is_stmt 1 view .LVU339
1353:/opt/XMClib/XMC_Peripheral_Library_v2.1.16/XMCLib/src/xmc_usbd.c **** }
 991              		.loc 1 1353 1 is_stmt 0 view .LVU340
 992 0010 0020     		movs	r0, #0
 993              	.LVL65:
 994              		.loc 1 1353 1 view .LVU341
 995 0012 7047     		bx	lr
 996              	.L79:
 997              		.align	2
 998              	.L78:
 999 0014 00000000 		.word	.LANCHOR0
 1000              		.cfi_endproc
 1001              	.LFE195:
 1003              		.section	.text.XMC_USBD_EndpointStall,"ax",%progbits
 1004              		.align	1
 1005              		.global	XMC_USBD_EndpointStall
 1006              		.syntax unified
 1007              		.thumb
 1008              		.thumb_func
 1010              	XMC_USBD_EndpointStall:
 1011              	.LVL66:
 1012              	.LFB196:
1354:/opt/XMClib/XMC_Peripheral_Library_v2.1.16/XMCLib/src/xmc_usbd.c **** 
1355:/opt/XMClib/XMC_Peripheral_Library_v2.1.16/XMCLib/src/xmc_usbd.c **** /**
1356:/opt/XMClib/XMC_Peripheral_Library_v2.1.16/XMCLib/src/xmc_usbd.c ****  * Set/clear stall on the selected endpoint.
1357:/opt/XMClib/XMC_Peripheral_Library_v2.1.16/XMCLib/src/xmc_usbd.c ****  **/
1358:/opt/XMClib/XMC_Peripheral_Library_v2.1.16/XMCLib/src/xmc_usbd.c **** XMC_USBD_STATUS_t XMC_USBD_EndpointStall(const uint8_t ep_addr, const bool stall) 
1359:/opt/XMClib/XMC_Peripheral_Library_v2.1.16/XMCLib/src/xmc_usbd.c **** {
 1013              		.loc 1 1359 1 is_stmt 1 view -0
 1014              		.cfi_startproc
 1015              		@ args = 0, pretend = 0, frame = 0
 1016              		@ frame_needed = 0, uses_anonymous_args = 0
 1017              		@ link register save eliminated.
1360:/opt/XMClib/XMC_Peripheral_Library_v2.1.16/XMCLib/src/xmc_usbd.c ****   depctl_data_t data;
 1018              		.loc 1 1360 3 view .LVU343
1361:/opt/XMClib/XMC_Peripheral_Library_v2.1.16/XMCLib/src/xmc_usbd.c ****   XMC_USBD_EP_t *ep = &xmc_device.ep[(ep_addr & (uint8_t)XMC_USBD_EP_NUM_MASK)];
 1019              		.loc 1 1361 3 view .LVU344
 1020              		.loc 1 1361 47 is_stmt 0 view .LVU345
 1021 0000 00F00F02 		and	r2, r0, #15
 1022              	.LVL67:
1362:/opt/XMClib/XMC_Peripheral_Library_v2.1.16/XMCLib/src/xmc_usbd.c ****   if (stall)
 1023              		.loc 1 1362 3 is_stmt 1 view .LVU346
 1024              		.loc 1 1362 6 is_stmt 0 view .LVU347
 1025 0004 8C46     		mov	ip, r1
 1026 0006 51B3     		cbz	r1, .L81
1363:/opt/XMClib/XMC_Peripheral_Library_v2.1.16/XMCLib/src/xmc_usbd.c ****   {
1364:/opt/XMClib/XMC_Peripheral_Library_v2.1.16/XMCLib/src/xmc_usbd.c ****     if (ep_addr & (uint8_t)XMC_USBD_ENDPOINT_DIRECTION_MASK)
 1027              		.loc 1 1364 5 is_stmt 1 view .LVU348
 1028              		.loc 1 1364 8 is_stmt 0 view .LVU349
 1029 0008 10F0800F 		tst	r0, #128
 1030 000c 18D1     		bne	.L87
1365:/opt/XMClib/XMC_Peripheral_Library_v2.1.16/XMCLib/src/xmc_usbd.c ****     {
1366:/opt/XMClib/XMC_Peripheral_Library_v2.1.16/XMCLib/src/xmc_usbd.c ****       /*set stall bit */
1367:/opt/XMClib/XMC_Peripheral_Library_v2.1.16/XMCLib/src/xmc_usbd.c ****       data.d32 = xmc_device.endpoint_in_register[ep->address_u.address_st.number]->diepctl;
1368:/opt/XMClib/XMC_Peripheral_Library_v2.1.16/XMCLib/src/xmc_usbd.c ****       data.b.stall = 1U;
1369:/opt/XMClib/XMC_Peripheral_Library_v2.1.16/XMCLib/src/xmc_usbd.c ****       xmc_device.endpoint_in_register[ep->address_u.address_st.number]->diepctl = data.d32;
1370:/opt/XMClib/XMC_Peripheral_Library_v2.1.16/XMCLib/src/xmc_usbd.c ****     }
1371:/opt/XMClib/XMC_Peripheral_Library_v2.1.16/XMCLib/src/xmc_usbd.c ****     else
1372:/opt/XMClib/XMC_Peripheral_Library_v2.1.16/XMCLib/src/xmc_usbd.c ****     {
1373:/opt/XMClib/XMC_Peripheral_Library_v2.1.16/XMCLib/src/xmc_usbd.c ****       /*set stall bit */
1374:/opt/XMClib/XMC_Peripheral_Library_v2.1.16/XMCLib/src/xmc_usbd.c ****       data.d32 = xmc_device.endpoint_out_register[ep->address_u.address_st.number]->doepctl;
 1031              		.loc 1 1374 7 is_stmt 1 view .LVU350
 1032              		.loc 1 1374 50 is_stmt 0 view .LVU351
 1033 000e 274B     		ldr	r3, .L89
 1034              		.loc 1 1374 75 view .LVU352
 1035 0010 3421     		movs	r1, #52
 1036              	.LVL68:
 1037              		.loc 1 1374 75 view .LVU353
 1038 0012 02FB01F1 		mul	r1, r2, r1
 1039 0016 595C     		ldrb	r1, [r3, r1]	@ zero_extendqisi2
 1040 0018 01F00F01 		and	r1, r1, #15
 1041              		.loc 1 1374 50 view .LVU354
 1042 001c 03EB8103 		add	r3, r3, r1, lsl #2
 1043 0020 D3F8C411 		ldr	r1, [r3, #452]
 1044              		.loc 1 1374 83 view .LVU355
 1045 0024 0B68     		ldr	r3, [r1]
1375:/opt/XMClib/XMC_Peripheral_Library_v2.1.16/XMCLib/src/xmc_usbd.c ****       data.b.stall = 1U;
 1046              		.loc 1 1375 7 is_stmt 1 view .LVU356
 1047              		.loc 1 1375 20 is_stmt 0 view .LVU357
 1048 0026 43F40013 		orr	r3, r3, #2097152
 1049              	.LVL69:
1376:/opt/XMClib/XMC_Peripheral_Library_v2.1.16/XMCLib/src/xmc_usbd.c ****       xmc_device.endpoint_out_register[ep->address_u.address_st.number]->doepctl = data.d32;
 1050              		.loc 1 1376 7 is_stmt 1 view .LVU358
 1051              		.loc 1 1376 82 is_stmt 0 view .LVU359
 1052 002a 0B60     		str	r3, [r1]
1377:/opt/XMClib/XMC_Peripheral_Library_v2.1.16/XMCLib/src/xmc_usbd.c ****     }
1378:/opt/XMClib/XMC_Peripheral_Library_v2.1.16/XMCLib/src/xmc_usbd.c ****     ep->isStalled = 1U;
 1053              		.loc 1 1378 5 is_stmt 1 view .LVU360
 1054              	.L84:
 1055              		.loc 1 1378 19 is_stmt 0 view .LVU361
 1056 002c 1F4B     		ldr	r3, .L89
 1057              	.LVL70:
 1058              		.loc 1 1378 19 view .LVU362
 1059 002e 3421     		movs	r1, #52
 1060 0030 01FB0233 		mla	r3, r1, r2, r3
 1061 0034 1A79     		ldrb	r2, [r3, #4]	@ zero_extendqisi2
 1062              	.LVL71:
 1063              		.loc 1 1378 19 view .LVU363
 1064 0036 6CF34512 		bfi	r2, ip, #5, #1
 1065 003a 1A71     		strb	r2, [r3, #4]
1379:/opt/XMClib/XMC_Peripheral_Library_v2.1.16/XMCLib/src/xmc_usbd.c ****   }
1380:/opt/XMClib/XMC_Peripheral_Library_v2.1.16/XMCLib/src/xmc_usbd.c ****   else
1381:/opt/XMClib/XMC_Peripheral_Library_v2.1.16/XMCLib/src/xmc_usbd.c ****   {
1382:/opt/XMClib/XMC_Peripheral_Library_v2.1.16/XMCLib/src/xmc_usbd.c ****     /* just clear stall bit */
1383:/opt/XMClib/XMC_Peripheral_Library_v2.1.16/XMCLib/src/xmc_usbd.c **** 		if (ep_addr & (uint8_t)XMC_USBD_ENDPOINT_DIRECTION_MASK)
1384:/opt/XMClib/XMC_Peripheral_Library_v2.1.16/XMCLib/src/xmc_usbd.c **** 		{
1385:/opt/XMClib/XMC_Peripheral_Library_v2.1.16/XMCLib/src/xmc_usbd.c **** 			data.d32 = xmc_device.endpoint_in_register[ep->address_u.address_st.number]->diepctl;
1386:/opt/XMClib/XMC_Peripheral_Library_v2.1.16/XMCLib/src/xmc_usbd.c **** 			data.b.stall = 0U;
1387:/opt/XMClib/XMC_Peripheral_Library_v2.1.16/XMCLib/src/xmc_usbd.c **** 			data.b.setd0pid = 1U; /* reset pid to 0 */
1388:/opt/XMClib/XMC_Peripheral_Library_v2.1.16/XMCLib/src/xmc_usbd.c **** 			xmc_device.endpoint_in_register[ep->address_u.address_st.number]->diepctl = data.d32;
1389:/opt/XMClib/XMC_Peripheral_Library_v2.1.16/XMCLib/src/xmc_usbd.c **** 		}
1390:/opt/XMClib/XMC_Peripheral_Library_v2.1.16/XMCLib/src/xmc_usbd.c **** 		else
1391:/opt/XMClib/XMC_Peripheral_Library_v2.1.16/XMCLib/src/xmc_usbd.c **** 		{
1392:/opt/XMClib/XMC_Peripheral_Library_v2.1.16/XMCLib/src/xmc_usbd.c **** 			data.d32 = xmc_device.endpoint_out_register[ep->address_u.address_st.number]->doepctl;
1393:/opt/XMClib/XMC_Peripheral_Library_v2.1.16/XMCLib/src/xmc_usbd.c **** 			data.b.stall = 0U;
1394:/opt/XMClib/XMC_Peripheral_Library_v2.1.16/XMCLib/src/xmc_usbd.c **** 			data.b.setd0pid = 1U; /* reset pid to 0 */
1395:/opt/XMClib/XMC_Peripheral_Library_v2.1.16/XMCLib/src/xmc_usbd.c **** 			xmc_device.endpoint_out_register[ep->address_u.address_st.number]->doepctl = data.d32;
1396:/opt/XMClib/XMC_Peripheral_Library_v2.1.16/XMCLib/src/xmc_usbd.c **** 		}
1397:/opt/XMClib/XMC_Peripheral_Library_v2.1.16/XMCLib/src/xmc_usbd.c **** 		ep->isStalled = 0U;
1398:/opt/XMClib/XMC_Peripheral_Library_v2.1.16/XMCLib/src/xmc_usbd.c **** 	}
1399:/opt/XMClib/XMC_Peripheral_Library_v2.1.16/XMCLib/src/xmc_usbd.c **** 	return XMC_USBD_STATUS_OK;
 1066              		.loc 1 1399 2 is_stmt 1 view .LVU364
1400:/opt/XMClib/XMC_Peripheral_Library_v2.1.16/XMCLib/src/xmc_usbd.c **** }
 1067              		.loc 1 1400 1 is_stmt 0 view .LVU365
 1068 003c 0020     		movs	r0, #0
 1069              	.LVL72:
 1070              		.loc 1 1400 1 view .LVU366
 1071 003e 7047     		bx	lr
 1072              	.LVL73:
 1073              	.L87:
1367:/opt/XMClib/XMC_Peripheral_Library_v2.1.16/XMCLib/src/xmc_usbd.c ****       data.b.stall = 1U;
 1074              		.loc 1 1367 7 is_stmt 1 view .LVU367
1367:/opt/XMClib/XMC_Peripheral_Library_v2.1.16/XMCLib/src/xmc_usbd.c ****       data.b.stall = 1U;
 1075              		.loc 1 1367 49 is_stmt 0 view .LVU368
 1076 0040 1A49     		ldr	r1, .L89
 1077              	.LVL74:
1367:/opt/XMClib/XMC_Peripheral_Library_v2.1.16/XMCLib/src/xmc_usbd.c ****       data.b.stall = 1U;
 1078              		.loc 1 1367 74 view .LVU369
 1079 0042 3423     		movs	r3, #52
 1080 0044 02FB03F3 		mul	r3, r2, r3
 1081 0048 CB5C     		ldrb	r3, [r1, r3]	@ zero_extendqisi2
 1082 004a 03F00F03 		and	r3, r3, #15
1367:/opt/XMClib/XMC_Peripheral_Library_v2.1.16/XMCLib/src/xmc_usbd.c ****       data.b.stall = 1U;
 1083              		.loc 1 1367 49 view .LVU370
 1084 004e 6A33     		adds	r3, r3, #106
 1085 0050 51F82310 		ldr	r1, [r1, r3, lsl #2]
1367:/opt/XMClib/XMC_Peripheral_Library_v2.1.16/XMCLib/src/xmc_usbd.c ****       data.b.stall = 1U;
 1086              		.loc 1 1367 82 view .LVU371
 1087 0054 0B68     		ldr	r3, [r1]
1368:/opt/XMClib/XMC_Peripheral_Library_v2.1.16/XMCLib/src/xmc_usbd.c ****       xmc_device.endpoint_in_register[ep->address_u.address_st.number]->diepctl = data.d32;
 1088              		.loc 1 1368 7 is_stmt 1 view .LVU372
1368:/opt/XMClib/XMC_Peripheral_Library_v2.1.16/XMCLib/src/xmc_usbd.c ****       xmc_device.endpoint_in_register[ep->address_u.address_st.number]->diepctl = data.d32;
 1089              		.loc 1 1368 20 is_stmt 0 view .LVU373
 1090 0056 43F40013 		orr	r3, r3, #2097152
1369:/opt/XMClib/XMC_Peripheral_Library_v2.1.16/XMCLib/src/xmc_usbd.c ****     }
 1091              		.loc 1 1369 7 is_stmt 1 view .LVU374
 1092              	.LVL75:
1369:/opt/XMClib/XMC_Peripheral_Library_v2.1.16/XMCLib/src/xmc_usbd.c ****     }
 1093              		.loc 1 1369 81 is_stmt 0 view .LVU375
 1094 005a 0B60     		str	r3, [r1]
 1095 005c E6E7     		b	.L84
 1096              	.LVL76:
 1097              	.L81:
1383:/opt/XMClib/XMC_Peripheral_Library_v2.1.16/XMCLib/src/xmc_usbd.c **** 		{
 1098              		.loc 1 1383 3 is_stmt 1 view .LVU376
1383:/opt/XMClib/XMC_Peripheral_Library_v2.1.16/XMCLib/src/xmc_usbd.c **** 		{
 1099              		.loc 1 1383 6 is_stmt 0 view .LVU377
 1100 005e 10F0800F 		tst	r0, #128
 1101 0062 11D1     		bne	.L88
1392:/opt/XMClib/XMC_Peripheral_Library_v2.1.16/XMCLib/src/xmc_usbd.c **** 			data.b.stall = 0U;
 1102              		.loc 1 1392 4 is_stmt 1 view .LVU378
1392:/opt/XMClib/XMC_Peripheral_Library_v2.1.16/XMCLib/src/xmc_usbd.c **** 			data.b.stall = 0U;
 1103              		.loc 1 1392 47 is_stmt 0 view .LVU379
 1104 0064 114B     		ldr	r3, .L89
1392:/opt/XMClib/XMC_Peripheral_Library_v2.1.16/XMCLib/src/xmc_usbd.c **** 			data.b.stall = 0U;
 1105              		.loc 1 1392 72 view .LVU380
 1106 0066 3421     		movs	r1, #52
 1107              	.LVL77:
1392:/opt/XMClib/XMC_Peripheral_Library_v2.1.16/XMCLib/src/xmc_usbd.c **** 			data.b.stall = 0U;
 1108              		.loc 1 1392 72 view .LVU381
 1109 0068 02FB01F1 		mul	r1, r2, r1
 1110 006c 595C     		ldrb	r1, [r3, r1]	@ zero_extendqisi2
 1111 006e 01F00F01 		and	r1, r1, #15
1392:/opt/XMClib/XMC_Peripheral_Library_v2.1.16/XMCLib/src/xmc_usbd.c **** 			data.b.stall = 0U;
 1112              		.loc 1 1392 47 view .LVU382
 1113 0072 03EB8103 		add	r3, r3, r1, lsl #2
 1114 0076 D3F8C411 		ldr	r1, [r3, #452]
1392:/opt/XMClib/XMC_Peripheral_Library_v2.1.16/XMCLib/src/xmc_usbd.c **** 			data.b.stall = 0U;
 1115              		.loc 1 1392 80 view .LVU383
 1116 007a 0B68     		ldr	r3, [r1]
1393:/opt/XMClib/XMC_Peripheral_Library_v2.1.16/XMCLib/src/xmc_usbd.c **** 			data.b.setd0pid = 1U; /* reset pid to 0 */
 1117              		.loc 1 1393 4 is_stmt 1 view .LVU384
1393:/opt/XMClib/XMC_Peripheral_Library_v2.1.16/XMCLib/src/xmc_usbd.c **** 			data.b.setd0pid = 1U; /* reset pid to 0 */
 1118              		.loc 1 1393 17 is_stmt 0 view .LVU385
 1119 007c 23F40013 		bic	r3, r3, #2097152
1394:/opt/XMClib/XMC_Peripheral_Library_v2.1.16/XMCLib/src/xmc_usbd.c **** 			xmc_device.endpoint_out_register[ep->address_u.address_st.number]->doepctl = data.d32;
 1120              		.loc 1 1394 4 is_stmt 1 view .LVU386
 1121              	.LVL78:
1394:/opt/XMClib/XMC_Peripheral_Library_v2.1.16/XMCLib/src/xmc_usbd.c **** 			xmc_device.endpoint_out_register[ep->address_u.address_st.number]->doepctl = data.d32;
 1122              		.loc 1 1394 20 is_stmt 0 view .LVU387
 1123 0080 43F08053 		orr	r3, r3, #268435456
 1124              	.LVL79:
1395:/opt/XMClib/XMC_Peripheral_Library_v2.1.16/XMCLib/src/xmc_usbd.c **** 		}
 1125              		.loc 1 1395 4 is_stmt 1 view .LVU388
1395:/opt/XMClib/XMC_Peripheral_Library_v2.1.16/XMCLib/src/xmc_usbd.c **** 		}
 1126              		.loc 1 1395 79 is_stmt 0 view .LVU389
 1127 0084 0B60     		str	r3, [r1]
1397:/opt/XMClib/XMC_Peripheral_Library_v2.1.16/XMCLib/src/xmc_usbd.c **** 	}
 1128              		.loc 1 1397 3 is_stmt 1 view .LVU390
 1129 0086 D1E7     		b	.L84
 1130              	.LVL80:
 1131              	.L88:
1385:/opt/XMClib/XMC_Peripheral_Library_v2.1.16/XMCLib/src/xmc_usbd.c **** 			data.b.stall = 0U;
 1132              		.loc 1 1385 4 view .LVU391
1385:/opt/XMClib/XMC_Peripheral_Library_v2.1.16/XMCLib/src/xmc_usbd.c **** 			data.b.stall = 0U;
 1133              		.loc 1 1385 46 is_stmt 0 view .LVU392
 1134 0088 0849     		ldr	r1, .L89
 1135              	.LVL81:
1385:/opt/XMClib/XMC_Peripheral_Library_v2.1.16/XMCLib/src/xmc_usbd.c **** 			data.b.stall = 0U;
 1136              		.loc 1 1385 71 view .LVU393
 1137 008a 3423     		movs	r3, #52
 1138 008c 02FB03F3 		mul	r3, r2, r3
 1139 0090 CB5C     		ldrb	r3, [r1, r3]	@ zero_extendqisi2
 1140 0092 03F00F03 		and	r3, r3, #15
1385:/opt/XMClib/XMC_Peripheral_Library_v2.1.16/XMCLib/src/xmc_usbd.c **** 			data.b.stall = 0U;
 1141              		.loc 1 1385 46 view .LVU394
 1142 0096 6A33     		adds	r3, r3, #106
 1143 0098 51F82310 		ldr	r1, [r1, r3, lsl #2]
1385:/opt/XMClib/XMC_Peripheral_Library_v2.1.16/XMCLib/src/xmc_usbd.c **** 			data.b.stall = 0U;
 1144              		.loc 1 1385 79 view .LVU395
 1145 009c 0B68     		ldr	r3, [r1]
1386:/opt/XMClib/XMC_Peripheral_Library_v2.1.16/XMCLib/src/xmc_usbd.c **** 			data.b.setd0pid = 1U; /* reset pid to 0 */
 1146              		.loc 1 1386 4 is_stmt 1 view .LVU396
1386:/opt/XMClib/XMC_Peripheral_Library_v2.1.16/XMCLib/src/xmc_usbd.c **** 			data.b.setd0pid = 1U; /* reset pid to 0 */
 1147              		.loc 1 1386 17 is_stmt 0 view .LVU397
 1148 009e 23F40013 		bic	r3, r3, #2097152
1387:/opt/XMClib/XMC_Peripheral_Library_v2.1.16/XMCLib/src/xmc_usbd.c **** 			xmc_device.endpoint_in_register[ep->address_u.address_st.number]->diepctl = data.d32;
 1149              		.loc 1 1387 4 is_stmt 1 view .LVU398
 1150              	.LVL82:
1387:/opt/XMClib/XMC_Peripheral_Library_v2.1.16/XMCLib/src/xmc_usbd.c **** 			xmc_device.endpoint_in_register[ep->address_u.address_st.number]->diepctl = data.d32;
 1151              		.loc 1 1387 20 is_stmt 0 view .LVU399
 1152 00a2 43F08053 		orr	r3, r3, #268435456
 1153              	.LVL83:
1388:/opt/XMClib/XMC_Peripheral_Library_v2.1.16/XMCLib/src/xmc_usbd.c **** 		}
 1154              		.loc 1 1388 4 is_stmt 1 view .LVU400
1388:/opt/XMClib/XMC_Peripheral_Library_v2.1.16/XMCLib/src/xmc_usbd.c **** 		}
 1155              		.loc 1 1388 78 is_stmt 0 view .LVU401
 1156 00a6 0B60     		str	r3, [r1]
 1157 00a8 C0E7     		b	.L84
 1158              	.L90:
 1159 00aa 00BF     		.align	2
 1160              	.L89:
 1161 00ac 00000000 		.word	.LANCHOR0
 1162              		.cfi_endproc
 1163              	.LFE196:
 1165              		.section	.text.XMC_USBD_EndpointAbort,"ax",%progbits
 1166              		.align	1
 1167              		.global	XMC_USBD_EndpointAbort
 1168              		.syntax unified
 1169              		.thumb
 1170              		.thumb_func
 1172              	XMC_USBD_EndpointAbort:
 1173              	.LVL84:
 1174              	.LFB197:
1401:/opt/XMClib/XMC_Peripheral_Library_v2.1.16/XMCLib/src/xmc_usbd.c **** 
1402:/opt/XMClib/XMC_Peripheral_Library_v2.1.16/XMCLib/src/xmc_usbd.c **** /**
1403:/opt/XMClib/XMC_Peripheral_Library_v2.1.16/XMCLib/src/xmc_usbd.c ****  * Aborts the data transfer on the selected endpoint
1404:/opt/XMClib/XMC_Peripheral_Library_v2.1.16/XMCLib/src/xmc_usbd.c ****  **/
1405:/opt/XMClib/XMC_Peripheral_Library_v2.1.16/XMCLib/src/xmc_usbd.c **** XMC_USBD_STATUS_t XMC_USBD_EndpointAbort(const uint8_t ep_addr) {
 1175              		.loc 1 1405 65 is_stmt 1 view -0
 1176              		.cfi_startproc
 1177              		@ args = 0, pretend = 0, frame = 0
 1178              		@ frame_needed = 0, uses_anonymous_args = 0
 1179              		@ link register save eliminated.
1406:/opt/XMClib/XMC_Peripheral_Library_v2.1.16/XMCLib/src/xmc_usbd.c ****   XMC_USBD_EP_t *ep = &xmc_device.ep[ep_addr & (uint8_t)XMC_USBD_ENDPOINT_NUMBER_MASK];
 1180              		.loc 1 1406 3 view .LVU403
 1181              		.loc 1 1406 46 is_stmt 0 view .LVU404
 1182 0000 00F00F00 		and	r0, r0, #15
 1183              	.LVL85:
1407:/opt/XMClib/XMC_Peripheral_Library_v2.1.16/XMCLib/src/xmc_usbd.c ****   if (ep->address_u.address_st.direction)
 1184              		.loc 1 1407 3 is_stmt 1 view .LVU405
 1185              		.loc 1 1407 7 is_stmt 0 view .LVU406
 1186 0004 3423     		movs	r3, #52
 1187 0006 00FB03F3 		mul	r3, r0, r3
 1188              		.loc 1 1407 6 view .LVU407
 1189 000a 124A     		ldr	r2, .L96
 1190 000c D356     		ldrsb	r3, [r2, r3]
 1191 000e 002B     		cmp	r3, #0
 1192 0010 16DB     		blt	.L95
1408:/opt/XMClib/XMC_Peripheral_Library_v2.1.16/XMCLib/src/xmc_usbd.c ****   {
1409:/opt/XMClib/XMC_Peripheral_Library_v2.1.16/XMCLib/src/xmc_usbd.c ****     ep->inInUse = 0U;
1410:/opt/XMClib/XMC_Peripheral_Library_v2.1.16/XMCLib/src/xmc_usbd.c ****   }
1411:/opt/XMClib/XMC_Peripheral_Library_v2.1.16/XMCLib/src/xmc_usbd.c ****   if (!ep->address_u.address_st.direction)
 1193              		.loc 1 1411 3 is_stmt 1 view .LVU408
1412:/opt/XMClib/XMC_Peripheral_Library_v2.1.16/XMCLib/src/xmc_usbd.c ****   {
1413:/opt/XMClib/XMC_Peripheral_Library_v2.1.16/XMCLib/src/xmc_usbd.c ****     ep->outInUse = 0U;
 1194              		.loc 1 1413 5 view .LVU409
 1195              		.loc 1 1413 18 is_stmt 0 view .LVU410
 1196 0012 104B     		ldr	r3, .L96
 1197 0014 3422     		movs	r2, #52
 1198 0016 02FB0033 		mla	r3, r2, r0, r3
 1199 001a 5A68     		ldr	r2, [r3, #4]
 1200 001c 22F01002 		bic	r2, r2, #16
 1201 0020 5A60     		str	r2, [r3, #4]
 1202              	.L93:
1414:/opt/XMClib/XMC_Peripheral_Library_v2.1.16/XMCLib/src/xmc_usbd.c ****   }
1415:/opt/XMClib/XMC_Peripheral_Library_v2.1.16/XMCLib/src/xmc_usbd.c ****   ep->isStalled = 0U;
 1203              		.loc 1 1415 3 is_stmt 1 view .LVU411
 1204              		.loc 1 1415 17 is_stmt 0 view .LVU412
 1205 0022 0C4B     		ldr	r3, .L96
 1206 0024 3422     		movs	r2, #52
 1207 0026 02FB0033 		mla	r3, r2, r0, r3
 1208 002a 1A79     		ldrb	r2, [r3, #4]	@ zero_extendqisi2
 1209 002c 22F02002 		bic	r2, r2, #32
 1210 0030 1A71     		strb	r2, [r3, #4]
1416:/opt/XMClib/XMC_Peripheral_Library_v2.1.16/XMCLib/src/xmc_usbd.c ****   ep->outBytesAvailable = 0U;
 1211              		.loc 1 1416 3 is_stmt 1 view .LVU413
 1212              		.loc 1 1416 25 is_stmt 0 view .LVU414
 1213 0032 0020     		movs	r0, #0
 1214              	.LVL86:
 1215              		.loc 1 1416 25 view .LVU415
 1216 0034 1861     		str	r0, [r3, #16]
1417:/opt/XMClib/XMC_Peripheral_Library_v2.1.16/XMCLib/src/xmc_usbd.c ****   ep->outOffset = 0U;
 1217              		.loc 1 1417 3 is_stmt 1 view .LVU416
 1218              		.loc 1 1417 17 is_stmt 0 view .LVU417
 1219 0036 9861     		str	r0, [r3, #24]
1418:/opt/XMClib/XMC_Peripheral_Library_v2.1.16/XMCLib/src/xmc_usbd.c ****   ep->xferLength = 0U;
 1220              		.loc 1 1418 3 is_stmt 1 view .LVU418
 1221              		.loc 1 1418 18 is_stmt 0 view .LVU419
 1222 0038 9862     		str	r0, [r3, #40]
1419:/opt/XMClib/XMC_Peripheral_Library_v2.1.16/XMCLib/src/xmc_usbd.c ****   ep->xferCount = 0U;
 1223              		.loc 1 1419 3 is_stmt 1 view .LVU420
 1224              		.loc 1 1419 17 is_stmt 0 view .LVU421
 1225 003a D862     		str	r0, [r3, #44]
1420:/opt/XMClib/XMC_Peripheral_Library_v2.1.16/XMCLib/src/xmc_usbd.c ****   ep->xferTotal = 0U;
 1226              		.loc 1 1420 3 is_stmt 1 view .LVU422
 1227              		.loc 1 1420 17 is_stmt 0 view .LVU423
 1228 003c 1863     		str	r0, [r3, #48]
1421:/opt/XMClib/XMC_Peripheral_Library_v2.1.16/XMCLib/src/xmc_usbd.c **** 
1422:/opt/XMClib/XMC_Peripheral_Library_v2.1.16/XMCLib/src/xmc_usbd.c ****   return XMC_USBD_STATUS_OK;
 1229              		.loc 1 1422 3 is_stmt 1 view .LVU424
1423:/opt/XMClib/XMC_Peripheral_Library_v2.1.16/XMCLib/src/xmc_usbd.c **** }
 1230              		.loc 1 1423 1 is_stmt 0 view .LVU425
 1231 003e 7047     		bx	lr
 1232              	.LVL87:
 1233              	.L95:
1409:/opt/XMClib/XMC_Peripheral_Library_v2.1.16/XMCLib/src/xmc_usbd.c ****   }
 1234              		.loc 1 1409 5 is_stmt 1 view .LVU426
1409:/opt/XMClib/XMC_Peripheral_Library_v2.1.16/XMCLib/src/xmc_usbd.c ****   }
 1235              		.loc 1 1409 17 is_stmt 0 view .LVU427
 1236 0040 1346     		mov	r3, r2
 1237 0042 3422     		movs	r2, #52
 1238 0044 02FB0033 		mla	r3, r2, r0, r3
 1239 0048 5A68     		ldr	r2, [r3, #4]
 1240 004a 22F00802 		bic	r2, r2, #8
 1241 004e 5A60     		str	r2, [r3, #4]
1411:/opt/XMClib/XMC_Peripheral_Library_v2.1.16/XMCLib/src/xmc_usbd.c ****   {
 1242              		.loc 1 1411 3 is_stmt 1 view .LVU428
 1243 0050 E7E7     		b	.L93
 1244              	.L97:
 1245 0052 00BF     		.align	2
 1246              	.L96:
 1247 0054 00000000 		.word	.LANCHOR0
 1248              		.cfi_endproc
 1249              	.LFE197:
 1251              		.section	.text.XMC_USBD_EndpointUnconfigure,"ax",%progbits
 1252              		.align	1
 1253              		.global	XMC_USBD_EndpointUnconfigure
 1254              		.syntax unified
 1255              		.thumb
 1256              		.thumb_func
 1258              	XMC_USBD_EndpointUnconfigure:
 1259              	.LVL88:
 1260              	.LFB199:
1424:/opt/XMClib/XMC_Peripheral_Library_v2.1.16/XMCLib/src/xmc_usbd.c **** 
1425:/opt/XMClib/XMC_Peripheral_Library_v2.1.16/XMCLib/src/xmc_usbd.c **** /**
1426:/opt/XMClib/XMC_Peripheral_Library_v2.1.16/XMCLib/src/xmc_usbd.c ****  * Configures the given endpoint
1427:/opt/XMClib/XMC_Peripheral_Library_v2.1.16/XMCLib/src/xmc_usbd.c ****  **/
1428:/opt/XMClib/XMC_Peripheral_Library_v2.1.16/XMCLib/src/xmc_usbd.c **** XMC_USBD_STATUS_t XMC_USBD_EndpointConfigure(const uint8_t ep_addr,
1429:/opt/XMClib/XMC_Peripheral_Library_v2.1.16/XMCLib/src/xmc_usbd.c **** 		                                     const XMC_USBD_ENDPOINT_TYPE_t ep_type,
1430:/opt/XMClib/XMC_Peripheral_Library_v2.1.16/XMCLib/src/xmc_usbd.c **** 		                                     const uint16_t ep_max_packet_size) 
1431:/opt/XMClib/XMC_Peripheral_Library_v2.1.16/XMCLib/src/xmc_usbd.c **** {
1432:/opt/XMClib/XMC_Peripheral_Library_v2.1.16/XMCLib/src/xmc_usbd.c ****   daint_data_t daintmsk;
1433:/opt/XMClib/XMC_Peripheral_Library_v2.1.16/XMCLib/src/xmc_usbd.c ****   XMC_USBD_EP_t *ep;
1434:/opt/XMClib/XMC_Peripheral_Library_v2.1.16/XMCLib/src/xmc_usbd.c ****   daintmsk.d32 = xmc_device.device_register->daintmsk;  
1435:/opt/XMClib/XMC_Peripheral_Library_v2.1.16/XMCLib/src/xmc_usbd.c ****   ep =&xmc_device.ep[ep_addr & (uint32_t)XMC_USBD_ENDPOINT_NUMBER_MASK];
1436:/opt/XMClib/XMC_Peripheral_Library_v2.1.16/XMCLib/src/xmc_usbd.c ****   memset((void*)ep,0x0U,sizeof(XMC_USBD_EP_t)); /* clear endpoint structure */
1437:/opt/XMClib/XMC_Peripheral_Library_v2.1.16/XMCLib/src/xmc_usbd.c ****   /* do ep configuration */
1438:/opt/XMClib/XMC_Peripheral_Library_v2.1.16/XMCLib/src/xmc_usbd.c ****   ep->address_u.address = ep_addr;
1439:/opt/XMClib/XMC_Peripheral_Library_v2.1.16/XMCLib/src/xmc_usbd.c ****   ep->isConfigured = 1U;
1440:/opt/XMClib/XMC_Peripheral_Library_v2.1.16/XMCLib/src/xmc_usbd.c ****   ep->maxPacketSize = (uint8_t)ep_max_packet_size;
1441:/opt/XMClib/XMC_Peripheral_Library_v2.1.16/XMCLib/src/xmc_usbd.c ****   if (ep->address_u.address != 0U)
1442:/opt/XMClib/XMC_Peripheral_Library_v2.1.16/XMCLib/src/xmc_usbd.c ****   {
1443:/opt/XMClib/XMC_Peripheral_Library_v2.1.16/XMCLib/src/xmc_usbd.c ****     ep->maxTransferSize = (uint32_t)XMC_USBD_MAX_TRANSFER_SIZE;
1444:/opt/XMClib/XMC_Peripheral_Library_v2.1.16/XMCLib/src/xmc_usbd.c ****   }
1445:/opt/XMClib/XMC_Peripheral_Library_v2.1.16/XMCLib/src/xmc_usbd.c ****   else
1446:/opt/XMClib/XMC_Peripheral_Library_v2.1.16/XMCLib/src/xmc_usbd.c ****   {
1447:/opt/XMClib/XMC_Peripheral_Library_v2.1.16/XMCLib/src/xmc_usbd.c ****     ep->maxTransferSize = (uint32_t)XMC_USBD_MAX_TRANSFER_SIZE_EP0;
1448:/opt/XMClib/XMC_Peripheral_Library_v2.1.16/XMCLib/src/xmc_usbd.c ****   }
1449:/opt/XMClib/XMC_Peripheral_Library_v2.1.16/XMCLib/src/xmc_usbd.c ****   /* transfer buffer */
1450:/opt/XMClib/XMC_Peripheral_Library_v2.1.16/XMCLib/src/xmc_usbd.c ****   ep->inBuffer = XMC_USBD_EP_IN_BUFFER[ep->address_u.address_st.number];
1451:/opt/XMClib/XMC_Peripheral_Library_v2.1.16/XMCLib/src/xmc_usbd.c ****   ep->outBuffer = XMC_USBD_EP_OUT_BUFFER[ep->address_u.address_st.number];
1452:/opt/XMClib/XMC_Peripheral_Library_v2.1.16/XMCLib/src/xmc_usbd.c ****   /* buffer size*/
1453:/opt/XMClib/XMC_Peripheral_Library_v2.1.16/XMCLib/src/xmc_usbd.c ****   ep->inBufferSize = XMC_USBD_EP_IN_BUFFERSIZE[ep->address_u.address_st.number];
1454:/opt/XMClib/XMC_Peripheral_Library_v2.1.16/XMCLib/src/xmc_usbd.c ****   ep->outBufferSize = XMC_USBD_EP_OUT_BUFFERSIZE[ep->address_u.address_st.number];
1455:/opt/XMClib/XMC_Peripheral_Library_v2.1.16/XMCLib/src/xmc_usbd.c ****   /* is in */
1456:/opt/XMClib/XMC_Peripheral_Library_v2.1.16/XMCLib/src/xmc_usbd.c ****   if ((ep->address_u.address_st.direction == 1U) || (ep_type == XMC_USBD_ENDPOINT_TYPE_CONTROL))
1457:/opt/XMClib/XMC_Peripheral_Library_v2.1.16/XMCLib/src/xmc_usbd.c ****   {
1458:/opt/XMClib/XMC_Peripheral_Library_v2.1.16/XMCLib/src/xmc_usbd.c ****     depctl_data_t data;
1459:/opt/XMClib/XMC_Peripheral_Library_v2.1.16/XMCLib/src/xmc_usbd.c ****     data.d32 = xmc_device.endpoint_in_register[ep->address_u.address_st.number]->diepctl;
1460:/opt/XMClib/XMC_Peripheral_Library_v2.1.16/XMCLib/src/xmc_usbd.c **** 		/*enable endpoint */
1461:/opt/XMClib/XMC_Peripheral_Library_v2.1.16/XMCLib/src/xmc_usbd.c **** 		data.b.usbactep = 1U;
1462:/opt/XMClib/XMC_Peripheral_Library_v2.1.16/XMCLib/src/xmc_usbd.c **** 		/* set ep type */
1463:/opt/XMClib/XMC_Peripheral_Library_v2.1.16/XMCLib/src/xmc_usbd.c **** 		data.b.eptype = (uint8_t)ep_type;
1464:/opt/XMClib/XMC_Peripheral_Library_v2.1.16/XMCLib/src/xmc_usbd.c **** 		/* set mps */
1465:/opt/XMClib/XMC_Peripheral_Library_v2.1.16/XMCLib/src/xmc_usbd.c ****     if (ep_type == XMC_USBD_ENDPOINT_TYPE_CONTROL)
1466:/opt/XMClib/XMC_Peripheral_Library_v2.1.16/XMCLib/src/xmc_usbd.c ****     {
1467:/opt/XMClib/XMC_Peripheral_Library_v2.1.16/XMCLib/src/xmc_usbd.c **** 			switch(ep_max_packet_size)
1468:/opt/XMClib/XMC_Peripheral_Library_v2.1.16/XMCLib/src/xmc_usbd.c **** 			{
1469:/opt/XMClib/XMC_Peripheral_Library_v2.1.16/XMCLib/src/xmc_usbd.c **** 				case (64U):
1470:/opt/XMClib/XMC_Peripheral_Library_v2.1.16/XMCLib/src/xmc_usbd.c **** 				data.b.mps = 0x0U;
1471:/opt/XMClib/XMC_Peripheral_Library_v2.1.16/XMCLib/src/xmc_usbd.c **** 				break;
1472:/opt/XMClib/XMC_Peripheral_Library_v2.1.16/XMCLib/src/xmc_usbd.c **** 				case (32U):
1473:/opt/XMClib/XMC_Peripheral_Library_v2.1.16/XMCLib/src/xmc_usbd.c **** 				data.b.mps = 0x1U;
1474:/opt/XMClib/XMC_Peripheral_Library_v2.1.16/XMCLib/src/xmc_usbd.c **** 				break;
1475:/opt/XMClib/XMC_Peripheral_Library_v2.1.16/XMCLib/src/xmc_usbd.c **** 				case (16U):
1476:/opt/XMClib/XMC_Peripheral_Library_v2.1.16/XMCLib/src/xmc_usbd.c **** 				data.b.mps = 0x2U;
1477:/opt/XMClib/XMC_Peripheral_Library_v2.1.16/XMCLib/src/xmc_usbd.c **** 				break;
1478:/opt/XMClib/XMC_Peripheral_Library_v2.1.16/XMCLib/src/xmc_usbd.c **** 				case (8U):
1479:/opt/XMClib/XMC_Peripheral_Library_v2.1.16/XMCLib/src/xmc_usbd.c **** 				data.b.mps = 0x3U;
1480:/opt/XMClib/XMC_Peripheral_Library_v2.1.16/XMCLib/src/xmc_usbd.c **** 				break;
1481:/opt/XMClib/XMC_Peripheral_Library_v2.1.16/XMCLib/src/xmc_usbd.c **** 				default:
1482:/opt/XMClib/XMC_Peripheral_Library_v2.1.16/XMCLib/src/xmc_usbd.c **** 				break;
1483:/opt/XMClib/XMC_Peripheral_Library_v2.1.16/XMCLib/src/xmc_usbd.c **** 			}
1484:/opt/XMClib/XMC_Peripheral_Library_v2.1.16/XMCLib/src/xmc_usbd.c **** 		}
1485:/opt/XMClib/XMC_Peripheral_Library_v2.1.16/XMCLib/src/xmc_usbd.c **** 		else
1486:/opt/XMClib/XMC_Peripheral_Library_v2.1.16/XMCLib/src/xmc_usbd.c **** 		{
1487:/opt/XMClib/XMC_Peripheral_Library_v2.1.16/XMCLib/src/xmc_usbd.c **** 			data.b.mps = ep_max_packet_size;
1488:/opt/XMClib/XMC_Peripheral_Library_v2.1.16/XMCLib/src/xmc_usbd.c **** 		}
1489:/opt/XMClib/XMC_Peripheral_Library_v2.1.16/XMCLib/src/xmc_usbd.c **** 		/* set first data0 pid */
1490:/opt/XMClib/XMC_Peripheral_Library_v2.1.16/XMCLib/src/xmc_usbd.c **** 		data.b.setd0pid = 1U;
1491:/opt/XMClib/XMC_Peripheral_Library_v2.1.16/XMCLib/src/xmc_usbd.c **** 		/* clear stall */
1492:/opt/XMClib/XMC_Peripheral_Library_v2.1.16/XMCLib/src/xmc_usbd.c **** 		data.b.stall = 0U;
1493:/opt/XMClib/XMC_Peripheral_Library_v2.1.16/XMCLib/src/xmc_usbd.c **** 		/* set tx fifo */
1494:/opt/XMClib/XMC_Peripheral_Library_v2.1.16/XMCLib/src/xmc_usbd.c **** 		ep->txFifoNum = XMC_USBD_lAssignTXFifo(); /* get tx fifo */
1495:/opt/XMClib/XMC_Peripheral_Library_v2.1.16/XMCLib/src/xmc_usbd.c **** 		data.b.txfnum = ep->txFifoNum;
1496:/opt/XMClib/XMC_Peripheral_Library_v2.1.16/XMCLib/src/xmc_usbd.c **** 		xmc_device.endpoint_in_register[ep->address_u.address_st.number]->diepctl = data.d32; /* configur
1497:/opt/XMClib/XMC_Peripheral_Library_v2.1.16/XMCLib/src/xmc_usbd.c **** 		daintmsk.ep.in |= (uint16_t)((uint16_t)1U << (uint8_t)ep->address_u.address_st.number); /* enable
1498:/opt/XMClib/XMC_Peripheral_Library_v2.1.16/XMCLib/src/xmc_usbd.c ****   }
1499:/opt/XMClib/XMC_Peripheral_Library_v2.1.16/XMCLib/src/xmc_usbd.c ****   if ((ep->address_u.address_st.direction == 0U) || (ep_type == XMC_USBD_ENDPOINT_TYPE_CONTROL))
1500:/opt/XMClib/XMC_Peripheral_Library_v2.1.16/XMCLib/src/xmc_usbd.c ****   {
1501:/opt/XMClib/XMC_Peripheral_Library_v2.1.16/XMCLib/src/xmc_usbd.c ****     /* is out */
1502:/opt/XMClib/XMC_Peripheral_Library_v2.1.16/XMCLib/src/xmc_usbd.c **** 		depctl_data_t data;
1503:/opt/XMClib/XMC_Peripheral_Library_v2.1.16/XMCLib/src/xmc_usbd.c **** 		data.d32 = xmc_device.endpoint_out_register[ep->address_u.address_st.number]->doepctl;
1504:/opt/XMClib/XMC_Peripheral_Library_v2.1.16/XMCLib/src/xmc_usbd.c **** 		/*enable endpoint */
1505:/opt/XMClib/XMC_Peripheral_Library_v2.1.16/XMCLib/src/xmc_usbd.c **** 		data.b.usbactep = 1U;
1506:/opt/XMClib/XMC_Peripheral_Library_v2.1.16/XMCLib/src/xmc_usbd.c **** 		/* set ep type */
1507:/opt/XMClib/XMC_Peripheral_Library_v2.1.16/XMCLib/src/xmc_usbd.c **** 		data.b.eptype = (uint8_t)ep_type;
1508:/opt/XMClib/XMC_Peripheral_Library_v2.1.16/XMCLib/src/xmc_usbd.c ****     /* set mps */
1509:/opt/XMClib/XMC_Peripheral_Library_v2.1.16/XMCLib/src/xmc_usbd.c ****     if (ep_type == XMC_USBD_ENDPOINT_TYPE_CONTROL)
1510:/opt/XMClib/XMC_Peripheral_Library_v2.1.16/XMCLib/src/xmc_usbd.c **** 		{
1511:/opt/XMClib/XMC_Peripheral_Library_v2.1.16/XMCLib/src/xmc_usbd.c **** 			switch(ep_max_packet_size)
1512:/opt/XMClib/XMC_Peripheral_Library_v2.1.16/XMCLib/src/xmc_usbd.c **** 			{
1513:/opt/XMClib/XMC_Peripheral_Library_v2.1.16/XMCLib/src/xmc_usbd.c **** 				case (64U):
1514:/opt/XMClib/XMC_Peripheral_Library_v2.1.16/XMCLib/src/xmc_usbd.c **** 					data.b.mps = 0x0U;
1515:/opt/XMClib/XMC_Peripheral_Library_v2.1.16/XMCLib/src/xmc_usbd.c **** 					break;
1516:/opt/XMClib/XMC_Peripheral_Library_v2.1.16/XMCLib/src/xmc_usbd.c **** 				case (32U):
1517:/opt/XMClib/XMC_Peripheral_Library_v2.1.16/XMCLib/src/xmc_usbd.c **** 					data.b.mps = 0x1U;
1518:/opt/XMClib/XMC_Peripheral_Library_v2.1.16/XMCLib/src/xmc_usbd.c **** 					break;
1519:/opt/XMClib/XMC_Peripheral_Library_v2.1.16/XMCLib/src/xmc_usbd.c **** 				case (16U):
1520:/opt/XMClib/XMC_Peripheral_Library_v2.1.16/XMCLib/src/xmc_usbd.c **** 					data.b.mps = 0x2U;
1521:/opt/XMClib/XMC_Peripheral_Library_v2.1.16/XMCLib/src/xmc_usbd.c **** 					break;
1522:/opt/XMClib/XMC_Peripheral_Library_v2.1.16/XMCLib/src/xmc_usbd.c **** 				case (8U):
1523:/opt/XMClib/XMC_Peripheral_Library_v2.1.16/XMCLib/src/xmc_usbd.c **** 					data.b.mps = 0x3U;
1524:/opt/XMClib/XMC_Peripheral_Library_v2.1.16/XMCLib/src/xmc_usbd.c **** 					break;
1525:/opt/XMClib/XMC_Peripheral_Library_v2.1.16/XMCLib/src/xmc_usbd.c **** 				default:
1526:/opt/XMClib/XMC_Peripheral_Library_v2.1.16/XMCLib/src/xmc_usbd.c **** 					break;
1527:/opt/XMClib/XMC_Peripheral_Library_v2.1.16/XMCLib/src/xmc_usbd.c **** 			}
1528:/opt/XMClib/XMC_Peripheral_Library_v2.1.16/XMCLib/src/xmc_usbd.c **** 		}
1529:/opt/XMClib/XMC_Peripheral_Library_v2.1.16/XMCLib/src/xmc_usbd.c **** 		else
1530:/opt/XMClib/XMC_Peripheral_Library_v2.1.16/XMCLib/src/xmc_usbd.c **** 		{
1531:/opt/XMClib/XMC_Peripheral_Library_v2.1.16/XMCLib/src/xmc_usbd.c **** 			data.b.mps = ep_max_packet_size;
1532:/opt/XMClib/XMC_Peripheral_Library_v2.1.16/XMCLib/src/xmc_usbd.c **** 		}
1533:/opt/XMClib/XMC_Peripheral_Library_v2.1.16/XMCLib/src/xmc_usbd.c **** 		/* set first data0 pid */
1534:/opt/XMClib/XMC_Peripheral_Library_v2.1.16/XMCLib/src/xmc_usbd.c **** 		data.b.setd0pid = 1U;
1535:/opt/XMClib/XMC_Peripheral_Library_v2.1.16/XMCLib/src/xmc_usbd.c **** 		/* clear stall */
1536:/opt/XMClib/XMC_Peripheral_Library_v2.1.16/XMCLib/src/xmc_usbd.c **** 		data.b.stall =(uint8_t) 0U;
1537:/opt/XMClib/XMC_Peripheral_Library_v2.1.16/XMCLib/src/xmc_usbd.c **** 		xmc_device.endpoint_out_register[ep->address_u.address_st.number]->doepctl = data.d32; /* configu
1538:/opt/XMClib/XMC_Peripheral_Library_v2.1.16/XMCLib/src/xmc_usbd.c **** 		daintmsk.ep.out |=(uint16_t) ((uint16_t)1U << (uint8_t)ep->address_u.address_st.number); /* enabl
1539:/opt/XMClib/XMC_Peripheral_Library_v2.1.16/XMCLib/src/xmc_usbd.c ****   }
1540:/opt/XMClib/XMC_Peripheral_Library_v2.1.16/XMCLib/src/xmc_usbd.c ****   xmc_device.device_register->daintmsk = daintmsk.d32;
1541:/opt/XMClib/XMC_Peripheral_Library_v2.1.16/XMCLib/src/xmc_usbd.c ****   return XMC_USBD_STATUS_OK;
1542:/opt/XMClib/XMC_Peripheral_Library_v2.1.16/XMCLib/src/xmc_usbd.c **** }
1543:/opt/XMClib/XMC_Peripheral_Library_v2.1.16/XMCLib/src/xmc_usbd.c **** 
1544:/opt/XMClib/XMC_Peripheral_Library_v2.1.16/XMCLib/src/xmc_usbd.c **** /**
1545:/opt/XMClib/XMC_Peripheral_Library_v2.1.16/XMCLib/src/xmc_usbd.c ****  * Unconfigure the selected endpoint.
1546:/opt/XMClib/XMC_Peripheral_Library_v2.1.16/XMCLib/src/xmc_usbd.c ****  **/
1547:/opt/XMClib/XMC_Peripheral_Library_v2.1.16/XMCLib/src/xmc_usbd.c **** XMC_USBD_STATUS_t XMC_USBD_EndpointUnconfigure(const uint8_t ep_addr) 
1548:/opt/XMClib/XMC_Peripheral_Library_v2.1.16/XMCLib/src/xmc_usbd.c **** {
 1261              		.loc 1 1548 1 view -0
 1262              		.cfi_startproc
 1263              		@ args = 0, pretend = 0, frame = 0
 1264              		@ frame_needed = 0, uses_anonymous_args = 0
1549:/opt/XMClib/XMC_Peripheral_Library_v2.1.16/XMCLib/src/xmc_usbd.c ****   XMC_USBD_EP_t *ep = &xmc_device.ep[ep_addr & (uint8_t)XMC_USBD_ENDPOINT_NUMBER_MASK];
 1265              		.loc 1 1549 3 view .LVU430
 1266              		.loc 1 1549 46 is_stmt 0 view .LVU431
 1267 0000 00F00F00 		and	r0, r0, #15
 1268              	.LVL89:
1550:/opt/XMClib/XMC_Peripheral_Library_v2.1.16/XMCLib/src/xmc_usbd.c ****   depctl_data_t data;
 1269              		.loc 1 1550 3 is_stmt 1 view .LVU432
1551:/opt/XMClib/XMC_Peripheral_Library_v2.1.16/XMCLib/src/xmc_usbd.c **** 	daint_data_t daintmsk;
 1270              		.loc 1 1551 2 view .LVU433
1552:/opt/XMClib/XMC_Peripheral_Library_v2.1.16/XMCLib/src/xmc_usbd.c **** 	XMC_USBD_STATUS_t result;
 1271              		.loc 1 1552 2 view .LVU434
1553:/opt/XMClib/XMC_Peripheral_Library_v2.1.16/XMCLib/src/xmc_usbd.c **** 	uint32_t number_temp;
 1272              		.loc 1 1553 2 view .LVU435
1554:/opt/XMClib/XMC_Peripheral_Library_v2.1.16/XMCLib/src/xmc_usbd.c ****   data.d32 = 0U;  
 1273              		.loc 1 1554 3 view .LVU436
1555:/opt/XMClib/XMC_Peripheral_Library_v2.1.16/XMCLib/src/xmc_usbd.c ****   daintmsk.d32 = xmc_device.device_register->daintmsk;  
 1274              		.loc 1 1555 3 view .LVU437
 1275              		.loc 1 1555 28 is_stmt 0 view .LVU438
 1276 0004 404B     		ldr	r3, .L109
 1277 0006 D3F8A421 		ldr	r2, [r3, #420]
 1278              		.loc 1 1555 44 view .LVU439
 1279 000a D269     		ldr	r2, [r2, #28]
1556:/opt/XMClib/XMC_Peripheral_Library_v2.1.16/XMCLib/src/xmc_usbd.c ****   number_temp = (uint32_t)((uint32_t)1U << (uint8_t)ep->address_u.address_st.number);
 1280              		.loc 1 1556 3 is_stmt 1 view .LVU440
 1281              	.LVL90:
1557:/opt/XMClib/XMC_Peripheral_Library_v2.1.16/XMCLib/src/xmc_usbd.c ****   /* if not configured return an error */
1558:/opt/XMClib/XMC_Peripheral_Library_v2.1.16/XMCLib/src/xmc_usbd.c ****   if (!ep->isConfigured)
 1282              		.loc 1 1558 3 view .LVU441
 1283              		.loc 1 1558 7 is_stmt 0 view .LVU442
 1284 000c 3421     		movs	r1, #52
 1285 000e 01FB0033 		mla	r3, r1, r0, r3
 1286 0012 1B79     		ldrb	r3, [r3, #4]	@ zero_extendqisi2
 1287              		.loc 1 1558 6 view .LVU443
 1288 0014 13F0040F 		tst	r3, #4
 1289 0018 74D0     		beq	.L103
1548:/opt/XMClib/XMC_Peripheral_Library_v2.1.16/XMCLib/src/xmc_usbd.c ****   XMC_USBD_EP_t *ep = &xmc_device.ep[ep_addr & (uint8_t)XMC_USBD_ENDPOINT_NUMBER_MASK];
 1290              		.loc 1 1548 1 view .LVU444
 1291 001a F0B5     		push	{r4, r5, r6, r7, lr}
 1292              	.LCFI13:
 1293              		.cfi_def_cfa_offset 20
 1294              		.cfi_offset 4, -20
 1295              		.cfi_offset 5, -16
 1296              		.cfi_offset 6, -12
 1297              		.cfi_offset 7, -8
 1298              		.cfi_offset 14, -4
 1299 001c 1446     		mov	r4, r2
 1300              	.LVL91:
1556:/opt/XMClib/XMC_Peripheral_Library_v2.1.16/XMCLib/src/xmc_usbd.c ****   number_temp = (uint32_t)((uint32_t)1U << (uint8_t)ep->address_u.address_st.number);
 1301              		.loc 1 1556 77 view .LVU445
 1302 001e 3A4E     		ldr	r6, .L109
 1303 0020 01FB00FC 		mul	ip, r1, r0
 1304 0024 06EB0C03 		add	r3, r6, ip
 1305 0028 16F80C10 		ldrb	r1, [r6, ip]	@ zero_extendqisi2
1556:/opt/XMClib/XMC_Peripheral_Library_v2.1.16/XMCLib/src/xmc_usbd.c ****   number_temp = (uint32_t)((uint32_t)1U << (uint8_t)ep->address_u.address_st.number);
 1306              		.loc 1 1556 44 view .LVU446
 1307 002c 01F00F01 		and	r1, r1, #15
1556:/opt/XMClib/XMC_Peripheral_Library_v2.1.16/XMCLib/src/xmc_usbd.c ****   number_temp = (uint32_t)((uint32_t)1U << (uint8_t)ep->address_u.address_st.number);
 1308              		.loc 1 1556 15 view .LVU447
 1309 0030 0125     		movs	r5, #1
 1310 0032 8D40     		lsls	r5, r5, r1
1559:/opt/XMClib/XMC_Peripheral_Library_v2.1.16/XMCLib/src/xmc_usbd.c ****   {
1560:/opt/XMClib/XMC_Peripheral_Library_v2.1.16/XMCLib/src/xmc_usbd.c ****      result = XMC_USBD_STATUS_ERROR;
1561:/opt/XMClib/XMC_Peripheral_Library_v2.1.16/XMCLib/src/xmc_usbd.c ****   }
1562:/opt/XMClib/XMC_Peripheral_Library_v2.1.16/XMCLib/src/xmc_usbd.c ****   else
1563:/opt/XMClib/XMC_Peripheral_Library_v2.1.16/XMCLib/src/xmc_usbd.c ****   {
1564:/opt/XMClib/XMC_Peripheral_Library_v2.1.16/XMCLib/src/xmc_usbd.c ****     /* disable the endpoint, deactivate it and only send naks */
1565:/opt/XMClib/XMC_Peripheral_Library_v2.1.16/XMCLib/src/xmc_usbd.c ****     data.b.usbactep = 0U;
 1311              		.loc 1 1565 5 is_stmt 1 view .LVU448
1566:/opt/XMClib/XMC_Peripheral_Library_v2.1.16/XMCLib/src/xmc_usbd.c ****     data.b.epdis =  1U;
 1312              		.loc 1 1566 5 view .LVU449
1567:/opt/XMClib/XMC_Peripheral_Library_v2.1.16/XMCLib/src/xmc_usbd.c ****     data.b.snak =  1U;
 1313              		.loc 1 1567 5 view .LVU450
1568:/opt/XMClib/XMC_Peripheral_Library_v2.1.16/XMCLib/src/xmc_usbd.c ****     data.b.stall =  0U;
 1314              		.loc 1 1568 5 view .LVU451
1569:/opt/XMClib/XMC_Peripheral_Library_v2.1.16/XMCLib/src/xmc_usbd.c ****     ep->isConfigured =  0U;
 1315              		.loc 1 1569 5 view .LVU452
 1316              		.loc 1 1569 22 is_stmt 0 view .LVU453
 1317 0034 93F804E0 		ldrb	lr, [r3, #4]	@ zero_extendqisi2
1570:/opt/XMClib/XMC_Peripheral_Library_v2.1.16/XMCLib/src/xmc_usbd.c ****     ep->isStalled =  0U;
 1318              		.loc 1 1570 5 is_stmt 1 view .LVU454
 1319              		.loc 1 1570 19 is_stmt 0 view .LVU455
 1320 0038 0EF0FB0E 		and	lr, lr, #251
 1321 003c 2EF0200E 		bic	lr, lr, #32
 1322 0040 83F804E0 		strb	lr, [r3, #4]
1571:/opt/XMClib/XMC_Peripheral_Library_v2.1.16/XMCLib/src/xmc_usbd.c ****     ep->outInUse =  0U;
 1323              		.loc 1 1571 5 is_stmt 1 view .LVU456
 1324              		.loc 1 1571 18 is_stmt 0 view .LVU457
 1325 0044 5F68     		ldr	r7, [r3, #4]
 1326 0046 27F01007 		bic	r7, r7, #16
 1327 004a 5F60     		str	r7, [r3, #4]
 1328              	.LVL92:
1572:/opt/XMClib/XMC_Peripheral_Library_v2.1.16/XMCLib/src/xmc_usbd.c ****     ep->inInUse =  0U;
 1329              		.loc 1 1572 5 is_stmt 1 view .LVU458
 1330              		.loc 1 1572 17 is_stmt 0 view .LVU459
 1331 004c 5F68     		ldr	r7, [r3, #4]
 1332 004e 27F00807 		bic	r7, r7, #8
 1333 0052 5F60     		str	r7, [r3, #4]
1573:/opt/XMClib/XMC_Peripheral_Library_v2.1.16/XMCLib/src/xmc_usbd.c ****     /* chose register based on the direction. Control Endpoint need both */
1574:/opt/XMClib/XMC_Peripheral_Library_v2.1.16/XMCLib/src/xmc_usbd.c ****     if ((ep->address_u.address_st.direction == 1U) || (ep->type == (uint8_t)XMC_USBD_ENDPOINT_TYPE_
 1334              		.loc 1 1574 5 is_stmt 1 view .LVU460
 1335              		.loc 1 1574 8 is_stmt 0 view .LVU461
 1336 0054 16F90C30 		ldrsb	r3, [r6, ip]
 1337 0058 002B     		cmp	r3, #0
 1338 005a 07DB     		blt	.L100
 1339              		.loc 1 1574 65 discriminator 1 view .LVU462
 1340 005c 3346     		mov	r3, r6
 1341 005e 3426     		movs	r6, #52
 1342 0060 06FB0033 		mla	r3, r6, r0, r3
 1343 0064 1B79     		ldrb	r3, [r3, #4]	@ zero_extendqisi2
 1344              		.loc 1 1574 52 discriminator 1 view .LVU463
 1345 0066 13F0030F 		tst	r3, #3
 1346 006a 17D1     		bne	.L101
 1347              	.L100:
1575:/opt/XMClib/XMC_Peripheral_Library_v2.1.16/XMCLib/src/xmc_usbd.c ****     {
1576:/opt/XMClib/XMC_Peripheral_Library_v2.1.16/XMCLib/src/xmc_usbd.c ****       /* disable endpoint configuration */
1577:/opt/XMClib/XMC_Peripheral_Library_v2.1.16/XMCLib/src/xmc_usbd.c ****       xmc_device.endpoint_in_register[ep->address_u.address_st.number]->diepctl = data.d32;
 1348              		.loc 1 1577 7 is_stmt 1 view .LVU464
 1349              		.loc 1 1577 38 is_stmt 0 view .LVU465
 1350 006c 264E     		ldr	r6, .L109
 1351 006e 6A31     		adds	r1, r1, #106
 1352 0070 56F82130 		ldr	r3, [r6, r1, lsl #2]
 1353              		.loc 1 1577 81 view .LVU466
 1354 0074 4FF09041 		mov	r1, #1207959552
 1355 0078 1960     		str	r1, [r3]
1578:/opt/XMClib/XMC_Peripheral_Library_v2.1.16/XMCLib/src/xmc_usbd.c ****       /* disable interrupts */
1579:/opt/XMClib/XMC_Peripheral_Library_v2.1.16/XMCLib/src/xmc_usbd.c ****       daintmsk.ep.in = (uint16_t)((uint32_t)daintmsk.ep.in & (~(uint32_t)number_temp));
 1356              		.loc 1 1579 7 is_stmt 1 view .LVU467
 1357              		.loc 1 1579 24 is_stmt 0 view .LVU468
 1358 007a 22EA0503 		bic	r3, r2, r5
 1359              		.loc 1 1579 22 view .LVU469
 1360 007e 63F30F04 		bfi	r4, r3, #0, #16
 1361              	.LVL93:
1580:/opt/XMClib/XMC_Peripheral_Library_v2.1.16/XMCLib/src/xmc_usbd.c ****     }
1581:/opt/XMClib/XMC_Peripheral_Library_v2.1.16/XMCLib/src/xmc_usbd.c ****     if ((ep->address_u.address_st.direction == 0U) || (ep->type == (uint8_t)XMC_USBD_ENDPOINT_TYPE_
 1362              		.loc 1 1581 5 is_stmt 1 view .LVU470
 1363              		.loc 1 1581 45 is_stmt 0 view .LVU471
 1364 0082 3423     		movs	r3, #52
 1365 0084 00FB03F3 		mul	r3, r0, r3
 1366              		.loc 1 1581 8 view .LVU472
 1367 0088 F356     		ldrsb	r3, [r6, r3]
 1368 008a 002B     		cmp	r3, #0
 1369 008c 06DA     		bge	.L101
 1370              		.loc 1 1581 65 discriminator 1 view .LVU473
 1371 008e 3421     		movs	r1, #52
 1372 0090 01FB0063 		mla	r3, r1, r0, r6
 1373 0094 1B79     		ldrb	r3, [r3, #4]	@ zero_extendqisi2
 1374              		.loc 1 1581 52 discriminator 1 view .LVU474
 1375 0096 13F0030F 		tst	r3, #3
 1376 009a 18D1     		bne	.L102
 1377              	.L101:
1582:/opt/XMClib/XMC_Peripheral_Library_v2.1.16/XMCLib/src/xmc_usbd.c ****     {
1583:/opt/XMClib/XMC_Peripheral_Library_v2.1.16/XMCLib/src/xmc_usbd.c ****       xmc_device.endpoint_out_register[ep->address_u.address_st.number]->doepctl = data.d32;
 1378              		.loc 1 1583 7 is_stmt 1 view .LVU475
 1379              		.loc 1 1583 39 is_stmt 0 view .LVU476
 1380 009c 1A49     		ldr	r1, .L109
 1381              		.loc 1 1583 64 view .LVU477
 1382 009e 3423     		movs	r3, #52
 1383 00a0 00FB03F3 		mul	r3, r0, r3
 1384 00a4 CB5C     		ldrb	r3, [r1, r3]	@ zero_extendqisi2
 1385 00a6 03F00F03 		and	r3, r3, #15
 1386              		.loc 1 1583 39 view .LVU478
 1387 00aa 01EB8303 		add	r3, r1, r3, lsl #2
 1388 00ae D3F8C431 		ldr	r3, [r3, #452]
 1389              		.loc 1 1583 82 view .LVU479
 1390 00b2 4FF09046 		mov	r6, #1207959552
 1391 00b6 1E60     		str	r6, [r3]
1584:/opt/XMClib/XMC_Peripheral_Library_v2.1.16/XMCLib/src/xmc_usbd.c ****       daintmsk.ep.out = (uint16_t)((uint32_t)daintmsk.ep.out & (~(uint32_t)number_temp));
 1392              		.loc 1 1584 7 is_stmt 1 view .LVU480
 1393              		.loc 1 1584 25 is_stmt 0 view .LVU481
 1394 00b8 C2F30F42 		ubfx	r2, r2, #16, #16
 1395 00bc 22EA0502 		bic	r2, r2, r5
 1396              		.loc 1 1584 23 view .LVU482
 1397 00c0 62F31F44 		bfi	r4, r2, #16, #16
1585:/opt/XMClib/XMC_Peripheral_Library_v2.1.16/XMCLib/src/xmc_usbd.c ****       if(usbd_init->usbd_transfer_mode == XMC_USBD_USE_FIFO)
 1398              		.loc 1 1585 7 is_stmt 1 view .LVU483
 1399              		.loc 1 1585 19 is_stmt 0 view .LVU484
 1400 00c4 D1F80832 		ldr	r3, [r1, #520]
 1401              		.loc 1 1585 9 view .LVU485
 1402 00c8 5B7B     		ldrb	r3, [r3, #13]	@ zero_extendqisi2
 1403 00ca 012B     		cmp	r3, #1
 1404 00cc 13D0     		beq	.L108
 1405              	.L102:
1586:/opt/XMClib/XMC_Peripheral_Library_v2.1.16/XMCLib/src/xmc_usbd.c ****       {
1587:/opt/XMClib/XMC_Peripheral_Library_v2.1.16/XMCLib/src/xmc_usbd.c ****         xmc_device.device_register->dtknqr4_fifoemptymsk &= ~number_temp;
1588:/opt/XMClib/XMC_Peripheral_Library_v2.1.16/XMCLib/src/xmc_usbd.c ****       }
1589:/opt/XMClib/XMC_Peripheral_Library_v2.1.16/XMCLib/src/xmc_usbd.c ****     }
1590:/opt/XMClib/XMC_Peripheral_Library_v2.1.16/XMCLib/src/xmc_usbd.c ****     xmc_device.device_register->daintmsk = daintmsk.d32;
 1406              		.loc 1 1590 5 is_stmt 1 view .LVU486
 1407              		.loc 1 1590 15 is_stmt 0 view .LVU487
 1408 00ce 0E4B     		ldr	r3, .L109
 1409 00d0 D3F8A421 		ldr	r2, [r3, #420]
 1410              		.loc 1 1590 42 view .LVU488
 1411 00d4 D461     		str	r4, [r2, #28]
1591:/opt/XMClib/XMC_Peripheral_Library_v2.1.16/XMCLib/src/xmc_usbd.c ****     XMC_USBD_lUnassignFifo(ep->txFifoNum); /* free fifo */
 1412              		.loc 1 1591 5 is_stmt 1 view .LVU489
 1413              	.LVL94:
 1414              	.LBB5:
 1415              	.LBI5:
 382:/opt/XMClib/XMC_Peripheral_Library_v2.1.16/XMCLib/src/xmc_usbd.c **** {
 1416              		.loc 1 382 13 view .LVU490
 1417              	.LBB6:
 384:/opt/XMClib/XMC_Peripheral_Library_v2.1.16/XMCLib/src/xmc_usbd.c **** }
 1418              		.loc 1 384 3 view .LVU491
 1419              	.LBE6:
 1420              	.LBE5:
 1421              		.loc 1 1591 30 is_stmt 0 view .LVU492
 1422 00d6 3422     		movs	r2, #52
 1423 00d8 02FB0030 		mla	r0, r2, r0, r3
 1424              	.LVL95:
 1425              		.loc 1 1591 30 view .LVU493
 1426 00dc 8288     		ldrh	r2, [r0, #4]
 1427              	.LBB8:
 1428              	.LBB7:
 384:/opt/XMClib/XMC_Peripheral_Library_v2.1.16/XMCLib/src/xmc_usbd.c **** }
 1429              		.loc 1 384 83 view .LVU494
 1430 00de C2F38312 		ubfx	r2, r2, #6, #4
 1431 00e2 0121     		movs	r1, #1
 1432 00e4 9140     		lsls	r1, r1, r2
 384:/opt/XMClib/XMC_Peripheral_Library_v2.1.16/XMCLib/src/xmc_usbd.c **** }
 1433              		.loc 1 384 26 view .LVU495
 1434 00e6 B3F8FC21 		ldrh	r2, [r3, #508]
 1435 00ea 22EA0102 		bic	r2, r2, r1
 384:/opt/XMClib/XMC_Peripheral_Library_v2.1.16/XMCLib/src/xmc_usbd.c **** }
 1436              		.loc 1 384 24 view .LVU496
 1437 00ee A3F8FC21 		strh	r2, [r3, #508]	@ movhi
 1438              	.LVL96:
 384:/opt/XMClib/XMC_Peripheral_Library_v2.1.16/XMCLib/src/xmc_usbd.c **** }
 1439              		.loc 1 384 24 view .LVU497
 1440              	.LBE7:
 1441              	.LBE8:
1592:/opt/XMClib/XMC_Peripheral_Library_v2.1.16/XMCLib/src/xmc_usbd.c ****     result = XMC_USBD_STATUS_OK;
 1442              		.loc 1 1592 5 is_stmt 1 view .LVU498
 1443              		.loc 1 1592 12 is_stmt 0 view .LVU499
 1444 00f2 0020     		movs	r0, #0
 1445              	.LVL97:
1593:/opt/XMClib/XMC_Peripheral_Library_v2.1.16/XMCLib/src/xmc_usbd.c ****   }
1594:/opt/XMClib/XMC_Peripheral_Library_v2.1.16/XMCLib/src/xmc_usbd.c ****   return result;
 1446              		.loc 1 1594 3 is_stmt 1 view .LVU500
1595:/opt/XMClib/XMC_Peripheral_Library_v2.1.16/XMCLib/src/xmc_usbd.c **** }
 1447              		.loc 1 1595 1 is_stmt 0 view .LVU501
 1448 00f4 F0BD     		pop	{r4, r5, r6, r7, pc}
 1449              	.LVL98:
 1450              	.L108:
1587:/opt/XMClib/XMC_Peripheral_Library_v2.1.16/XMCLib/src/xmc_usbd.c ****       }
 1451              		.loc 1 1587 9 is_stmt 1 view .LVU502
1587:/opt/XMClib/XMC_Peripheral_Library_v2.1.16/XMCLib/src/xmc_usbd.c ****       }
 1452              		.loc 1 1587 19 is_stmt 0 view .LVU503
 1453 00f6 D1F8A421 		ldr	r2, [r1, #420]
1587:/opt/XMClib/XMC_Peripheral_Library_v2.1.16/XMCLib/src/xmc_usbd.c ****       }
 1454              		.loc 1 1587 35 view .LVU504
 1455 00fa 536B     		ldr	r3, [r2, #52]
1587:/opt/XMClib/XMC_Peripheral_Library_v2.1.16/XMCLib/src/xmc_usbd.c ****       }
 1456              		.loc 1 1587 58 view .LVU505
 1457 00fc 23EA0503 		bic	r3, r3, r5
 1458 0100 5363     		str	r3, [r2, #52]
 1459 0102 E4E7     		b	.L102
 1460              	.LVL99:
 1461              	.L103:
 1462              	.LCFI14:
 1463              		.cfi_def_cfa_offset 0
 1464              		.cfi_restore 4
 1465              		.cfi_restore 5
 1466              		.cfi_restore 6
 1467              		.cfi_restore 7
 1468              		.cfi_restore 14
1560:/opt/XMClib/XMC_Peripheral_Library_v2.1.16/XMCLib/src/xmc_usbd.c ****   }
 1469              		.loc 1 1560 13 view .LVU506
 1470 0104 0120     		movs	r0, #1
 1471              	.LVL100:
1594:/opt/XMClib/XMC_Peripheral_Library_v2.1.16/XMCLib/src/xmc_usbd.c **** }
 1472              		.loc 1 1594 3 is_stmt 1 view .LVU507
 1473              		.loc 1 1595 1 is_stmt 0 view .LVU508
 1474 0106 7047     		bx	lr
 1475              	.L110:
 1476              		.align	2
 1477              	.L109:
 1478 0108 00000000 		.word	.LANCHOR0
 1479              		.cfi_endproc
 1480              	.LFE199:
 1482              		.section	.text.XMC_USBD_GetFrameNumber,"ax",%progbits
 1483              		.align	1
 1484              		.global	XMC_USBD_GetFrameNumber
 1485              		.syntax unified
 1486              		.thumb
 1487              		.thumb_func
 1489              	XMC_USBD_GetFrameNumber:
 1490              	.LFB200:
1596:/opt/XMClib/XMC_Peripheral_Library_v2.1.16/XMCLib/src/xmc_usbd.c **** 
1597:/opt/XMClib/XMC_Peripheral_Library_v2.1.16/XMCLib/src/xmc_usbd.c **** /**
1598:/opt/XMClib/XMC_Peripheral_Library_v2.1.16/XMCLib/src/xmc_usbd.c ****  * Gets the current USB frame number
1599:/opt/XMClib/XMC_Peripheral_Library_v2.1.16/XMCLib/src/xmc_usbd.c ****  **/
1600:/opt/XMClib/XMC_Peripheral_Library_v2.1.16/XMCLib/src/xmc_usbd.c **** uint16_t XMC_USBD_GetFrameNumber(void) 
1601:/opt/XMClib/XMC_Peripheral_Library_v2.1.16/XMCLib/src/xmc_usbd.c **** {
 1491              		.loc 1 1601 1 is_stmt 1 view -0
 1492              		.cfi_startproc
 1493              		@ args = 0, pretend = 0, frame = 0
 1494              		@ frame_needed = 0, uses_anonymous_args = 0
 1495              		@ link register save eliminated.
1602:/opt/XMClib/XMC_Peripheral_Library_v2.1.16/XMCLib/src/xmc_usbd.c ****   uint16_t result;
 1496              		.loc 1 1602 3 view .LVU510
1603:/opt/XMClib/XMC_Peripheral_Library_v2.1.16/XMCLib/src/xmc_usbd.c ****   dsts_data_t dsts;
 1497              		.loc 1 1603 3 view .LVU511
1604:/opt/XMClib/XMC_Peripheral_Library_v2.1.16/XMCLib/src/xmc_usbd.c ****   dsts.d32 = xmc_device.device_register->dsts;
 1498              		.loc 1 1604 3 view .LVU512
 1499              		.loc 1 1604 24 is_stmt 0 view .LVU513
 1500 0000 034B     		ldr	r3, .L112
 1501 0002 D3F8A431 		ldr	r3, [r3, #420]
 1502              		.loc 1 1604 40 view .LVU514
 1503 0006 9868     		ldr	r0, [r3, #8]
1605:/opt/XMClib/XMC_Peripheral_Library_v2.1.16/XMCLib/src/xmc_usbd.c ****   result = (uint16_t)dsts.b.soffn;
 1504              		.loc 1 1605 3 is_stmt 1 view .LVU515
 1505              	.LVL101:
1606:/opt/XMClib/XMC_Peripheral_Library_v2.1.16/XMCLib/src/xmc_usbd.c ****   return result;
 1506              		.loc 1 1606 3 view .LVU516
1607:/opt/XMClib/XMC_Peripheral_Library_v2.1.16/XMCLib/src/xmc_usbd.c **** }
 1507              		.loc 1 1607 1 is_stmt 0 view .LVU517
 1508 0008 C0F30D20 		ubfx	r0, r0, #8, #14
 1509              	.LVL102:
 1510              		.loc 1 1607 1 view .LVU518
 1511 000c 7047     		bx	lr
 1512              	.L113:
 1513 000e 00BF     		.align	2
 1514              	.L112:
 1515 0010 00000000 		.word	.LANCHOR0
 1516              		.cfi_endproc
 1517              	.LFE200:
 1519              		.section	.text.XMC_USBD_IsEnumDone,"ax",%progbits
 1520              		.align	1
 1521              		.global	XMC_USBD_IsEnumDone
 1522              		.syntax unified
 1523              		.thumb
 1524              		.thumb_func
 1526              	XMC_USBD_IsEnumDone:
 1527              	.LFB201:
1608:/opt/XMClib/XMC_Peripheral_Library_v2.1.16/XMCLib/src/xmc_usbd.c **** 
1609:/opt/XMClib/XMC_Peripheral_Library_v2.1.16/XMCLib/src/xmc_usbd.c **** /**
1610:/opt/XMClib/XMC_Peripheral_Library_v2.1.16/XMCLib/src/xmc_usbd.c ****  * Gets the USB speed enumeration completion status.
1611:/opt/XMClib/XMC_Peripheral_Library_v2.1.16/XMCLib/src/xmc_usbd.c ****  * This should not be used for the actual USB enumeration completion status. For the actual USB enu
1612:/opt/XMClib/XMC_Peripheral_Library_v2.1.16/XMCLib/src/xmc_usbd.c ****  * the application layer should check for the completion of USB standard request Set configuration.
1613:/opt/XMClib/XMC_Peripheral_Library_v2.1.16/XMCLib/src/xmc_usbd.c ****  **/
1614:/opt/XMClib/XMC_Peripheral_Library_v2.1.16/XMCLib/src/xmc_usbd.c **** uint32_t XMC_USBD_IsEnumDone(void)
1615:/opt/XMClib/XMC_Peripheral_Library_v2.1.16/XMCLib/src/xmc_usbd.c **** {
 1528              		.loc 1 1615 1 is_stmt 1 view -0
 1529              		.cfi_startproc
 1530              		@ args = 0, pretend = 0, frame = 0
 1531              		@ frame_needed = 0, uses_anonymous_args = 0
 1532              		@ link register save eliminated.
1616:/opt/XMClib/XMC_Peripheral_Library_v2.1.16/XMCLib/src/xmc_usbd.c ****   return (uint32_t)((uint8_t)xmc_device.IsConnected && (uint8_t)xmc_device.IsPowered);
 1533              		.loc 1 1616 3 view .LVU520
 1534              		.loc 1 1616 53 is_stmt 0 view .LVU521
 1535 0000 044B     		ldr	r3, .L115
 1536 0002 93F8FE01 		ldrb	r0, [r3, #510]	@ zero_extendqisi2
 1537 0006 00F00500 		and	r0, r0, #5
1617:/opt/XMClib/XMC_Peripheral_Library_v2.1.16/XMCLib/src/xmc_usbd.c **** }
 1538              		.loc 1 1617 1 view .LVU522
 1539 000a 0528     		cmp	r0, #5
 1540 000c 14BF     		ite	ne
 1541 000e 0020     		movne	r0, #0
 1542 0010 0120     		moveq	r0, #1
 1543 0012 7047     		bx	lr
 1544              	.L116:
 1545              		.align	2
 1546              	.L115:
 1547 0014 00000000 		.word	.LANCHOR0
 1548              		.cfi_endproc
 1549              	.LFE201:
 1551              		.section	.text.XMC_USBD_Uninitialize,"ax",%progbits
 1552              		.align	1
 1553              		.global	XMC_USBD_Uninitialize
 1554              		.syntax unified
 1555              		.thumb
 1556              		.thumb_func
 1558              	XMC_USBD_Uninitialize:
 1559              	.LFB188:
1201:/opt/XMClib/XMC_Peripheral_Library_v2.1.16/XMCLib/src/xmc_usbd.c ****   /* Disconnect the device */
 1560              		.loc 1 1201 1 is_stmt 1 view -0
 1561              		.cfi_startproc
 1562              		@ args = 0, pretend = 0, frame = 0
 1563              		@ frame_needed = 0, uses_anonymous_args = 0
 1564 0000 08B5     		push	{r3, lr}
 1565              	.LCFI15:
 1566              		.cfi_def_cfa_offset 8
 1567              		.cfi_offset 3, -8
 1568              		.cfi_offset 14, -4
1203:/opt/XMClib/XMC_Peripheral_Library_v2.1.16/XMCLib/src/xmc_usbd.c **** 	dctl.d32 = xmc_device.device_register->dctl;
 1569              		.loc 1 1203 3 view .LVU524
1204:/opt/XMClib/XMC_Peripheral_Library_v2.1.16/XMCLib/src/xmc_usbd.c ****   dctl.b.sftdiscon = 1U;
 1570              		.loc 1 1204 2 view .LVU525
1204:/opt/XMClib/XMC_Peripheral_Library_v2.1.16/XMCLib/src/xmc_usbd.c ****   dctl.b.sftdiscon = 1U;
 1571              		.loc 1 1204 23 is_stmt 0 view .LVU526
 1572 0002 0748     		ldr	r0, .L119
 1573 0004 D0F8A421 		ldr	r2, [r0, #420]
1204:/opt/XMClib/XMC_Peripheral_Library_v2.1.16/XMCLib/src/xmc_usbd.c ****   dctl.b.sftdiscon = 1U;
 1574              		.loc 1 1204 39 view .LVU527
 1575 0008 5368     		ldr	r3, [r2, #4]
1205:/opt/XMClib/XMC_Peripheral_Library_v2.1.16/XMCLib/src/xmc_usbd.c ****   xmc_device.device_register->dctl = dctl.d32;
 1576              		.loc 1 1205 3 is_stmt 1 view .LVU528
1205:/opt/XMClib/XMC_Peripheral_Library_v2.1.16/XMCLib/src/xmc_usbd.c ****   xmc_device.device_register->dctl = dctl.d32;
 1577              		.loc 1 1205 20 is_stmt 0 view .LVU529
 1578 000a 43F00203 		orr	r3, r3, #2
 1579              	.LVL103:
1206:/opt/XMClib/XMC_Peripheral_Library_v2.1.16/XMCLib/src/xmc_usbd.c ****   /* clean up */
 1580              		.loc 1 1206 3 is_stmt 1 view .LVU530
1206:/opt/XMClib/XMC_Peripheral_Library_v2.1.16/XMCLib/src/xmc_usbd.c ****   /* clean up */
 1581              		.loc 1 1206 36 is_stmt 0 view .LVU531
 1582 000e 5360     		str	r3, [r2, #4]
1208:/opt/XMClib/XMC_Peripheral_Library_v2.1.16/XMCLib/src/xmc_usbd.c ****   return XMC_USBD_STATUS_OK;
 1583              		.loc 1 1208 3 is_stmt 1 view .LVU532
 1584 0010 4FF40272 		mov	r2, #520
 1585 0014 0021     		movs	r1, #0
 1586 0016 FFF7FEFF 		bl	memset
 1587              	.LVL104:
1209:/opt/XMClib/XMC_Peripheral_Library_v2.1.16/XMCLib/src/xmc_usbd.c **** }
 1588              		.loc 1 1209 3 view .LVU533
1210:/opt/XMClib/XMC_Peripheral_Library_v2.1.16/XMCLib/src/xmc_usbd.c **** 
 1589              		.loc 1 1210 1 is_stmt 0 view .LVU534
 1590 001a 0020     		movs	r0, #0
 1591 001c 08BD     		pop	{r3, pc}
 1592              	.L120:
 1593 001e 00BF     		.align	2
 1594              	.L119:
 1595 0020 00000000 		.word	.LANCHOR0
 1596              		.cfi_endproc
 1597              	.LFE188:
 1599              		.section	.text.XMC_USBD_EndpointConfigure,"ax",%progbits
 1600              		.align	1
 1601              		.global	XMC_USBD_EndpointConfigure
 1602              		.syntax unified
 1603              		.thumb
 1604              		.thumb_func
 1606              	XMC_USBD_EndpointConfigure:
 1607              	.LVL105:
 1608              	.LFB198:
1431:/opt/XMClib/XMC_Peripheral_Library_v2.1.16/XMCLib/src/xmc_usbd.c ****   daint_data_t daintmsk;
 1609              		.loc 1 1431 1 is_stmt 1 view -0
 1610              		.cfi_startproc
 1611              		@ args = 0, pretend = 0, frame = 8
 1612              		@ frame_needed = 0, uses_anonymous_args = 0
1431:/opt/XMClib/XMC_Peripheral_Library_v2.1.16/XMCLib/src/xmc_usbd.c ****   daint_data_t daintmsk;
 1613              		.loc 1 1431 1 is_stmt 0 view .LVU536
 1614 0000 2DE9F04F 		push	{r4, r5, r6, r7, r8, r9, r10, fp, lr}
 1615              	.LCFI16:
 1616              		.cfi_def_cfa_offset 36
 1617              		.cfi_offset 4, -36
 1618              		.cfi_offset 5, -32
 1619              		.cfi_offset 6, -28
 1620              		.cfi_offset 7, -24
 1621              		.cfi_offset 8, -20
 1622              		.cfi_offset 9, -16
 1623              		.cfi_offset 10, -12
 1624              		.cfi_offset 11, -8
 1625              		.cfi_offset 14, -4
 1626 0004 83B0     		sub	sp, sp, #12
 1627              	.LCFI17:
 1628              		.cfi_def_cfa_offset 48
 1629 0006 0546     		mov	r5, r0
 1630 0008 0F46     		mov	r7, r1
 1631 000a 1446     		mov	r4, r2
1432:/opt/XMClib/XMC_Peripheral_Library_v2.1.16/XMCLib/src/xmc_usbd.c ****   XMC_USBD_EP_t *ep;
 1632              		.loc 1 1432 3 is_stmt 1 view .LVU537
1433:/opt/XMClib/XMC_Peripheral_Library_v2.1.16/XMCLib/src/xmc_usbd.c ****   daintmsk.d32 = xmc_device.device_register->daintmsk;  
 1633              		.loc 1 1433 3 view .LVU538
1434:/opt/XMClib/XMC_Peripheral_Library_v2.1.16/XMCLib/src/xmc_usbd.c ****   ep =&xmc_device.ep[ep_addr & (uint32_t)XMC_USBD_ENDPOINT_NUMBER_MASK];
 1634              		.loc 1 1434 3 view .LVU539
1434:/opt/XMClib/XMC_Peripheral_Library_v2.1.16/XMCLib/src/xmc_usbd.c ****   ep =&xmc_device.ep[ep_addr & (uint32_t)XMC_USBD_ENDPOINT_NUMBER_MASK];
 1635              		.loc 1 1434 28 is_stmt 0 view .LVU540
 1636 000c DFF86492 		ldr	r9, .L157+4
 1637 0010 D9F8A431 		ldr	r3, [r9, #420]
1434:/opt/XMClib/XMC_Peripheral_Library_v2.1.16/XMCLib/src/xmc_usbd.c ****   ep =&xmc_device.ep[ep_addr & (uint32_t)XMC_USBD_ENDPOINT_NUMBER_MASK];
 1638              		.loc 1 1434 44 view .LVU541
 1639 0014 DB69     		ldr	r3, [r3, #28]
 1640 0016 0193     		str	r3, [sp, #4]
1434:/opt/XMClib/XMC_Peripheral_Library_v2.1.16/XMCLib/src/xmc_usbd.c ****   ep =&xmc_device.ep[ep_addr & (uint32_t)XMC_USBD_ENDPOINT_NUMBER_MASK];
 1641              		.loc 1 1434 16 view .LVU542
 1642 0018 9A46     		mov	r10, r3
 1643              	.LVL106:
1435:/opt/XMClib/XMC_Peripheral_Library_v2.1.16/XMCLib/src/xmc_usbd.c ****   memset((void*)ep,0x0U,sizeof(XMC_USBD_EP_t)); /* clear endpoint structure */
 1644              		.loc 1 1435 3 is_stmt 1 view .LVU543
1435:/opt/XMClib/XMC_Peripheral_Library_v2.1.16/XMCLib/src/xmc_usbd.c ****   memset((void*)ep,0x0U,sizeof(XMC_USBD_EP_t)); /* clear endpoint structure */
 1645              		.loc 1 1435 30 is_stmt 0 view .LVU544
 1646 001a 00F00F08 		and	r8, r0, #15
 1647              	.LVL107:
1436:/opt/XMClib/XMC_Peripheral_Library_v2.1.16/XMCLib/src/xmc_usbd.c ****   /* do ep configuration */
 1648              		.loc 1 1436 3 is_stmt 1 view .LVU545
1435:/opt/XMClib/XMC_Peripheral_Library_v2.1.16/XMCLib/src/xmc_usbd.c ****   memset((void*)ep,0x0U,sizeof(XMC_USBD_EP_t)); /* clear endpoint structure */
 1649              		.loc 1 1435 6 is_stmt 0 view .LVU546
 1650 001e 3422     		movs	r2, #52
 1651              	.LVL108:
1435:/opt/XMClib/XMC_Peripheral_Library_v2.1.16/XMCLib/src/xmc_usbd.c ****   memset((void*)ep,0x0U,sizeof(XMC_USBD_EP_t)); /* clear endpoint structure */
 1652              		.loc 1 1435 6 view .LVU547
 1653 0020 02FB08FB 		mul	fp, r2, r8
 1654 0024 09EB0B06 		add	r6, r9, fp
1436:/opt/XMClib/XMC_Peripheral_Library_v2.1.16/XMCLib/src/xmc_usbd.c ****   /* do ep configuration */
 1655              		.loc 1 1436 3 view .LVU548
 1656 0028 0021     		movs	r1, #0
 1657              	.LVL109:
1436:/opt/XMClib/XMC_Peripheral_Library_v2.1.16/XMCLib/src/xmc_usbd.c ****   /* do ep configuration */
 1658              		.loc 1 1436 3 view .LVU549
 1659 002a 3046     		mov	r0, r6
 1660              	.LVL110:
1436:/opt/XMClib/XMC_Peripheral_Library_v2.1.16/XMCLib/src/xmc_usbd.c ****   /* do ep configuration */
 1661              		.loc 1 1436 3 view .LVU550
 1662 002c FFF7FEFF 		bl	memset
 1663              	.LVL111:
1438:/opt/XMClib/XMC_Peripheral_Library_v2.1.16/XMCLib/src/xmc_usbd.c ****   ep->isConfigured = 1U;
 1664              		.loc 1 1438 3 is_stmt 1 view .LVU551
1438:/opt/XMClib/XMC_Peripheral_Library_v2.1.16/XMCLib/src/xmc_usbd.c ****   ep->isConfigured = 1U;
 1665              		.loc 1 1438 25 is_stmt 0 view .LVU552
 1666 0030 09F80B50 		strb	r5, [r9, fp]
1439:/opt/XMClib/XMC_Peripheral_Library_v2.1.16/XMCLib/src/xmc_usbd.c ****   ep->maxPacketSize = (uint8_t)ep_max_packet_size;
 1667              		.loc 1 1439 3 is_stmt 1 view .LVU553
1439:/opt/XMClib/XMC_Peripheral_Library_v2.1.16/XMCLib/src/xmc_usbd.c ****   ep->maxPacketSize = (uint8_t)ep_max_packet_size;
 1668              		.loc 1 1439 20 is_stmt 0 view .LVU554
 1669 0034 3379     		ldrb	r3, [r6, #4]	@ zero_extendqisi2
 1670 0036 43F00403 		orr	r3, r3, #4
 1671 003a 3371     		strb	r3, [r6, #4]
1440:/opt/XMClib/XMC_Peripheral_Library_v2.1.16/XMCLib/src/xmc_usbd.c ****   if (ep->address_u.address != 0U)
 1672              		.loc 1 1440 3 is_stmt 1 view .LVU555
1440:/opt/XMClib/XMC_Peripheral_Library_v2.1.16/XMCLib/src/xmc_usbd.c ****   if (ep->address_u.address != 0U)
 1673              		.loc 1 1440 21 is_stmt 0 view .LVU556
 1674 003c 7368     		ldr	r3, [r6, #4]
 1675 003e 64F3D123 		bfi	r3, r4, #11, #7
 1676 0042 7360     		str	r3, [r6, #4]
1441:/opt/XMClib/XMC_Peripheral_Library_v2.1.16/XMCLib/src/xmc_usbd.c ****   {
 1677              		.loc 1 1441 3 is_stmt 1 view .LVU557
1441:/opt/XMClib/XMC_Peripheral_Library_v2.1.16/XMCLib/src/xmc_usbd.c ****   {
 1678              		.loc 1 1441 6 is_stmt 0 view .LVU558
 1679 0044 002D     		cmp	r5, #0
 1680 0046 00F0DE80 		beq	.L122
 1681 004a 3046     		mov	r0, r6
 1682 004c B668     		ldr	r6, [r6, #8]
 1683 004e 4FF6C07C 		movw	ip, #65472
 1684 0052 6CF31206 		bfi	r6, ip, #0, #19
 1685 0056 8660     		str	r6, [r0, #8]
1450:/opt/XMClib/XMC_Peripheral_Library_v2.1.16/XMCLib/src/xmc_usbd.c ****   ep->outBuffer = XMC_USBD_EP_OUT_BUFFER[ep->address_u.address_st.number];
 1686              		.loc 1 1450 3 is_stmt 1 view .LVU559
1450:/opt/XMClib/XMC_Peripheral_Library_v2.1.16/XMCLib/src/xmc_usbd.c ****   ep->outBuffer = XMC_USBD_EP_OUT_BUFFER[ep->address_u.address_st.number];
 1687              		.loc 1 1450 64 is_stmt 0 view .LVU560
 1688 0058 19F80B30 		ldrb	r3, [r9, fp]	@ zero_extendqisi2
 1689 005c 03F00F03 		and	r3, r3, #15
1450:/opt/XMClib/XMC_Peripheral_Library_v2.1.16/XMCLib/src/xmc_usbd.c ****   ep->outBuffer = XMC_USBD_EP_OUT_BUFFER[ep->address_u.address_st.number];
 1690              		.loc 1 1450 18 view .LVU561
 1691 0060 8349     		ldr	r1, .L157
 1692 0062 01EB0326 		add	r6, r1, r3, lsl #8
1450:/opt/XMClib/XMC_Peripheral_Library_v2.1.16/XMCLib/src/xmc_usbd.c ****   ep->outBuffer = XMC_USBD_EP_OUT_BUFFER[ep->address_u.address_st.number];
 1693              		.loc 1 1450 16 view .LVU562
 1694 0066 C661     		str	r6, [r0, #28]
1451:/opt/XMClib/XMC_Peripheral_Library_v2.1.16/XMCLib/src/xmc_usbd.c ****   /* buffer size*/
 1695              		.loc 1 1451 3 is_stmt 1 view .LVU563
1451:/opt/XMClib/XMC_Peripheral_Library_v2.1.16/XMCLib/src/xmc_usbd.c ****   /* buffer size*/
 1696              		.loc 1 1451 19 is_stmt 0 view .LVU564
 1697 0068 01F5E061 		add	r1, r1, #1792
 1698 006c 01EB0321 		add	r1, r1, r3, lsl #8
1451:/opt/XMClib/XMC_Peripheral_Library_v2.1.16/XMCLib/src/xmc_usbd.c ****   /* buffer size*/
 1699              		.loc 1 1451 17 view .LVU565
 1700 0070 C160     		str	r1, [r0, #12]
1453:/opt/XMClib/XMC_Peripheral_Library_v2.1.16/XMCLib/src/xmc_usbd.c ****   ep->outBufferSize = XMC_USBD_EP_OUT_BUFFERSIZE[ep->address_u.address_st.number];
 1701              		.loc 1 1453 3 is_stmt 1 view .LVU566
1453:/opt/XMClib/XMC_Peripheral_Library_v2.1.16/XMCLib/src/xmc_usbd.c ****   ep->outBufferSize = XMC_USBD_EP_OUT_BUFFERSIZE[ep->address_u.address_st.number];
 1702              		.loc 1 1453 47 is_stmt 0 view .LVU567
 1703 0072 09EB8302 		add	r2, r9, r3, lsl #2
1453:/opt/XMClib/XMC_Peripheral_Library_v2.1.16/XMCLib/src/xmc_usbd.c ****   ep->outBufferSize = XMC_USBD_EP_OUT_BUFFERSIZE[ep->address_u.address_st.number];
 1704              		.loc 1 1453 20 view .LVU568
 1705 0076 D2F80C12 		ldr	r1, [r2, #524]
 1706 007a 0162     		str	r1, [r0, #32]
1454:/opt/XMClib/XMC_Peripheral_Library_v2.1.16/XMCLib/src/xmc_usbd.c ****   /* is in */
 1707              		.loc 1 1454 3 is_stmt 1 view .LVU569
1454:/opt/XMClib/XMC_Peripheral_Library_v2.1.16/XMCLib/src/xmc_usbd.c ****   /* is in */
 1708              		.loc 1 1454 21 is_stmt 0 view .LVU570
 1709 007c D2F82822 		ldr	r2, [r2, #552]
 1710 0080 4261     		str	r2, [r0, #20]
1456:/opt/XMClib/XMC_Peripheral_Library_v2.1.16/XMCLib/src/xmc_usbd.c ****   {
 1711              		.loc 1 1456 3 is_stmt 1 view .LVU571
1456:/opt/XMClib/XMC_Peripheral_Library_v2.1.16/XMCLib/src/xmc_usbd.c ****   {
 1712              		.loc 1 1456 6 is_stmt 0 view .LVU572
 1713 0082 15F0800F 		tst	r5, #128
 1714 0086 00F0D880 		beq	.L148
 1715              	.LBB13:
1458:/opt/XMClib/XMC_Peripheral_Library_v2.1.16/XMCLib/src/xmc_usbd.c ****     data.d32 = xmc_device.endpoint_in_register[ep->address_u.address_st.number]->diepctl;
 1716              		.loc 1 1458 5 is_stmt 1 view .LVU573
1459:/opt/XMClib/XMC_Peripheral_Library_v2.1.16/XMCLib/src/xmc_usbd.c **** 		/*enable endpoint */
 1717              		.loc 1 1459 5 view .LVU574
1459:/opt/XMClib/XMC_Peripheral_Library_v2.1.16/XMCLib/src/xmc_usbd.c **** 		/*enable endpoint */
 1718              		.loc 1 1459 47 is_stmt 0 view .LVU575
 1719 008a 6A33     		adds	r3, r3, #106
 1720 008c 794A     		ldr	r2, .L157+4
 1721 008e 52F82350 		ldr	r5, [r2, r3, lsl #2]
 1722              	.LVL112:
1459:/opt/XMClib/XMC_Peripheral_Library_v2.1.16/XMCLib/src/xmc_usbd.c **** 		/*enable endpoint */
 1723              		.loc 1 1459 80 view .LVU576
 1724 0092 2968     		ldr	r1, [r5]
 1725              	.LVL113:
1461:/opt/XMClib/XMC_Peripheral_Library_v2.1.16/XMCLib/src/xmc_usbd.c **** 		/* set ep type */
 1726              		.loc 1 1461 3 is_stmt 1 view .LVU577
1461:/opt/XMClib/XMC_Peripheral_Library_v2.1.16/XMCLib/src/xmc_usbd.c **** 		/* set ep type */
 1727              		.loc 1 1461 19 is_stmt 0 view .LVU578
 1728 0094 41F40041 		orr	r1, r1, #32768
 1729              	.LVL114:
1463:/opt/XMClib/XMC_Peripheral_Library_v2.1.16/XMCLib/src/xmc_usbd.c **** 		/* set mps */
 1730              		.loc 1 1463 3 is_stmt 1 view .LVU579
1463:/opt/XMClib/XMC_Peripheral_Library_v2.1.16/XMCLib/src/xmc_usbd.c **** 		/* set mps */
 1731              		.loc 1 1463 17 is_stmt 0 view .LVU580
 1732 0098 67F39341 		bfi	r1, r7, #18, #2
 1733              	.LVL115:
1465:/opt/XMClib/XMC_Peripheral_Library_v2.1.16/XMCLib/src/xmc_usbd.c ****     {
 1734              		.loc 1 1465 5 is_stmt 1 view .LVU581
1465:/opt/XMClib/XMC_Peripheral_Library_v2.1.16/XMCLib/src/xmc_usbd.c ****     {
 1735              		.loc 1 1465 8 is_stmt 0 view .LVU582
 1736 009c 002F     		cmp	r7, #0
 1737 009e 00F0A680 		beq	.L147
1487:/opt/XMClib/XMC_Peripheral_Library_v2.1.16/XMCLib/src/xmc_usbd.c **** 		}
 1738              		.loc 1 1487 4 is_stmt 1 view .LVU583
1487:/opt/XMClib/XMC_Peripheral_Library_v2.1.16/XMCLib/src/xmc_usbd.c **** 		}
 1739              		.loc 1 1487 15 is_stmt 0 view .LVU584
 1740 00a2 64F30A01 		bfi	r1, r4, #0, #11
 1741              	.L131:
1490:/opt/XMClib/XMC_Peripheral_Library_v2.1.16/XMCLib/src/xmc_usbd.c **** 		/* clear stall */
 1742              		.loc 1 1490 3 is_stmt 1 view .LVU585
1490:/opt/XMClib/XMC_Peripheral_Library_v2.1.16/XMCLib/src/xmc_usbd.c **** 		/* clear stall */
 1743              		.loc 1 1490 19 is_stmt 0 view .LVU586
 1744 00a6 41F08051 		orr	r1, r1, #268435456
 1745              	.LVL116:
1492:/opt/XMClib/XMC_Peripheral_Library_v2.1.16/XMCLib/src/xmc_usbd.c **** 		/* set tx fifo */
 1746              		.loc 1 1492 3 is_stmt 1 view .LVU587
1492:/opt/XMClib/XMC_Peripheral_Library_v2.1.16/XMCLib/src/xmc_usbd.c **** 		/* set tx fifo */
 1747              		.loc 1 1492 16 is_stmt 0 view .LVU588
 1748 00aa 21F40011 		bic	r1, r1, #2097152
 1749              	.LVL117:
1494:/opt/XMClib/XMC_Peripheral_Library_v2.1.16/XMCLib/src/xmc_usbd.c **** 		data.b.txfnum = ep->txFifoNum;
 1750              		.loc 1 1494 3 is_stmt 1 view .LVU589
 1751              	.LBB14:
 1752              	.LBI14:
 358:/opt/XMClib/XMC_Peripheral_Library_v2.1.16/XMCLib/src/xmc_usbd.c **** {
 1753              		.loc 1 358 16 view .LVU590
 1754              	.LBB15:
 360:/opt/XMClib/XMC_Peripheral_Library_v2.1.16/XMCLib/src/xmc_usbd.c ****   uint8_t i = 0U;
 1755              		.loc 1 360 3 view .LVU591
 361:/opt/XMClib/XMC_Peripheral_Library_v2.1.16/XMCLib/src/xmc_usbd.c ****   uint8_t result = 0U;
 1756              		.loc 1 361 3 view .LVU592
 362:/opt/XMClib/XMC_Peripheral_Library_v2.1.16/XMCLib/src/xmc_usbd.c ****   while( (i < (uint8_t)XMC_USBD_NUM_TX_FIFOS)&&((xmc_device.txfifomsk & mask) != 0U))
 1757              		.loc 1 362 3 view .LVU593
 363:/opt/XMClib/XMC_Peripheral_Library_v2.1.16/XMCLib/src/xmc_usbd.c ****   {
 1758              		.loc 1 363 3 view .LVU594
 363:/opt/XMClib/XMC_Peripheral_Library_v2.1.16/XMCLib/src/xmc_usbd.c ****   {
 1759              		.loc 1 363 46 view .LVU595
 363:/opt/XMClib/XMC_Peripheral_Library_v2.1.16/XMCLib/src/xmc_usbd.c ****   {
 1760              		.loc 1 363 60 is_stmt 0 discriminator 1 view .LVU596
 1761 00ae 714B     		ldr	r3, .L157+4
 1762 00b0 B3F8FC01 		ldrh	r0, [r3, #508]
 363:/opt/XMClib/XMC_Peripheral_Library_v2.1.16/XMCLib/src/xmc_usbd.c ****   {
 1763              		.loc 1 363 46 discriminator 1 view .LVU597
 1764 00b4 10F00102 		ands	r2, r0, #1
 1765 00b8 63D0     		beq	.L149
 361:/opt/XMClib/XMC_Peripheral_Library_v2.1.16/XMCLib/src/xmc_usbd.c ****   uint8_t result = 0U;
 1766              		.loc 1 361 11 view .LVU598
 1767 00ba 0023     		movs	r3, #0
 1768              	.LVL118:
 1769              	.L134:
 365:/opt/XMClib/XMC_Peripheral_Library_v2.1.16/XMCLib/src/xmc_usbd.c ****     i++;
 1770              		.loc 1 365 5 is_stmt 1 view .LVU599
 365:/opt/XMClib/XMC_Peripheral_Library_v2.1.16/XMCLib/src/xmc_usbd.c ****     i++;
 1771              		.loc 1 365 10 is_stmt 0 view .LVU600
 1772 00bc 5200     		lsls	r2, r2, #1
 1773              	.LVL119:
 365:/opt/XMClib/XMC_Peripheral_Library_v2.1.16/XMCLib/src/xmc_usbd.c ****     i++;
 1774              		.loc 1 365 10 view .LVU601
 1775 00be 92B2     		uxth	r2, r2
 1776              	.LVL120:
 366:/opt/XMClib/XMC_Peripheral_Library_v2.1.16/XMCLib/src/xmc_usbd.c ****   }
 1777              		.loc 1 366 5 is_stmt 1 view .LVU602
 366:/opt/XMClib/XMC_Peripheral_Library_v2.1.16/XMCLib/src/xmc_usbd.c ****   }
 1778              		.loc 1 366 6 is_stmt 0 view .LVU603
 1779 00c0 0133     		adds	r3, r3, #1
 1780              	.LVL121:
 366:/opt/XMClib/XMC_Peripheral_Library_v2.1.16/XMCLib/src/xmc_usbd.c ****   }
 1781              		.loc 1 366 6 view .LVU604
 1782 00c2 DBB2     		uxtb	r3, r3
 1783              	.LVL122:
 363:/opt/XMClib/XMC_Peripheral_Library_v2.1.16/XMCLib/src/xmc_usbd.c ****   {
 1784              		.loc 1 363 46 is_stmt 1 view .LVU605
 1785 00c4 072B     		cmp	r3, #7
 1786 00c6 58D0     		beq	.L133
 363:/opt/XMClib/XMC_Peripheral_Library_v2.1.16/XMCLib/src/xmc_usbd.c ****   {
 1787              		.loc 1 363 46 is_stmt 0 discriminator 1 view .LVU606
 1788 00c8 1042     		tst	r0, r2
 1789 00ca F7D1     		bne	.L134
 1790              	.LVL123:
 1791              	.L132:
 370:/opt/XMClib/XMC_Peripheral_Library_v2.1.16/XMCLib/src/xmc_usbd.c ****     result=i;
 1792              		.loc 1 370 5 is_stmt 1 view .LVU607
 370:/opt/XMClib/XMC_Peripheral_Library_v2.1.16/XMCLib/src/xmc_usbd.c ****     result=i;
 1793              		.loc 1 370 26 is_stmt 0 view .LVU608
 1794 00cc 1043     		orrs	r0, r0, r2
 1795 00ce 694A     		ldr	r2, .L157+4
 1796 00d0 A2F8FC01 		strh	r0, [r2, #508]	@ movhi
 371:/opt/XMClib/XMC_Peripheral_Library_v2.1.16/XMCLib/src/xmc_usbd.c ****   }
 1797              		.loc 1 371 5 is_stmt 1 view .LVU609
 1798              	.LVL124:
 1799              	.L135:
 373:/opt/XMClib/XMC_Peripheral_Library_v2.1.16/XMCLib/src/xmc_usbd.c **** }
 1800              		.loc 1 373 3 view .LVU610
 373:/opt/XMClib/XMC_Peripheral_Library_v2.1.16/XMCLib/src/xmc_usbd.c **** }
 1801              		.loc 1 373 3 is_stmt 0 view .LVU611
 1802              	.LBE15:
 1803              	.LBE14:
1494:/opt/XMClib/XMC_Peripheral_Library_v2.1.16/XMCLib/src/xmc_usbd.c **** 		data.b.txfnum = ep->txFifoNum;
 1804              		.loc 1 1494 19 discriminator 1 view .LVU612
 1805 00d4 03F00F03 		and	r3, r3, #15
1494:/opt/XMClib/XMC_Peripheral_Library_v2.1.16/XMCLib/src/xmc_usbd.c **** 		data.b.txfnum = ep->txFifoNum;
 1806              		.loc 1 1494 17 discriminator 1 view .LVU613
 1807 00d8 6648     		ldr	r0, .L157+4
 1808 00da 3422     		movs	r2, #52
 1809 00dc 02FB08F2 		mul	r2, r2, r8
 1810 00e0 8618     		adds	r6, r0, r2
 1811 00e2 B6F804C0 		ldrh	ip, [r6, #4]
 1812 00e6 63F3891C 		bfi	ip, r3, #6, #4
 1813 00ea A6F804C0 		strh	ip, [r6, #4]	@ movhi
1495:/opt/XMClib/XMC_Peripheral_Library_v2.1.16/XMCLib/src/xmc_usbd.c **** 		xmc_device.endpoint_in_register[ep->address_u.address_st.number]->diepctl = data.d32; /* configur
 1814              		.loc 1 1495 3 is_stmt 1 view .LVU614
1495:/opt/XMClib/XMC_Peripheral_Library_v2.1.16/XMCLib/src/xmc_usbd.c **** 		xmc_device.endpoint_in_register[ep->address_u.address_st.number]->diepctl = data.d32; /* configur
 1815              		.loc 1 1495 17 is_stmt 0 view .LVU615
 1816 00ee 63F39951 		bfi	r1, r3, #22, #4
 1817              	.LVL125:
1496:/opt/XMClib/XMC_Peripheral_Library_v2.1.16/XMCLib/src/xmc_usbd.c **** 		daintmsk.ep.in |= (uint16_t)((uint16_t)1U << (uint8_t)ep->address_u.address_st.number); /* enable
 1818              		.loc 1 1496 3 is_stmt 1 view .LVU616
1496:/opt/XMClib/XMC_Peripheral_Library_v2.1.16/XMCLib/src/xmc_usbd.c **** 		daintmsk.ep.in |= (uint16_t)((uint16_t)1U << (uint8_t)ep->address_u.address_st.number); /* enable
 1819              		.loc 1 1496 77 is_stmt 0 view .LVU617
 1820 00f2 2960     		str	r1, [r5]
1497:/opt/XMClib/XMC_Peripheral_Library_v2.1.16/XMCLib/src/xmc_usbd.c ****   }
 1821              		.loc 1 1497 3 is_stmt 1 view .LVU618
1497:/opt/XMClib/XMC_Peripheral_Library_v2.1.16/XMCLib/src/xmc_usbd.c ****   }
 1822              		.loc 1 1497 81 is_stmt 0 view .LVU619
 1823 00f4 815C     		ldrb	r1, [r0, r2]	@ zero_extendqisi2
 1824              	.LVL126:
1497:/opt/XMClib/XMC_Peripheral_Library_v2.1.16/XMCLib/src/xmc_usbd.c ****   }
 1825              		.loc 1 1497 48 view .LVU620
 1826 00f6 01F00F01 		and	r1, r1, #15
1497:/opt/XMClib/XMC_Peripheral_Library_v2.1.16/XMCLib/src/xmc_usbd.c ****   }
 1827              		.loc 1 1497 45 view .LVU621
 1828 00fa 0123     		movs	r3, #1
 1829 00fc 8B40     		lsls	r3, r3, r1
1497:/opt/XMClib/XMC_Peripheral_Library_v2.1.16/XMCLib/src/xmc_usbd.c ****   }
 1830              		.loc 1 1497 18 view .LVU622
 1831 00fe 019D     		ldr	r5, [sp, #4]
 1832 0100 2B43     		orrs	r3, r3, r5
 1833 0102 63F30F0A 		bfi	r10, r3, #0, #16
 1834              	.LVL127:
1497:/opt/XMClib/XMC_Peripheral_Library_v2.1.16/XMCLib/src/xmc_usbd.c ****   }
 1835              		.loc 1 1497 18 view .LVU623
 1836              	.LBE13:
1499:/opt/XMClib/XMC_Peripheral_Library_v2.1.16/XMCLib/src/xmc_usbd.c ****   {
 1837              		.loc 1 1499 3 is_stmt 1 view .LVU624
1499:/opt/XMClib/XMC_Peripheral_Library_v2.1.16/XMCLib/src/xmc_usbd.c ****   {
 1838              		.loc 1 1499 6 is_stmt 0 view .LVU625
 1839 0106 8356     		ldrsb	r3, [r0, r2]
 1840 0108 002B     		cmp	r3, #0
 1841 010a 3DDB     		blt	.L156
 1842              	.LBB18:
1502:/opt/XMClib/XMC_Peripheral_Library_v2.1.16/XMCLib/src/xmc_usbd.c **** 		data.d32 = xmc_device.endpoint_out_register[ep->address_u.address_st.number]->doepctl;
 1843              		.loc 1 1502 3 is_stmt 1 view .LVU626
1503:/opt/XMClib/XMC_Peripheral_Library_v2.1.16/XMCLib/src/xmc_usbd.c **** 		/*enable endpoint */
 1844              		.loc 1 1503 3 view .LVU627
1503:/opt/XMClib/XMC_Peripheral_Library_v2.1.16/XMCLib/src/xmc_usbd.c **** 		/*enable endpoint */
 1845              		.loc 1 1503 46 is_stmt 0 view .LVU628
 1846 010c 594B     		ldr	r3, .L157+4
 1847 010e 03EB8103 		add	r3, r3, r1, lsl #2
 1848 0112 D3F8C421 		ldr	r2, [r3, #452]
1503:/opt/XMClib/XMC_Peripheral_Library_v2.1.16/XMCLib/src/xmc_usbd.c **** 		/*enable endpoint */
 1849              		.loc 1 1503 79 view .LVU629
 1850 0116 1368     		ldr	r3, [r2]
 1851              	.LVL128:
1505:/opt/XMClib/XMC_Peripheral_Library_v2.1.16/XMCLib/src/xmc_usbd.c **** 		/* set ep type */
 1852              		.loc 1 1505 3 is_stmt 1 view .LVU630
1505:/opt/XMClib/XMC_Peripheral_Library_v2.1.16/XMCLib/src/xmc_usbd.c **** 		/* set ep type */
 1853              		.loc 1 1505 19 is_stmt 0 view .LVU631
 1854 0118 43F40043 		orr	r3, r3, #32768
 1855              	.LVL129:
1507:/opt/XMClib/XMC_Peripheral_Library_v2.1.16/XMCLib/src/xmc_usbd.c ****     /* set mps */
 1856              		.loc 1 1507 3 is_stmt 1 view .LVU632
1507:/opt/XMClib/XMC_Peripheral_Library_v2.1.16/XMCLib/src/xmc_usbd.c ****     /* set mps */
 1857              		.loc 1 1507 17 is_stmt 0 view .LVU633
 1858 011c 67F39343 		bfi	r3, r7, #18, #2
 1859              	.LVL130:
1509:/opt/XMClib/XMC_Peripheral_Library_v2.1.16/XMCLib/src/xmc_usbd.c **** 		{
 1860              		.loc 1 1509 5 is_stmt 1 view .LVU634
1509:/opt/XMClib/XMC_Peripheral_Library_v2.1.16/XMCLib/src/xmc_usbd.c **** 		{
 1861              		.loc 1 1509 8 is_stmt 0 view .LVU635
 1862 0120 002F     		cmp	r7, #0
 1863 0122 43D0     		beq	.L145
 1864              	.L139:
1531:/opt/XMClib/XMC_Peripheral_Library_v2.1.16/XMCLib/src/xmc_usbd.c **** 		}
 1865              		.loc 1 1531 4 is_stmt 1 view .LVU636
1531:/opt/XMClib/XMC_Peripheral_Library_v2.1.16/XMCLib/src/xmc_usbd.c **** 		}
 1866              		.loc 1 1531 15 is_stmt 0 view .LVU637
 1867 0124 64F30A03 		bfi	r3, r4, #0, #11
 1868              	.L144:
1534:/opt/XMClib/XMC_Peripheral_Library_v2.1.16/XMCLib/src/xmc_usbd.c **** 		/* clear stall */
 1869              		.loc 1 1534 3 is_stmt 1 view .LVU638
1534:/opt/XMClib/XMC_Peripheral_Library_v2.1.16/XMCLib/src/xmc_usbd.c **** 		/* clear stall */
 1870              		.loc 1 1534 19 is_stmt 0 view .LVU639
 1871 0128 43F08053 		orr	r3, r3, #268435456
 1872              	.LVL131:
1536:/opt/XMClib/XMC_Peripheral_Library_v2.1.16/XMCLib/src/xmc_usbd.c **** 		xmc_device.endpoint_out_register[ep->address_u.address_st.number]->doepctl = data.d32; /* configu
 1873              		.loc 1 1536 3 is_stmt 1 view .LVU640
1536:/opt/XMClib/XMC_Peripheral_Library_v2.1.16/XMCLib/src/xmc_usbd.c **** 		xmc_device.endpoint_out_register[ep->address_u.address_st.number]->doepctl = data.d32; /* configu
 1874              		.loc 1 1536 16 is_stmt 0 view .LVU641
 1875 012c 23F40013 		bic	r3, r3, #2097152
 1876              	.LVL132:
1537:/opt/XMClib/XMC_Peripheral_Library_v2.1.16/XMCLib/src/xmc_usbd.c **** 		daintmsk.ep.out |=(uint16_t) ((uint16_t)1U << (uint8_t)ep->address_u.address_st.number); /* enabl
 1877              		.loc 1 1537 3 is_stmt 1 view .LVU642
1537:/opt/XMClib/XMC_Peripheral_Library_v2.1.16/XMCLib/src/xmc_usbd.c **** 		daintmsk.ep.out |=(uint16_t) ((uint16_t)1U << (uint8_t)ep->address_u.address_st.number); /* enabl
 1878              		.loc 1 1537 78 is_stmt 0 view .LVU643
 1879 0130 1360     		str	r3, [r2]
1538:/opt/XMClib/XMC_Peripheral_Library_v2.1.16/XMCLib/src/xmc_usbd.c ****   }
 1880              		.loc 1 1538 3 is_stmt 1 view .LVU644
1538:/opt/XMClib/XMC_Peripheral_Library_v2.1.16/XMCLib/src/xmc_usbd.c ****   }
 1881              		.loc 1 1538 82 is_stmt 0 view .LVU645
 1882 0132 3423     		movs	r3, #52
 1883              	.LVL133:
1538:/opt/XMClib/XMC_Peripheral_Library_v2.1.16/XMCLib/src/xmc_usbd.c ****   }
 1884              		.loc 1 1538 82 view .LVU646
 1885 0134 03FB08F3 		mul	r3, r3, r8
 1886 0138 4E4A     		ldr	r2, .L157+4
 1887 013a D25C     		ldrb	r2, [r2, r3]	@ zero_extendqisi2
1538:/opt/XMClib/XMC_Peripheral_Library_v2.1.16/XMCLib/src/xmc_usbd.c ****   }
 1888              		.loc 1 1538 49 view .LVU647
 1889 013c 02F00F02 		and	r2, r2, #15
1538:/opt/XMClib/XMC_Peripheral_Library_v2.1.16/XMCLib/src/xmc_usbd.c ****   }
 1890              		.loc 1 1538 46 view .LVU648
 1891 0140 0123     		movs	r3, #1
 1892 0142 9340     		lsls	r3, r3, r2
1538:/opt/XMClib/XMC_Peripheral_Library_v2.1.16/XMCLib/src/xmc_usbd.c ****   }
 1893              		.loc 1 1538 19 view .LVU649
 1894 0144 019A     		ldr	r2, [sp, #4]
 1895 0146 43EA1243 		orr	r3, r3, r2, lsr #16
 1896 014a 63F31F4A 		bfi	r10, r3, #16, #16
 1897              	.L138:
1538:/opt/XMClib/XMC_Peripheral_Library_v2.1.16/XMCLib/src/xmc_usbd.c ****   }
 1898              		.loc 1 1538 19 view .LVU650
 1899              	.LBE18:
1540:/opt/XMClib/XMC_Peripheral_Library_v2.1.16/XMCLib/src/xmc_usbd.c ****   return XMC_USBD_STATUS_OK;
 1900              		.loc 1 1540 3 is_stmt 1 view .LVU651
1540:/opt/XMClib/XMC_Peripheral_Library_v2.1.16/XMCLib/src/xmc_usbd.c ****   return XMC_USBD_STATUS_OK;
 1901              		.loc 1 1540 13 is_stmt 0 view .LVU652
 1902 014e 494B     		ldr	r3, .L157+4
 1903 0150 D3F8A431 		ldr	r3, [r3, #420]
1540:/opt/XMClib/XMC_Peripheral_Library_v2.1.16/XMCLib/src/xmc_usbd.c ****   return XMC_USBD_STATUS_OK;
 1904              		.loc 1 1540 40 view .LVU653
 1905 0154 C3F81CA0 		str	r10, [r3, #28]
1541:/opt/XMClib/XMC_Peripheral_Library_v2.1.16/XMCLib/src/xmc_usbd.c **** }
 1906              		.loc 1 1541 3 is_stmt 1 view .LVU654
1542:/opt/XMClib/XMC_Peripheral_Library_v2.1.16/XMCLib/src/xmc_usbd.c **** 
 1907              		.loc 1 1542 1 is_stmt 0 view .LVU655
 1908 0158 0020     		movs	r0, #0
 1909 015a 03B0     		add	sp, sp, #12
 1910              	.LCFI18:
 1911              		.cfi_remember_state
 1912              		.cfi_def_cfa_offset 36
 1913              		@ sp needed
 1914 015c BDE8F08F 		pop	{r4, r5, r6, r7, r8, r9, r10, fp, pc}
 1915              	.LVL134:
 1916              	.L128:
 1917              	.LCFI19:
 1918              		.cfi_restore_state
 1919              	.LBB19:
1467:/opt/XMClib/XMC_Peripheral_Library_v2.1.16/XMCLib/src/xmc_usbd.c **** 			{
 1920              		.loc 1 1467 4 view .LVU656
 1921 0160 402C     		cmp	r4, #64
 1922 0162 A0D1     		bne	.L131
1470:/opt/XMClib/XMC_Peripheral_Library_v2.1.16/XMCLib/src/xmc_usbd.c **** 				break;
 1923              		.loc 1 1470 5 is_stmt 1 view .LVU657
1470:/opt/XMClib/XMC_Peripheral_Library_v2.1.16/XMCLib/src/xmc_usbd.c **** 				break;
 1924              		.loc 1 1470 16 is_stmt 0 view .LVU658
 1925 0164 6FF30A01 		bfc	r1, #0, #11
 1926              	.LVL135:
1471:/opt/XMClib/XMC_Peripheral_Library_v2.1.16/XMCLib/src/xmc_usbd.c **** 				case (32U):
 1927              		.loc 1 1471 5 is_stmt 1 view .LVU659
 1928 0168 9DE7     		b	.L131
 1929              	.LVL136:
 1930              	.L127:
1473:/opt/XMClib/XMC_Peripheral_Library_v2.1.16/XMCLib/src/xmc_usbd.c **** 				break;
 1931              		.loc 1 1473 5 view .LVU660
1473:/opt/XMClib/XMC_Peripheral_Library_v2.1.16/XMCLib/src/xmc_usbd.c **** 				break;
 1932              		.loc 1 1473 16 is_stmt 0 view .LVU661
 1933 016a 0123     		movs	r3, #1
 1934 016c 63F30A01 		bfi	r1, r3, #0, #11
1474:/opt/XMClib/XMC_Peripheral_Library_v2.1.16/XMCLib/src/xmc_usbd.c **** 				case (16U):
 1935              		.loc 1 1474 5 is_stmt 1 view .LVU662
 1936 0170 99E7     		b	.L131
 1937              	.L129:
1479:/opt/XMClib/XMC_Peripheral_Library_v2.1.16/XMCLib/src/xmc_usbd.c **** 				break;
 1938              		.loc 1 1479 5 view .LVU663
1479:/opt/XMClib/XMC_Peripheral_Library_v2.1.16/XMCLib/src/xmc_usbd.c **** 				break;
 1939              		.loc 1 1479 16 is_stmt 0 view .LVU664
 1940 0172 0323     		movs	r3, #3
 1941 0174 63F30A01 		bfi	r1, r3, #0, #11
1480:/opt/XMClib/XMC_Peripheral_Library_v2.1.16/XMCLib/src/xmc_usbd.c **** 				default:
 1942              		.loc 1 1480 5 is_stmt 1 view .LVU665
 1943 0178 95E7     		b	.L131
 1944              	.LVL137:
 1945              	.L133:
 1946              	.LBB17:
 1947              	.LBB16:
 368:/opt/XMClib/XMC_Peripheral_Library_v2.1.16/XMCLib/src/xmc_usbd.c ****   {
 1948              		.loc 1 368 3 view .LVU666
 368:/opt/XMClib/XMC_Peripheral_Library_v2.1.16/XMCLib/src/xmc_usbd.c ****   {
 1949              		.loc 1 368 6 is_stmt 0 view .LVU667
 1950 017a 1042     		tst	r0, r2
 1951 017c A6D0     		beq	.L132
 362:/opt/XMClib/XMC_Peripheral_Library_v2.1.16/XMCLib/src/xmc_usbd.c ****   while( (i < (uint8_t)XMC_USBD_NUM_TX_FIFOS)&&((xmc_device.txfifomsk & mask) != 0U))
 1952              		.loc 1 362 11 view .LVU668
 1953 017e 0023     		movs	r3, #0
 1954              	.LVL138:
 362:/opt/XMClib/XMC_Peripheral_Library_v2.1.16/XMCLib/src/xmc_usbd.c ****   while( (i < (uint8_t)XMC_USBD_NUM_TX_FIFOS)&&((xmc_device.txfifomsk & mask) != 0U))
 1955              		.loc 1 362 11 view .LVU669
 1956 0180 A8E7     		b	.L135
 1957              	.LVL139:
 1958              	.L149:
 361:/opt/XMClib/XMC_Peripheral_Library_v2.1.16/XMCLib/src/xmc_usbd.c ****   uint8_t result = 0U;
 1959              		.loc 1 361 11 view .LVU670
 1960 0182 0023     		movs	r3, #0
 360:/opt/XMClib/XMC_Peripheral_Library_v2.1.16/XMCLib/src/xmc_usbd.c ****   uint8_t i = 0U;
 1961              		.loc 1 360 12 view .LVU671
 1962 0184 0122     		movs	r2, #1
 1963 0186 A1E7     		b	.L132
 1964              	.LVL140:
 1965              	.L156:
 360:/opt/XMClib/XMC_Peripheral_Library_v2.1.16/XMCLib/src/xmc_usbd.c ****   uint8_t i = 0U;
 1966              		.loc 1 360 12 view .LVU672
 1967              	.LBE16:
 1968              	.LBE17:
 1969              	.LBE19:
1499:/opt/XMClib/XMC_Peripheral_Library_v2.1.16/XMCLib/src/xmc_usbd.c ****   {
 1970              		.loc 1 1499 50 discriminator 1 view .LVU673
 1971 0188 002F     		cmp	r7, #0
 1972 018a E0D1     		bne	.L138
 1973              	.LBB20:
1502:/opt/XMClib/XMC_Peripheral_Library_v2.1.16/XMCLib/src/xmc_usbd.c **** 		data.d32 = xmc_device.endpoint_out_register[ep->address_u.address_st.number]->doepctl;
 1974              		.loc 1 1502 3 is_stmt 1 view .LVU674
1503:/opt/XMClib/XMC_Peripheral_Library_v2.1.16/XMCLib/src/xmc_usbd.c **** 		/*enable endpoint */
 1975              		.loc 1 1503 3 view .LVU675
1503:/opt/XMClib/XMC_Peripheral_Library_v2.1.16/XMCLib/src/xmc_usbd.c **** 		/*enable endpoint */
 1976              		.loc 1 1503 46 is_stmt 0 view .LVU676
 1977 018c 394B     		ldr	r3, .L157+4
1503:/opt/XMClib/XMC_Peripheral_Library_v2.1.16/XMCLib/src/xmc_usbd.c **** 		/*enable endpoint */
 1978              		.loc 1 1503 71 view .LVU677
 1979 018e 3422     		movs	r2, #52
 1980 0190 02FB08F2 		mul	r2, r2, r8
 1981 0194 9A5C     		ldrb	r2, [r3, r2]	@ zero_extendqisi2
 1982 0196 02F00F02 		and	r2, r2, #15
1503:/opt/XMClib/XMC_Peripheral_Library_v2.1.16/XMCLib/src/xmc_usbd.c **** 		/*enable endpoint */
 1983              		.loc 1 1503 46 view .LVU678
 1984 019a 03EB8203 		add	r3, r3, r2, lsl #2
 1985 019e D3F8C421 		ldr	r2, [r3, #452]
1503:/opt/XMClib/XMC_Peripheral_Library_v2.1.16/XMCLib/src/xmc_usbd.c **** 		/*enable endpoint */
 1986              		.loc 1 1503 79 view .LVU679
 1987 01a2 1368     		ldr	r3, [r2]
 1988              	.LVL141:
1505:/opt/XMClib/XMC_Peripheral_Library_v2.1.16/XMCLib/src/xmc_usbd.c **** 		/* set ep type */
 1989              		.loc 1 1505 3 is_stmt 1 view .LVU680
1505:/opt/XMClib/XMC_Peripheral_Library_v2.1.16/XMCLib/src/xmc_usbd.c **** 		/* set ep type */
 1990              		.loc 1 1505 19 is_stmt 0 view .LVU681
 1991 01a4 43F40043 		orr	r3, r3, #32768
 1992              	.LVL142:
1507:/opt/XMClib/XMC_Peripheral_Library_v2.1.16/XMCLib/src/xmc_usbd.c ****     /* set mps */
 1993              		.loc 1 1507 3 is_stmt 1 view .LVU682
1507:/opt/XMClib/XMC_Peripheral_Library_v2.1.16/XMCLib/src/xmc_usbd.c ****     /* set mps */
 1994              		.loc 1 1507 17 is_stmt 0 view .LVU683
 1995 01a8 23F44023 		bic	r3, r3, #786432
 1996              	.LVL143:
1509:/opt/XMClib/XMC_Peripheral_Library_v2.1.16/XMCLib/src/xmc_usbd.c **** 		{
 1997              		.loc 1 1509 5 is_stmt 1 view .LVU684
 1998              	.L145:
1511:/opt/XMClib/XMC_Peripheral_Library_v2.1.16/XMCLib/src/xmc_usbd.c **** 			{
 1999              		.loc 1 1511 4 view .LVU685
 2000 01ac 202C     		cmp	r4, #32
 2001 01ae 0DD0     		beq	.L140
 2002 01b0 07D8     		bhi	.L141
 2003 01b2 082C     		cmp	r4, #8
 2004 01b4 0ED0     		beq	.L142
 2005 01b6 102C     		cmp	r4, #16
 2006 01b8 B6D1     		bne	.L144
1520:/opt/XMClib/XMC_Peripheral_Library_v2.1.16/XMCLib/src/xmc_usbd.c **** 					break;
 2007              		.loc 1 1520 6 view .LVU686
1520:/opt/XMClib/XMC_Peripheral_Library_v2.1.16/XMCLib/src/xmc_usbd.c **** 					break;
 2008              		.loc 1 1520 17 is_stmt 0 view .LVU687
 2009 01ba 0221     		movs	r1, #2
 2010 01bc 61F30A03 		bfi	r3, r1, #0, #11
1521:/opt/XMClib/XMC_Peripheral_Library_v2.1.16/XMCLib/src/xmc_usbd.c **** 				case (8U):
 2011              		.loc 1 1521 6 is_stmt 1 view .LVU688
 2012 01c0 B2E7     		b	.L144
 2013              	.L141:
1511:/opt/XMClib/XMC_Peripheral_Library_v2.1.16/XMCLib/src/xmc_usbd.c **** 			{
 2014              		.loc 1 1511 4 is_stmt 0 view .LVU689
 2015 01c2 402C     		cmp	r4, #64
 2016 01c4 B0D1     		bne	.L144
1514:/opt/XMClib/XMC_Peripheral_Library_v2.1.16/XMCLib/src/xmc_usbd.c **** 					break;
 2017              		.loc 1 1514 6 is_stmt 1 view .LVU690
1514:/opt/XMClib/XMC_Peripheral_Library_v2.1.16/XMCLib/src/xmc_usbd.c **** 					break;
 2018              		.loc 1 1514 17 is_stmt 0 view .LVU691
 2019 01c6 6FF30A03 		bfc	r3, #0, #11
 2020              	.LVL144:
1515:/opt/XMClib/XMC_Peripheral_Library_v2.1.16/XMCLib/src/xmc_usbd.c **** 				case (32U):
 2021              		.loc 1 1515 6 is_stmt 1 view .LVU692
 2022 01ca ADE7     		b	.L144
 2023              	.LVL145:
 2024              	.L140:
1517:/opt/XMClib/XMC_Peripheral_Library_v2.1.16/XMCLib/src/xmc_usbd.c **** 					break;
 2025              		.loc 1 1517 6 view .LVU693
1517:/opt/XMClib/XMC_Peripheral_Library_v2.1.16/XMCLib/src/xmc_usbd.c **** 					break;
 2026              		.loc 1 1517 17 is_stmt 0 view .LVU694
 2027 01cc 0121     		movs	r1, #1
 2028 01ce 61F30A03 		bfi	r3, r1, #0, #11
1518:/opt/XMClib/XMC_Peripheral_Library_v2.1.16/XMCLib/src/xmc_usbd.c **** 				case (16U):
 2029              		.loc 1 1518 6 is_stmt 1 view .LVU695
 2030 01d2 A9E7     		b	.L144
 2031              	.L142:
1523:/opt/XMClib/XMC_Peripheral_Library_v2.1.16/XMCLib/src/xmc_usbd.c **** 					break;
 2032              		.loc 1 1523 6 view .LVU696
1523:/opt/XMClib/XMC_Peripheral_Library_v2.1.16/XMCLib/src/xmc_usbd.c **** 					break;
 2033              		.loc 1 1523 17 is_stmt 0 view .LVU697
 2034 01d4 0321     		movs	r1, #3
 2035 01d6 61F30A03 		bfi	r3, r1, #0, #11
1524:/opt/XMClib/XMC_Peripheral_Library_v2.1.16/XMCLib/src/xmc_usbd.c **** 				default:
 2036              		.loc 1 1524 6 is_stmt 1 view .LVU698
 2037 01da A5E7     		b	.L144
 2038              	.LVL146:
 2039              	.L124:
1524:/opt/XMClib/XMC_Peripheral_Library_v2.1.16/XMCLib/src/xmc_usbd.c **** 				default:
 2040              		.loc 1 1524 6 is_stmt 0 view .LVU699
 2041              	.LBE20:
 2042              	.LBB21:
1458:/opt/XMClib/XMC_Peripheral_Library_v2.1.16/XMCLib/src/xmc_usbd.c ****     data.d32 = xmc_device.endpoint_in_register[ep->address_u.address_st.number]->diepctl;
 2043              		.loc 1 1458 5 is_stmt 1 view .LVU700
1459:/opt/XMClib/XMC_Peripheral_Library_v2.1.16/XMCLib/src/xmc_usbd.c **** 		/*enable endpoint */
 2044              		.loc 1 1459 5 view .LVU701
1459:/opt/XMClib/XMC_Peripheral_Library_v2.1.16/XMCLib/src/xmc_usbd.c **** 		/*enable endpoint */
 2045              		.loc 1 1459 47 is_stmt 0 view .LVU702
 2046 01dc 6A33     		adds	r3, r3, #106
 2047 01de 254A     		ldr	r2, .L157+4
 2048 01e0 52F82350 		ldr	r5, [r2, r3, lsl #2]
1459:/opt/XMClib/XMC_Peripheral_Library_v2.1.16/XMCLib/src/xmc_usbd.c **** 		/*enable endpoint */
 2049              		.loc 1 1459 80 view .LVU703
 2050 01e4 2968     		ldr	r1, [r5]
 2051              	.LVL147:
1461:/opt/XMClib/XMC_Peripheral_Library_v2.1.16/XMCLib/src/xmc_usbd.c **** 		/* set ep type */
 2052              		.loc 1 1461 3 is_stmt 1 view .LVU704
1461:/opt/XMClib/XMC_Peripheral_Library_v2.1.16/XMCLib/src/xmc_usbd.c **** 		/* set ep type */
 2053              		.loc 1 1461 19 is_stmt 0 view .LVU705
 2054 01e6 41F40041 		orr	r1, r1, #32768
 2055              	.LVL148:
1463:/opt/XMClib/XMC_Peripheral_Library_v2.1.16/XMCLib/src/xmc_usbd.c **** 		/* set mps */
 2056              		.loc 1 1463 3 is_stmt 1 view .LVU706
1463:/opt/XMClib/XMC_Peripheral_Library_v2.1.16/XMCLib/src/xmc_usbd.c **** 		/* set mps */
 2057              		.loc 1 1463 17 is_stmt 0 view .LVU707
 2058 01ea 21F44021 		bic	r1, r1, #786432
 2059              	.LVL149:
1465:/opt/XMClib/XMC_Peripheral_Library_v2.1.16/XMCLib/src/xmc_usbd.c ****     {
 2060              		.loc 1 1465 5 is_stmt 1 view .LVU708
 2061              	.L147:
1467:/opt/XMClib/XMC_Peripheral_Library_v2.1.16/XMCLib/src/xmc_usbd.c **** 			{
 2062              		.loc 1 1467 4 view .LVU709
 2063 01ee 202C     		cmp	r4, #32
 2064 01f0 BBD0     		beq	.L127
 2065 01f2 B5D8     		bhi	.L128
 2066 01f4 082C     		cmp	r4, #8
 2067 01f6 BCD0     		beq	.L129
 2068 01f8 102C     		cmp	r4, #16
 2069 01fa 7FF454AF 		bne	.L131
1476:/opt/XMClib/XMC_Peripheral_Library_v2.1.16/XMCLib/src/xmc_usbd.c **** 				break;
 2070              		.loc 1 1476 5 view .LVU710
1476:/opt/XMClib/XMC_Peripheral_Library_v2.1.16/XMCLib/src/xmc_usbd.c **** 				break;
 2071              		.loc 1 1476 16 is_stmt 0 view .LVU711
 2072 01fe 0223     		movs	r3, #2
 2073 0200 63F30A01 		bfi	r1, r3, #0, #11
1477:/opt/XMClib/XMC_Peripheral_Library_v2.1.16/XMCLib/src/xmc_usbd.c **** 				case (8U):
 2074              		.loc 1 1477 5 is_stmt 1 view .LVU712
 2075 0204 4FE7     		b	.L131
 2076              	.LVL150:
 2077              	.L122:
1477:/opt/XMClib/XMC_Peripheral_Library_v2.1.16/XMCLib/src/xmc_usbd.c **** 				case (8U):
 2078              		.loc 1 1477 5 is_stmt 0 view .LVU713
 2079              	.LBE21:
1447:/opt/XMClib/XMC_Peripheral_Library_v2.1.16/XMCLib/src/xmc_usbd.c ****   }
 2080              		.loc 1 1447 5 is_stmt 1 view .LVU714
 2081 0206 1B4A     		ldr	r2, .L157+4
 2082 0208 9368     		ldr	r3, [r2, #8]
 2083 020a 4021     		movs	r1, #64
 2084 020c 61F31203 		bfi	r3, r1, #0, #19
 2085 0210 9360     		str	r3, [r2, #8]
1450:/opt/XMClib/XMC_Peripheral_Library_v2.1.16/XMCLib/src/xmc_usbd.c ****   ep->outBuffer = XMC_USBD_EP_OUT_BUFFER[ep->address_u.address_st.number];
 2086              		.loc 1 1450 3 view .LVU715
1450:/opt/XMClib/XMC_Peripheral_Library_v2.1.16/XMCLib/src/xmc_usbd.c ****   ep->outBuffer = XMC_USBD_EP_OUT_BUFFER[ep->address_u.address_st.number];
 2087              		.loc 1 1450 64 is_stmt 0 view .LVU716
 2088 0212 1378     		ldrb	r3, [r2]	@ zero_extendqisi2
 2089 0214 03F00F03 		and	r3, r3, #15
1450:/opt/XMClib/XMC_Peripheral_Library_v2.1.16/XMCLib/src/xmc_usbd.c ****   ep->outBuffer = XMC_USBD_EP_OUT_BUFFER[ep->address_u.address_st.number];
 2090              		.loc 1 1450 18 view .LVU717
 2091 0218 1549     		ldr	r1, .L157
 2092 021a 01EB0320 		add	r0, r1, r3, lsl #8
1450:/opt/XMClib/XMC_Peripheral_Library_v2.1.16/XMCLib/src/xmc_usbd.c ****   ep->outBuffer = XMC_USBD_EP_OUT_BUFFER[ep->address_u.address_st.number];
 2093              		.loc 1 1450 16 view .LVU718
 2094 021e D061     		str	r0, [r2, #28]
1451:/opt/XMClib/XMC_Peripheral_Library_v2.1.16/XMCLib/src/xmc_usbd.c ****   /* buffer size*/
 2095              		.loc 1 1451 3 is_stmt 1 view .LVU719
1451:/opt/XMClib/XMC_Peripheral_Library_v2.1.16/XMCLib/src/xmc_usbd.c ****   /* buffer size*/
 2096              		.loc 1 1451 19 is_stmt 0 view .LVU720
 2097 0220 01F5E061 		add	r1, r1, #1792
 2098 0224 01EB0321 		add	r1, r1, r3, lsl #8
1451:/opt/XMClib/XMC_Peripheral_Library_v2.1.16/XMCLib/src/xmc_usbd.c ****   /* buffer size*/
 2099              		.loc 1 1451 17 view .LVU721
 2100 0228 D160     		str	r1, [r2, #12]
1453:/opt/XMClib/XMC_Peripheral_Library_v2.1.16/XMCLib/src/xmc_usbd.c ****   ep->outBufferSize = XMC_USBD_EP_OUT_BUFFERSIZE[ep->address_u.address_st.number];
 2101              		.loc 1 1453 3 is_stmt 1 view .LVU722
1453:/opt/XMClib/XMC_Peripheral_Library_v2.1.16/XMCLib/src/xmc_usbd.c ****   ep->outBufferSize = XMC_USBD_EP_OUT_BUFFERSIZE[ep->address_u.address_st.number];
 2102              		.loc 1 1453 47 is_stmt 0 view .LVU723
 2103 022a 02EB8301 		add	r1, r2, r3, lsl #2
1453:/opt/XMClib/XMC_Peripheral_Library_v2.1.16/XMCLib/src/xmc_usbd.c ****   ep->outBufferSize = XMC_USBD_EP_OUT_BUFFERSIZE[ep->address_u.address_st.number];
 2104              		.loc 1 1453 20 view .LVU724
 2105 022e D1F80C02 		ldr	r0, [r1, #524]
 2106 0232 1062     		str	r0, [r2, #32]
1454:/opt/XMClib/XMC_Peripheral_Library_v2.1.16/XMCLib/src/xmc_usbd.c ****   /* is in */
 2107              		.loc 1 1454 3 is_stmt 1 view .LVU725
1454:/opt/XMClib/XMC_Peripheral_Library_v2.1.16/XMCLib/src/xmc_usbd.c ****   /* is in */
 2108              		.loc 1 1454 21 is_stmt 0 view .LVU726
 2109 0234 D1F82812 		ldr	r1, [r1, #552]
 2110 0238 5161     		str	r1, [r2, #20]
1456:/opt/XMClib/XMC_Peripheral_Library_v2.1.16/XMCLib/src/xmc_usbd.c ****   {
 2111              		.loc 1 1456 3 is_stmt 1 view .LVU727
 2112              	.L148:
1456:/opt/XMClib/XMC_Peripheral_Library_v2.1.16/XMCLib/src/xmc_usbd.c ****   {
 2113              		.loc 1 1456 50 is_stmt 0 discriminator 1 view .LVU728
 2114 023a 002F     		cmp	r7, #0
 2115 023c CED0     		beq	.L124
1499:/opt/XMClib/XMC_Peripheral_Library_v2.1.16/XMCLib/src/xmc_usbd.c ****   {
 2116              		.loc 1 1499 3 is_stmt 1 view .LVU729
1499:/opt/XMClib/XMC_Peripheral_Library_v2.1.16/XMCLib/src/xmc_usbd.c ****   {
 2117              		.loc 1 1499 43 is_stmt 0 view .LVU730
 2118 023e 3423     		movs	r3, #52
 2119 0240 03FB08F3 		mul	r3, r3, r8
1499:/opt/XMClib/XMC_Peripheral_Library_v2.1.16/XMCLib/src/xmc_usbd.c ****   {
 2120              		.loc 1 1499 6 view .LVU731
 2121 0244 0B4A     		ldr	r2, .L157+4
 2122 0246 D356     		ldrsb	r3, [r2, r3]
 2123 0248 002B     		cmp	r3, #0
 2124 024a 80DB     		blt	.L138
 2125              	.LBB22:
1502:/opt/XMClib/XMC_Peripheral_Library_v2.1.16/XMCLib/src/xmc_usbd.c **** 		data.d32 = xmc_device.endpoint_out_register[ep->address_u.address_st.number]->doepctl;
 2126              		.loc 1 1502 3 is_stmt 1 view .LVU732
1503:/opt/XMClib/XMC_Peripheral_Library_v2.1.16/XMCLib/src/xmc_usbd.c **** 		/*enable endpoint */
 2127              		.loc 1 1503 3 view .LVU733
1503:/opt/XMClib/XMC_Peripheral_Library_v2.1.16/XMCLib/src/xmc_usbd.c **** 		/*enable endpoint */
 2128              		.loc 1 1503 46 is_stmt 0 view .LVU734
 2129 024c 094B     		ldr	r3, .L157+4
1503:/opt/XMClib/XMC_Peripheral_Library_v2.1.16/XMCLib/src/xmc_usbd.c **** 		/*enable endpoint */
 2130              		.loc 1 1503 71 view .LVU735
 2131 024e 3422     		movs	r2, #52
 2132 0250 02FB08F2 		mul	r2, r2, r8
 2133 0254 9A5C     		ldrb	r2, [r3, r2]	@ zero_extendqisi2
 2134 0256 02F00F02 		and	r2, r2, #15
1503:/opt/XMClib/XMC_Peripheral_Library_v2.1.16/XMCLib/src/xmc_usbd.c **** 		/*enable endpoint */
 2135              		.loc 1 1503 46 view .LVU736
 2136 025a 03EB8203 		add	r3, r3, r2, lsl #2
 2137 025e D3F8C421 		ldr	r2, [r3, #452]
1503:/opt/XMClib/XMC_Peripheral_Library_v2.1.16/XMCLib/src/xmc_usbd.c **** 		/*enable endpoint */
 2138              		.loc 1 1503 79 view .LVU737
 2139 0262 1368     		ldr	r3, [r2]
 2140              	.LVL151:
1505:/opt/XMClib/XMC_Peripheral_Library_v2.1.16/XMCLib/src/xmc_usbd.c **** 		/* set ep type */
 2141              		.loc 1 1505 3 is_stmt 1 view .LVU738
1505:/opt/XMClib/XMC_Peripheral_Library_v2.1.16/XMCLib/src/xmc_usbd.c **** 		/* set ep type */
 2142              		.loc 1 1505 19 is_stmt 0 view .LVU739
 2143 0264 43F40043 		orr	r3, r3, #32768
 2144              	.LVL152:
1507:/opt/XMClib/XMC_Peripheral_Library_v2.1.16/XMCLib/src/xmc_usbd.c ****     /* set mps */
 2145              		.loc 1 1507 3 is_stmt 1 view .LVU740
1507:/opt/XMClib/XMC_Peripheral_Library_v2.1.16/XMCLib/src/xmc_usbd.c ****     /* set mps */
 2146              		.loc 1 1507 17 is_stmt 0 view .LVU741
 2147 0268 67F39343 		bfi	r3, r7, #18, #2
 2148              	.LVL153:
1509:/opt/XMClib/XMC_Peripheral_Library_v2.1.16/XMCLib/src/xmc_usbd.c **** 		{
 2149              		.loc 1 1509 5 is_stmt 1 view .LVU742
 2150 026c 5AE7     		b	.L139
 2151              	.L158:
 2152 026e 00BF     		.align	2
 2153              	.L157:
 2154 0270 00000000 		.word	.LANCHOR1
 2155 0274 00000000 		.word	.LANCHOR0
 2156              	.LBE22:
 2157              		.cfi_endproc
 2158              	.LFE198:
 2160              		.section	.text.XMC_USBD_EndpointRead,"ax",%progbits
 2161              		.align	1
 2162              		.global	XMC_USBD_EndpointRead
 2163              		.syntax unified
 2164              		.thumb
 2165              		.thumb_func
 2167              	XMC_USBD_EndpointRead:
 2168              	.LVL154:
 2169              	.LFB193:
1285:/opt/XMClib/XMC_Peripheral_Library_v2.1.16/XMCLib/src/xmc_usbd.c ****   XMC_USBD_EP_t *ep = &xmc_device.ep[ep_num];
 2170              		.loc 1 1285 1 view -0
 2171              		.cfi_startproc
 2172              		@ args = 0, pretend = 0, frame = 0
 2173              		@ frame_needed = 0, uses_anonymous_args = 0
1285:/opt/XMClib/XMC_Peripheral_Library_v2.1.16/XMCLib/src/xmc_usbd.c ****   XMC_USBD_EP_t *ep = &xmc_device.ep[ep_num];
 2174              		.loc 1 1285 1 is_stmt 0 view .LVU744
 2175 0000 70B5     		push	{r4, r5, r6, lr}
 2176              	.LCFI20:
 2177              		.cfi_def_cfa_offset 16
 2178              		.cfi_offset 4, -16
 2179              		.cfi_offset 5, -12
 2180              		.cfi_offset 6, -8
 2181              		.cfi_offset 14, -4
 2182 0002 0646     		mov	r6, r0
 2183 0004 0846     		mov	r0, r1
 2184              	.LVL155:
1286:/opt/XMClib/XMC_Peripheral_Library_v2.1.16/XMCLib/src/xmc_usbd.c ****   if (length > ep->outBytesAvailable)
 2185              		.loc 1 1286 3 is_stmt 1 view .LVU745
1287:/opt/XMClib/XMC_Peripheral_Library_v2.1.16/XMCLib/src/xmc_usbd.c ****   {
 2186              		.loc 1 1287 3 view .LVU746
1287:/opt/XMClib/XMC_Peripheral_Library_v2.1.16/XMCLib/src/xmc_usbd.c ****   {
 2187              		.loc 1 1287 18 is_stmt 0 view .LVU747
 2188 0006 0D4C     		ldr	r4, .L162
 2189 0008 3423     		movs	r3, #52
 2190 000a 03FB0644 		mla	r4, r3, r6, r4
1287:/opt/XMClib/XMC_Peripheral_Library_v2.1.16/XMCLib/src/xmc_usbd.c ****   {
 2191              		.loc 1 1287 6 view .LVU748
 2192 000e 2369     		ldr	r3, [r4, #16]
 2193 0010 9A42     		cmp	r2, r3
 2194 0012 28BF     		it	cs
 2195 0014 1A46     		movcs	r2, r3
 2196              	.LVL156:
1287:/opt/XMClib/XMC_Peripheral_Library_v2.1.16/XMCLib/src/xmc_usbd.c ****   {
 2197              		.loc 1 1287 6 view .LVU749
 2198 0016 1546     		mov	r5, r2
 2199              	.LVL157:
1291:/opt/XMClib/XMC_Peripheral_Library_v2.1.16/XMCLib/src/xmc_usbd.c ****   ep->outBytesAvailable -= length;
 2200              		.loc 1 1291 3 is_stmt 1 view .LVU750
1291:/opt/XMClib/XMC_Peripheral_Library_v2.1.16/XMCLib/src/xmc_usbd.c ****   ep->outBytesAvailable -= length;
 2201              		.loc 1 1291 17 is_stmt 0 view .LVU751
 2202 0018 E168     		ldr	r1, [r4, #12]
 2203              	.LVL158:
1291:/opt/XMClib/XMC_Peripheral_Library_v2.1.16/XMCLib/src/xmc_usbd.c ****   ep->outBytesAvailable -= length;
 2204              		.loc 1 1291 17 view .LVU752
 2205 001a A369     		ldr	r3, [r4, #24]
1291:/opt/XMClib/XMC_Peripheral_Library_v2.1.16/XMCLib/src/xmc_usbd.c ****   ep->outBytesAvailable -= length;
 2206              		.loc 1 1291 3 view .LVU753
 2207 001c 1944     		add	r1, r1, r3
 2208 001e FFF7FEFF 		bl	memcpy
 2209              	.LVL159:
1292:/opt/XMClib/XMC_Peripheral_Library_v2.1.16/XMCLib/src/xmc_usbd.c ****   if (ep->outBytesAvailable)
 2210              		.loc 1 1292 3 is_stmt 1 view .LVU754
1292:/opt/XMClib/XMC_Peripheral_Library_v2.1.16/XMCLib/src/xmc_usbd.c ****   if (ep->outBytesAvailable)
 2211              		.loc 1 1292 25 is_stmt 0 view .LVU755
 2212 0022 2369     		ldr	r3, [r4, #16]
 2213 0024 5B1B     		subs	r3, r3, r5
 2214 0026 2361     		str	r3, [r4, #16]
1293:/opt/XMClib/XMC_Peripheral_Library_v2.1.16/XMCLib/src/xmc_usbd.c ****   {
 2215              		.loc 1 1293 3 is_stmt 1 view .LVU756
1293:/opt/XMClib/XMC_Peripheral_Library_v2.1.16/XMCLib/src/xmc_usbd.c ****   {
 2216              		.loc 1 1293 6 is_stmt 0 view .LVU757
 2217 0028 0BB1     		cbz	r3, .L160
1295:/opt/XMClib/XMC_Peripheral_Library_v2.1.16/XMCLib/src/xmc_usbd.c ****   }
 2218              		.loc 1 1295 5 is_stmt 1 view .LVU758
1295:/opt/XMClib/XMC_Peripheral_Library_v2.1.16/XMCLib/src/xmc_usbd.c ****   }
 2219              		.loc 1 1295 19 is_stmt 0 view .LVU759
 2220 002a A369     		ldr	r3, [r4, #24]
 2221 002c 2B44     		add	r3, r3, r5
 2222              	.L160:
 2223 002e 034A     		ldr	r2, .L162
 2224 0030 3421     		movs	r1, #52
 2225 0032 01FB0622 		mla	r2, r1, r6, r2
 2226 0036 9361     		str	r3, [r2, #24]
1301:/opt/XMClib/XMC_Peripheral_Library_v2.1.16/XMCLib/src/xmc_usbd.c **** }
 2227              		.loc 1 1301 3 is_stmt 1 view .LVU760
1302:/opt/XMClib/XMC_Peripheral_Library_v2.1.16/XMCLib/src/xmc_usbd.c **** 
 2228              		.loc 1 1302 1 is_stmt 0 view .LVU761
 2229 0038 2846     		mov	r0, r5
 2230 003a 70BD     		pop	{r4, r5, r6, pc}
 2231              	.LVL160:
 2232              	.L163:
1302:/opt/XMClib/XMC_Peripheral_Library_v2.1.16/XMCLib/src/xmc_usbd.c **** 
 2233              		.loc 1 1302 1 view .LVU762
 2234              		.align	2
 2235              	.L162:
 2236 003c 00000000 		.word	.LANCHOR0
 2237              		.cfi_endproc
 2238              	.LFE193:
 2240              		.section	.text.XMC_USBD_EndpointWrite,"ax",%progbits
 2241              		.align	1
 2242              		.global	XMC_USBD_EndpointWrite
 2243              		.syntax unified
 2244              		.thumb
 2245              		.thumb_func
 2247              	XMC_USBD_EndpointWrite:
 2248              	.LVL161:
 2249              	.LFB194:
1308:/opt/XMClib/XMC_Peripheral_Library_v2.1.16/XMCLib/src/xmc_usbd.c ****   XMC_USBD_EP_t * ep = &xmc_device.ep[ep_num & (uint8_t)XMC_USBD_EP_NUM_MASK];
 2250              		.loc 1 1308 1 is_stmt 1 view -0
 2251              		.cfi_startproc
 2252              		@ args = 0, pretend = 0, frame = 0
 2253              		@ frame_needed = 0, uses_anonymous_args = 0
1308:/opt/XMClib/XMC_Peripheral_Library_v2.1.16/XMCLib/src/xmc_usbd.c ****   XMC_USBD_EP_t * ep = &xmc_device.ep[ep_num & (uint8_t)XMC_USBD_EP_NUM_MASK];
 2254              		.loc 1 1308 1 is_stmt 0 view .LVU764
 2255 0000 2DE9F041 		push	{r4, r5, r6, r7, r8, lr}
 2256              	.LCFI21:
 2257              		.cfi_def_cfa_offset 24
 2258              		.cfi_offset 4, -24
 2259              		.cfi_offset 5, -20
 2260              		.cfi_offset 6, -16
 2261              		.cfi_offset 7, -12
 2262              		.cfi_offset 8, -8
 2263              		.cfi_offset 14, -4
1309:/opt/XMClib/XMC_Peripheral_Library_v2.1.16/XMCLib/src/xmc_usbd.c ****   int32_t result;
 2264              		.loc 1 1309 3 is_stmt 1 view .LVU765
 2265 0004 00F00F04 		and	r4, r0, #15
 2266              	.LVL162:
1310:/opt/XMClib/XMC_Peripheral_Library_v2.1.16/XMCLib/src/xmc_usbd.c ****   if (!ep->isConfigured)
 2267              		.loc 1 1310 3 view .LVU766
1311:/opt/XMClib/XMC_Peripheral_Library_v2.1.16/XMCLib/src/xmc_usbd.c ****   {
 2268              		.loc 1 1311 3 view .LVU767
1311:/opt/XMClib/XMC_Peripheral_Library_v2.1.16/XMCLib/src/xmc_usbd.c ****   {
 2269              		.loc 1 1311 7 is_stmt 0 view .LVU768
 2270 0008 164B     		ldr	r3, .L170
 2271 000a 3420     		movs	r0, #52
 2272              	.LVL163:
1311:/opt/XMClib/XMC_Peripheral_Library_v2.1.16/XMCLib/src/xmc_usbd.c ****   {
 2273              		.loc 1 1311 7 view .LVU769
 2274 000c 00FB0433 		mla	r3, r0, r4, r3
 2275 0010 1B79     		ldrb	r3, [r3, #4]	@ zero_extendqisi2
1311:/opt/XMClib/XMC_Peripheral_Library_v2.1.16/XMCLib/src/xmc_usbd.c ****   {
 2276              		.loc 1 1311 6 view .LVU770
 2277 0012 13F0040F 		tst	r3, #4
 2278 0016 22D0     		beq	.L166
1315:/opt/XMClib/XMC_Peripheral_Library_v2.1.16/XMCLib/src/xmc_usbd.c ****   {
 2279              		.loc 1 1315 8 is_stmt 1 view .LVU771
1315:/opt/XMClib/XMC_Peripheral_Library_v2.1.16/XMCLib/src/xmc_usbd.c ****   {
 2280              		.loc 1 1315 14 is_stmt 0 view .LVU772
 2281 0018 124B     		ldr	r3, .L170
 2282 001a 00FB0433 		mla	r3, r0, r4, r3
 2283 001e 5B68     		ldr	r3, [r3, #4]
1315:/opt/XMClib/XMC_Peripheral_Library_v2.1.16/XMCLib/src/xmc_usbd.c ****   {
 2284              		.loc 1 1315 11 view .LVU773
 2285 0020 13F0080F 		tst	r3, #8
 2286 0024 01D0     		beq	.L169
1317:/opt/XMClib/XMC_Peripheral_Library_v2.1.16/XMCLib/src/xmc_usbd.c ****   }
 2287              		.loc 1 1317 11 view .LVU774
 2288 0026 0020     		movs	r0, #0
 2289              	.LVL164:
1337:/opt/XMClib/XMC_Peripheral_Library_v2.1.16/XMCLib/src/xmc_usbd.c **** }
 2290              		.loc 1 1337 3 is_stmt 1 view .LVU775
1337:/opt/XMClib/XMC_Peripheral_Library_v2.1.16/XMCLib/src/xmc_usbd.c **** }
 2291              		.loc 1 1337 10 is_stmt 0 view .LVU776
 2292 0028 1AE0     		b	.L164
 2293              	.LVL165:
 2294              	.L169:
1321:/opt/XMClib/XMC_Peripheral_Library_v2.1.16/XMCLib/src/xmc_usbd.c ****     {
 2295              		.loc 1 1321 5 is_stmt 1 view .LVU777
1321:/opt/XMClib/XMC_Peripheral_Library_v2.1.16/XMCLib/src/xmc_usbd.c ****     {
 2296              		.loc 1 1321 20 is_stmt 0 view .LVU778
 2297 002a 0E4F     		ldr	r7, .L170
 2298 002c 00FB0475 		mla	r5, r0, r4, r7
1321:/opt/XMClib/XMC_Peripheral_Library_v2.1.16/XMCLib/src/xmc_usbd.c ****     {
 2299              		.loc 1 1321 8 view .LVU779
 2300 0030 2B6A     		ldr	r3, [r5, #32]
 2301 0032 9A42     		cmp	r2, r3
 2302 0034 28BF     		it	cs
 2303 0036 1A46     		movcs	r2, r3
 2304              	.LVL166:
1321:/opt/XMClib/XMC_Peripheral_Library_v2.1.16/XMCLib/src/xmc_usbd.c ****     {
 2305              		.loc 1 1321 8 view .LVU780
 2306 0038 1646     		mov	r6, r2
 2307              	.LVL167:
1326:/opt/XMClib/XMC_Peripheral_Library_v2.1.16/XMCLib/src/xmc_usbd.c **** 		ep->xferBuffer = ep->inBuffer;
 2308              		.loc 1 1326 3 is_stmt 1 view .LVU781
 2309 003a E869     		ldr	r0, [r5, #28]
 2310 003c FFF7FEFF 		bl	memcpy
 2311              	.LVL168:
1327:/opt/XMClib/XMC_Peripheral_Library_v2.1.16/XMCLib/src/xmc_usbd.c ****     ep->xferTotal = length;
 2312              		.loc 1 1327 3 view .LVU782
1327:/opt/XMClib/XMC_Peripheral_Library_v2.1.16/XMCLib/src/xmc_usbd.c ****     ep->xferTotal = length;
 2313              		.loc 1 1327 18 is_stmt 0 view .LVU783
 2314 0040 EB69     		ldr	r3, [r5, #28]
 2315 0042 6B62     		str	r3, [r5, #36]
1328:/opt/XMClib/XMC_Peripheral_Library_v2.1.16/XMCLib/src/xmc_usbd.c ****     /* set transfer values */
 2316              		.loc 1 1328 5 is_stmt 1 view .LVU784
1328:/opt/XMClib/XMC_Peripheral_Library_v2.1.16/XMCLib/src/xmc_usbd.c ****     /* set transfer values */
 2317              		.loc 1 1328 19 is_stmt 0 view .LVU785
 2318 0044 2E63     		str	r6, [r5, #48]
1330:/opt/XMClib/XMC_Peripheral_Library_v2.1.16/XMCLib/src/xmc_usbd.c ****     ep->xferCount = 0U;
 2319              		.loc 1 1330 5 is_stmt 1 view .LVU786
1330:/opt/XMClib/XMC_Peripheral_Library_v2.1.16/XMCLib/src/xmc_usbd.c ****     ep->xferCount = 0U;
 2320              		.loc 1 1330 20 is_stmt 0 view .LVU787
 2321 0046 0023     		movs	r3, #0
 2322 0048 AB62     		str	r3, [r5, #40]
1331:/opt/XMClib/XMC_Peripheral_Library_v2.1.16/XMCLib/src/xmc_usbd.c ****     ep->inInUse = 1U;
 2323              		.loc 1 1331 5 is_stmt 1 view .LVU788
1331:/opt/XMClib/XMC_Peripheral_Library_v2.1.16/XMCLib/src/xmc_usbd.c ****     ep->inInUse = 1U;
 2324              		.loc 1 1331 19 is_stmt 0 view .LVU789
 2325 004a EB62     		str	r3, [r5, #44]
1332:/opt/XMClib/XMC_Peripheral_Library_v2.1.16/XMCLib/src/xmc_usbd.c ****     /* start the transfer */
 2326              		.loc 1 1332 5 is_stmt 1 view .LVU790
1332:/opt/XMClib/XMC_Peripheral_Library_v2.1.16/XMCLib/src/xmc_usbd.c ****     /* start the transfer */
 2327              		.loc 1 1332 17 is_stmt 0 view .LVU791
 2328 004c 6B68     		ldr	r3, [r5, #4]
 2329 004e 43F00803 		orr	r3, r3, #8
 2330 0052 6B60     		str	r3, [r5, #4]
1334:/opt/XMClib/XMC_Peripheral_Library_v2.1.16/XMCLib/src/xmc_usbd.c ****     result=(int32_t)ep->xferTotal;
 2331              		.loc 1 1334 5 is_stmt 1 view .LVU792
 2332 0054 2846     		mov	r0, r5
 2333 0056 FFF7FEFF 		bl	XMC_USBD_lStartWriteXfer
 2334              	.LVL169:
1335:/opt/XMClib/XMC_Peripheral_Library_v2.1.16/XMCLib/src/xmc_usbd.c ****   }
 2335              		.loc 1 1335 5 view .LVU793
1335:/opt/XMClib/XMC_Peripheral_Library_v2.1.16/XMCLib/src/xmc_usbd.c ****   }
 2336              		.loc 1 1335 11 is_stmt 0 view .LVU794
 2337 005a 286B     		ldr	r0, [r5, #48]
 2338              	.LVL170:
1335:/opt/XMClib/XMC_Peripheral_Library_v2.1.16/XMCLib/src/xmc_usbd.c ****   }
 2339              		.loc 1 1335 11 view .LVU795
 2340 005c 00E0     		b	.L164
 2341              	.LVL171:
 2342              	.L166:
1313:/opt/XMClib/XMC_Peripheral_Library_v2.1.16/XMCLib/src/xmc_usbd.c ****   }
 2343              		.loc 1 1313 12 view .LVU796
 2344 005e 0120     		movs	r0, #1
 2345              	.LVL172:
 2346              	.L164:
1338:/opt/XMClib/XMC_Peripheral_Library_v2.1.16/XMCLib/src/xmc_usbd.c **** 
 2347              		.loc 1 1338 1 view .LVU797
 2348 0060 BDE8F081 		pop	{r4, r5, r6, r7, r8, pc}
 2349              	.LVL173:
 2350              	.L171:
1338:/opt/XMClib/XMC_Peripheral_Library_v2.1.16/XMCLib/src/xmc_usbd.c **** 
 2351              		.loc 1 1338 1 view .LVU798
 2352              		.align	2
 2353              	.L170:
 2354 0064 00000000 		.word	.LANCHOR0
 2355              		.cfi_endproc
 2356              	.LFE194:
 2358              		.section	.text.XMC_USBD_lDeviceActive,"ax",%progbits
 2359              		.align	1
 2360              		.global	XMC_USBD_lDeviceActive
 2361              		.syntax unified
 2362              		.thumb
 2363              		.thumb_func
 2365              	XMC_USBD_lDeviceActive:
 2366              	.LVL174:
 2367              	.LFB162:
 181:/opt/XMClib/XMC_Peripheral_Library_v2.1.16/XMCLib/src/xmc_usbd.c ****   uint8_t i;
 2368              		.loc 1 181 1 is_stmt 1 view -0
 2369              		.cfi_startproc
 2370              		@ args = 0, pretend = 0, frame = 0
 2371              		@ frame_needed = 0, uses_anonymous_args = 0
 2372              		@ link register save eliminated.
 182:/opt/XMClib/XMC_Peripheral_Library_v2.1.16/XMCLib/src/xmc_usbd.c ****   uint8_t result = 0U;
 2373              		.loc 1 182 3 view .LVU800
 183:/opt/XMClib/XMC_Peripheral_Library_v2.1.16/XMCLib/src/xmc_usbd.c ****   for (i = 0U; i < (uint8_t)obj->usbd_max_num_eps; i++)
 2374              		.loc 1 183 3 view .LVU801
 184:/opt/XMClib/XMC_Peripheral_Library_v2.1.16/XMCLib/src/xmc_usbd.c ****   {
 2375              		.loc 1 184 3 view .LVU802
 184:/opt/XMClib/XMC_Peripheral_Library_v2.1.16/XMCLib/src/xmc_usbd.c ****   {
 2376              		.loc 1 184 18 discriminator 1 view .LVU803
 184:/opt/XMClib/XMC_Peripheral_Library_v2.1.16/XMCLib/src/xmc_usbd.c ****   {
 2377              		.loc 1 184 32 is_stmt 0 discriminator 1 view .LVU804
 2378 0000 007B     		ldrb	r0, [r0, #12]	@ zero_extendqisi2
 2379              	.LVL175:
 184:/opt/XMClib/XMC_Peripheral_Library_v2.1.16/XMCLib/src/xmc_usbd.c ****   {
 2380              		.loc 1 184 18 discriminator 1 view .LVU805
 2381 0002 D8B1     		cbz	r0, .L180
 181:/opt/XMClib/XMC_Peripheral_Library_v2.1.16/XMCLib/src/xmc_usbd.c ****   uint8_t i;
 2382              		.loc 1 181 1 view .LVU806
 2383 0004 10B4     		push	{r4}
 2384              	.LCFI22:
 2385              		.cfi_def_cfa_offset 4
 2386              		.cfi_offset 4, -4
 2387 0006 8446     		mov	ip, r0
 184:/opt/XMClib/XMC_Peripheral_Library_v2.1.16/XMCLib/src/xmc_usbd.c ****   {
 2388              		.loc 1 184 18 discriminator 1 view .LVU807
 2389 0008 0020     		movs	r0, #0
 183:/opt/XMClib/XMC_Peripheral_Library_v2.1.16/XMCLib/src/xmc_usbd.c ****   for (i = 0U; i < (uint8_t)obj->usbd_max_num_eps; i++)
 2390              		.loc 1 183 11 view .LVU808
 2391 000a 0346     		mov	r3, r0
 186:/opt/XMClib/XMC_Peripheral_Library_v2.1.16/XMCLib/src/xmc_usbd.c ****     {
 2392              		.loc 1 186 25 view .LVU809
 2393 000c 0C4C     		ldr	r4, .L184
 2394 000e 3421     		movs	r1, #52
 2395 0010 03E0     		b	.L175
 2396              	.LVL176:
 2397              	.L176:
 188:/opt/XMClib/XMC_Peripheral_Library_v2.1.16/XMCLib/src/xmc_usbd.c ****     }
 2398              		.loc 1 188 14 view .LVU810
 2399 0012 0120     		movs	r0, #1
 2400              	.LVL177:
 2401              	.L174:
 184:/opt/XMClib/XMC_Peripheral_Library_v2.1.16/XMCLib/src/xmc_usbd.c ****   {
 2402              		.loc 1 184 53 is_stmt 1 discriminator 2 view .LVU811
 184:/opt/XMClib/XMC_Peripheral_Library_v2.1.16/XMCLib/src/xmc_usbd.c ****   {
 2403              		.loc 1 184 18 discriminator 1 view .LVU812
 2404 0014 0133     		adds	r3, r3, #1
 2405              	.LVL178:
 184:/opt/XMClib/XMC_Peripheral_Library_v2.1.16/XMCLib/src/xmc_usbd.c ****   {
 2406              		.loc 1 184 18 is_stmt 0 discriminator 1 view .LVU813
 2407 0016 6345     		cmp	r3, ip
 2408 0018 0DD0     		beq	.L183
 2409              	.LVL179:
 2410              	.L175:
 186:/opt/XMClib/XMC_Peripheral_Library_v2.1.16/XMCLib/src/xmc_usbd.c ****     {
 2411              		.loc 1 186 5 is_stmt 1 view .LVU814
 186:/opt/XMClib/XMC_Peripheral_Library_v2.1.16/XMCLib/src/xmc_usbd.c ****     {
 2412              		.loc 1 186 25 is_stmt 0 view .LVU815
 2413 001a 01FB0342 		mla	r2, r1, r3, r4
 2414 001e 5268     		ldr	r2, [r2, #4]
 186:/opt/XMClib/XMC_Peripheral_Library_v2.1.16/XMCLib/src/xmc_usbd.c ****     {
 2415              		.loc 1 186 8 view .LVU816
 2416 0020 12F0080F 		tst	r2, #8
 2417 0024 F5D1     		bne	.L176
 186:/opt/XMClib/XMC_Peripheral_Library_v2.1.16/XMCLib/src/xmc_usbd.c ****     {
 2418              		.loc 1 186 53 discriminator 1 view .LVU817
 2419 0026 01FB0342 		mla	r2, r1, r3, r4
 2420 002a 5268     		ldr	r2, [r2, #4]
 188:/opt/XMClib/XMC_Peripheral_Library_v2.1.16/XMCLib/src/xmc_usbd.c ****     }
 2421              		.loc 1 188 14 view .LVU818
 2422 002c 12F0100F 		tst	r2, #16
 2423 0030 18BF     		it	ne
 2424 0032 0120     		movne	r0, #1
 2425              	.LVL180:
 188:/opt/XMClib/XMC_Peripheral_Library_v2.1.16/XMCLib/src/xmc_usbd.c ****     }
 2426              		.loc 1 188 14 view .LVU819
 2427 0034 EEE7     		b	.L174
 2428              	.LVL181:
 2429              	.L183:
 191:/opt/XMClib/XMC_Peripheral_Library_v2.1.16/XMCLib/src/xmc_usbd.c **** }
 2430              		.loc 1 191 3 is_stmt 1 view .LVU820
 192:/opt/XMClib/XMC_Peripheral_Library_v2.1.16/XMCLib/src/xmc_usbd.c **** 
 2431              		.loc 1 192 1 is_stmt 0 view .LVU821
 2432 0036 5DF8044B 		ldr	r4, [sp], #4
 2433              	.LCFI23:
 2434              		.cfi_restore 4
 2435              		.cfi_def_cfa_offset 0
 2436 003a 7047     		bx	lr
 2437              	.LVL182:
 2438              	.L180:
 191:/opt/XMClib/XMC_Peripheral_Library_v2.1.16/XMCLib/src/xmc_usbd.c **** }
 2439              		.loc 1 191 3 is_stmt 1 view .LVU822
 192:/opt/XMClib/XMC_Peripheral_Library_v2.1.16/XMCLib/src/xmc_usbd.c **** 
 2440              		.loc 1 192 1 is_stmt 0 view .LVU823
 2441 003c 7047     		bx	lr
 2442              	.L185:
 2443 003e 00BF     		.align	2
 2444              	.L184:
 2445 0040 00000000 		.word	.LANCHOR0
 2446              		.cfi_endproc
 2447              	.LFE162:
 2449              		.section	.text.XMC_USBD_DeviceGetState,"ax",%progbits
 2450              		.align	1
 2451              		.global	XMC_USBD_DeviceGetState
 2452              		.syntax unified
 2453              		.thumb
 2454              		.thumb_func
 2456              	XMC_USBD_DeviceGetState:
 2457              	.LVL183:
 2458              	.LFB191:
1241:/opt/XMClib/XMC_Peripheral_Library_v2.1.16/XMCLib/src/xmc_usbd.c ****   XMC_USBD_STATE_t state={0U};
 2459              		.loc 1 1241 1 is_stmt 1 view -0
 2460              		.cfi_startproc
 2461              		@ args = 0, pretend = 0, frame = 0
 2462              		@ frame_needed = 0, uses_anonymous_args = 0
1241:/opt/XMClib/XMC_Peripheral_Library_v2.1.16/XMCLib/src/xmc_usbd.c ****   XMC_USBD_STATE_t state={0U};
 2463              		.loc 1 1241 1 is_stmt 0 view .LVU825
 2464 0000 70B5     		push	{r4, r5, r6, lr}
 2465              	.LCFI24:
 2466              		.cfi_def_cfa_offset 16
 2467              		.cfi_offset 4, -16
 2468              		.cfi_offset 5, -12
 2469              		.cfi_offset 6, -8
 2470              		.cfi_offset 14, -4
1242:/opt/XMClib/XMC_Peripheral_Library_v2.1.16/XMCLib/src/xmc_usbd.c ****   state.speed = XMC_USBD_SPEED_FULL;
 2471              		.loc 1 1242 3 is_stmt 1 view .LVU826
1242:/opt/XMClib/XMC_Peripheral_Library_v2.1.16/XMCLib/src/xmc_usbd.c ****   state.speed = XMC_USBD_SPEED_FULL;
 2472              		.loc 1 1242 20 is_stmt 0 view .LVU827
 2473 0002 0024     		movs	r4, #0
 2474              	.LVL184:
1243:/opt/XMClib/XMC_Peripheral_Library_v2.1.16/XMCLib/src/xmc_usbd.c ****   state.connected = xmc_device.IsConnected;
 2475              		.loc 1 1243 3 is_stmt 1 view .LVU828
1244:/opt/XMClib/XMC_Peripheral_Library_v2.1.16/XMCLib/src/xmc_usbd.c ****   state.active = XMC_USBD_lDeviceActive(obj);
 2476              		.loc 1 1244 3 view .LVU829
1244:/opt/XMClib/XMC_Peripheral_Library_v2.1.16/XMCLib/src/xmc_usbd.c ****   state.active = XMC_USBD_lDeviceActive(obj);
 2477              		.loc 1 1244 31 is_stmt 0 view .LVU830
 2478 0004 0A4E     		ldr	r6, .L188
 2479 0006 96F8FE51 		ldrb	r5, [r6, #510]	@ zero_extendqisi2
 2480 000a 05F00105 		and	r5, r5, #1
 2481              	.LVL185:
1245:/opt/XMClib/XMC_Peripheral_Library_v2.1.16/XMCLib/src/xmc_usbd.c ****   state.powered = xmc_device.IsPowered;
 2482              		.loc 1 1245 3 is_stmt 1 view .LVU831
1245:/opt/XMClib/XMC_Peripheral_Library_v2.1.16/XMCLib/src/xmc_usbd.c ****   state.powered = xmc_device.IsPowered;
 2483              		.loc 1 1245 18 is_stmt 0 view .LVU832
 2484 000e FFF7FEFF 		bl	XMC_USBD_lDeviceActive
 2485              	.LVL186:
1246:/opt/XMClib/XMC_Peripheral_Library_v2.1.16/XMCLib/src/xmc_usbd.c ****   return state;
 2486              		.loc 1 1246 3 is_stmt 1 view .LVU833
1247:/opt/XMClib/XMC_Peripheral_Library_v2.1.16/XMCLib/src/xmc_usbd.c **** }
 2487              		.loc 1 1247 3 view .LVU834
1246:/opt/XMClib/XMC_Peripheral_Library_v2.1.16/XMCLib/src/xmc_usbd.c ****   return state;
 2488              		.loc 1 1246 29 is_stmt 0 view .LVU835
 2489 0012 96F8FE31 		ldrb	r3, [r6, #510]	@ zero_extendqisi2
 2490 0016 C3F38003 		ubfx	r3, r3, #2, #1
1247:/opt/XMClib/XMC_Peripheral_Library_v2.1.16/XMCLib/src/xmc_usbd.c **** }
 2491              		.loc 1 1247 10 view .LVU836
 2492 001a 63F30004 		bfi	r4, r3, #0, #1
 2493              	.LVL187:
1247:/opt/XMClib/XMC_Peripheral_Library_v2.1.16/XMCLib/src/xmc_usbd.c **** }
 2494              		.loc 1 1247 10 view .LVU837
 2495 001e 65F34104 		bfi	r4, r5, #1, #1
 2496 0022 60F38204 		bfi	r4, r0, #2, #1
 2497 0026 0123     		movs	r3, #1
 2498 0028 63F3C404 		bfi	r4, r3, #3, #2
 2499              	.LVL188:
1248:/opt/XMClib/XMC_Peripheral_Library_v2.1.16/XMCLib/src/xmc_usbd.c **** 
 2500              		.loc 1 1248 1 view .LVU838
 2501 002c 2046     		mov	r0, r4
 2502 002e 70BD     		pop	{r4, r5, r6, pc}
 2503              	.LVL189:
 2504              	.L189:
1248:/opt/XMClib/XMC_Peripheral_Library_v2.1.16/XMCLib/src/xmc_usbd.c **** 
 2505              		.loc 1 1248 1 view .LVU839
 2506              		.align	2
 2507              	.L188:
 2508 0030 00000000 		.word	.LANCHOR0
 2509              		.cfi_endproc
 2510              	.LFE191:
 2512              		.section	.text.XMC_USBD_Enable,"ax",%progbits
 2513              		.align	1
 2514              		.global	XMC_USBD_Enable
 2515              		.syntax unified
 2516              		.thumb
 2517              		.thumb_func
 2519              	XMC_USBD_Enable:
 2520              	.LFB178:
 942:/opt/XMClib/XMC_Peripheral_Library_v2.1.16/XMCLib/src/xmc_usbd.c **** #if defined(CLOCK_GATING_SUPPORTED)
 2521              		.loc 1 942 1 is_stmt 1 view -0
 2522              		.cfi_startproc
 2523              		@ args = 0, pretend = 0, frame = 0
 2524              		@ frame_needed = 0, uses_anonymous_args = 0
 2525 0000 08B5     		push	{r3, lr}
 2526              	.LCFI25:
 2527              		.cfi_def_cfa_offset 8
 2528              		.cfi_offset 3, -8
 2529              		.cfi_offset 14, -4
 947:/opt/XMClib/XMC_Peripheral_Library_v2.1.16/XMCLib/src/xmc_usbd.c ****   XMC_SCU_POWER_EnableUsb();
 2530              		.loc 1 947 3 view .LVU841
 2531 0002 0348     		ldr	r0, .L192
 2532 0004 FFF7FEFF 		bl	XMC_SCU_RESET_DeassertPeripheralReset
 2533              	.LVL190:
 948:/opt/XMClib/XMC_Peripheral_Library_v2.1.16/XMCLib/src/xmc_usbd.c **** }
 2534              		.loc 1 948 3 view .LVU842
 2535 0008 FFF7FEFF 		bl	XMC_SCU_POWER_EnableUsb
 2536              	.LVL191:
 949:/opt/XMClib/XMC_Peripheral_Library_v2.1.16/XMCLib/src/xmc_usbd.c **** 
 2537              		.loc 1 949 1 is_stmt 0 view .LVU843
 2538 000c 08BD     		pop	{r3, pc}
 2539              	.L193:
 2540 000e 00BF     		.align	2
 2541              	.L192:
 2542 0010 80000020 		.word	536871040
 2543              		.cfi_endproc
 2544              	.LFE178:
 2546              		.section	.text.XMC_USBD_Init,"ax",%progbits
 2547              		.align	1
 2548              		.global	XMC_USBD_Init
 2549              		.syntax unified
 2550              		.thumb
 2551              		.thumb_func
 2553              	XMC_USBD_Init:
 2554              	.LVL192:
 2555              	.LFB187:
1084:/opt/XMClib/XMC_Peripheral_Library_v2.1.16/XMCLib/src/xmc_usbd.c ****   uint8_t *XMC_USBD_BASE_ADDRESS;
 2556              		.loc 1 1084 1 is_stmt 1 view -0
 2557              		.cfi_startproc
 2558              		@ args = 0, pretend = 0, frame = 0
 2559              		@ frame_needed = 0, uses_anonymous_args = 0
1084:/opt/XMClib/XMC_Peripheral_Library_v2.1.16/XMCLib/src/xmc_usbd.c ****   uint8_t *XMC_USBD_BASE_ADDRESS;
 2560              		.loc 1 1084 1 is_stmt 0 view .LVU845
 2561 0000 38B5     		push	{r3, r4, r5, lr}
 2562              	.LCFI26:
 2563              		.cfi_def_cfa_offset 16
 2564              		.cfi_offset 3, -16
 2565              		.cfi_offset 4, -12
 2566              		.cfi_offset 5, -8
 2567              		.cfi_offset 14, -4
 2568 0002 0446     		mov	r4, r0
1085:/opt/XMClib/XMC_Peripheral_Library_v2.1.16/XMCLib/src/xmc_usbd.c ****   uint32_t i;
 2569              		.loc 1 1085 3 is_stmt 1 view .LVU846
1086:/opt/XMClib/XMC_Peripheral_Library_v2.1.16/XMCLib/src/xmc_usbd.c ****   gahbcfg_data_t gahbcfg;
 2570              		.loc 1 1086 3 view .LVU847
1087:/opt/XMClib/XMC_Peripheral_Library_v2.1.16/XMCLib/src/xmc_usbd.c ****   gusbcfg_data_t gusbcfg;
 2571              		.loc 1 1087 3 view .LVU848
1088:/opt/XMClib/XMC_Peripheral_Library_v2.1.16/XMCLib/src/xmc_usbd.c ****   dcfg_data_t dcfg;
 2572              		.loc 1 1088 3 view .LVU849
1089:/opt/XMClib/XMC_Peripheral_Library_v2.1.16/XMCLib/src/xmc_usbd.c ****   dctl_data_t dctl;
 2573              		.loc 1 1089 3 view .LVU850
1090:/opt/XMClib/XMC_Peripheral_Library_v2.1.16/XMCLib/src/xmc_usbd.c ****   gintmsk_data_t gintmsk;
 2574              		.loc 1 1090 3 view .LVU851
1091:/opt/XMClib/XMC_Peripheral_Library_v2.1.16/XMCLib/src/xmc_usbd.c **** 
 2575              		.loc 1 1091 3 view .LVU852
1093:/opt/XMClib/XMC_Peripheral_Library_v2.1.16/XMCLib/src/xmc_usbd.c ****  		      XMC_USBD_CHECK_INPUT_MAX_NUM_EPS(obj->usbd_max_num_eps))
 2576              		.loc 1 1093 3 view .LVU853
1096:/opt/XMClib/XMC_Peripheral_Library_v2.1.16/XMCLib/src/xmc_usbd.c ****   
 2577              		.loc 1 1096 3 view .LVU854
 2578 0004 FFF7FEFF 		bl	XMC_USBD_Enable
 2579              	.LVL193:
1098:/opt/XMClib/XMC_Peripheral_Library_v2.1.16/XMCLib/src/xmc_usbd.c **** 
 2580              		.loc 1 1098 3 view .LVU855
1098:/opt/XMClib/XMC_Peripheral_Library_v2.1.16/XMCLib/src/xmc_usbd.c **** 
 2581              		.loc 1 1098 13 is_stmt 0 view .LVU856
 2582 0008 4048     		ldr	r0, .L206
 2583 000a C0F80842 		str	r4, [r0, #520]
1101:/opt/XMClib/XMC_Peripheral_Library_v2.1.16/XMCLib/src/xmc_usbd.c ****   {
 2584              		.loc 1 1101 3 is_stmt 1 view .LVU857
 2585              	.LVL194:
1101:/opt/XMClib/XMC_Peripheral_Library_v2.1.16/XMCLib/src/xmc_usbd.c ****   {
 2586              		.loc 1 1101 16 discriminator 1 view .LVU858
 2587 000e 00F50973 		add	r3, r0, #548
 2588 0012 00F50271 		add	r1, r0, #520
 2589 0016 00F51070 		add	r0, r0, #576
1103:/opt/XMClib/XMC_Peripheral_Library_v2.1.16/XMCLib/src/xmc_usbd.c **** 	  XMC_USBD_EP_IN_BUFFERSIZE[i] 	= XMC_USBD_EP0_BUFFER_SIZE;
 2590              		.loc 1 1103 34 is_stmt 0 view .LVU859
 2591 001a 4022     		movs	r2, #64
 2592              	.LVL195:
 2593              	.L195:
1103:/opt/XMClib/XMC_Peripheral_Library_v2.1.16/XMCLib/src/xmc_usbd.c **** 	  XMC_USBD_EP_IN_BUFFERSIZE[i] 	= XMC_USBD_EP0_BUFFER_SIZE;
 2594              		.loc 1 1103 4 is_stmt 1 view .LVU860
1103:/opt/XMClib/XMC_Peripheral_Library_v2.1.16/XMCLib/src/xmc_usbd.c **** 	  XMC_USBD_EP_IN_BUFFERSIZE[i] 	= XMC_USBD_EP0_BUFFER_SIZE;
 2595              		.loc 1 1103 34 is_stmt 0 view .LVU861
 2596 001c 43F8042F 		str	r2, [r3, #4]!
1104:/opt/XMClib/XMC_Peripheral_Library_v2.1.16/XMCLib/src/xmc_usbd.c ****   }
 2597              		.loc 1 1104 4 is_stmt 1 view .LVU862
1104:/opt/XMClib/XMC_Peripheral_Library_v2.1.16/XMCLib/src/xmc_usbd.c ****   }
 2598              		.loc 1 1104 34 is_stmt 0 view .LVU863
 2599 0020 41F8042F 		str	r2, [r1, #4]!
1101:/opt/XMClib/XMC_Peripheral_Library_v2.1.16/XMCLib/src/xmc_usbd.c ****   {
 2600              		.loc 1 1101 46 is_stmt 1 discriminator 3 view .LVU864
1101:/opt/XMClib/XMC_Peripheral_Library_v2.1.16/XMCLib/src/xmc_usbd.c ****   {
 2601              		.loc 1 1101 16 discriminator 1 view .LVU865
 2602 0024 8342     		cmp	r3, r0
 2603 0026 F9D1     		bne	.L195
1108:/opt/XMClib/XMC_Peripheral_Library_v2.1.16/XMCLib/src/xmc_usbd.c **** 
 2604              		.loc 1 1108 3 view .LVU866
 2605 0028 384D     		ldr	r5, .L206
 2606 002a 4FF40272 		mov	r2, #520
 2607 002e 0021     		movs	r1, #0
 2608 0030 2846     		mov	r0, r5
 2609 0032 FFF7FEFF 		bl	memset
 2610              	.LVL196:
1111:/opt/XMClib/XMC_Peripheral_Library_v2.1.16/XMCLib/src/xmc_usbd.c ****   xmc_device.EndpointEvent_cb = obj->cb_endpoint_event;
 2611              		.loc 1 1111 3 view .LVU867
1111:/opt/XMClib/XMC_Peripheral_Library_v2.1.16/XMCLib/src/xmc_usbd.c ****   xmc_device.EndpointEvent_cb = obj->cb_endpoint_event;
 2612              		.loc 1 1111 34 is_stmt 0 view .LVU868
 2613 0036 6368     		ldr	r3, [r4, #4]
1111:/opt/XMClib/XMC_Peripheral_Library_v2.1.16/XMCLib/src/xmc_usbd.c ****   xmc_device.EndpointEvent_cb = obj->cb_endpoint_event;
 2614              		.loc 1 1111 29 view .LVU869
 2615 0038 C5F80032 		str	r3, [r5, #512]
1112:/opt/XMClib/XMC_Peripheral_Library_v2.1.16/XMCLib/src/xmc_usbd.c ****   XMC_USBD_BASE_ADDRESS = (uint8_t *)(obj->usbd);
 2616              		.loc 1 1112 3 is_stmt 1 view .LVU870
1112:/opt/XMClib/XMC_Peripheral_Library_v2.1.16/XMCLib/src/xmc_usbd.c ****   XMC_USBD_BASE_ADDRESS = (uint8_t *)(obj->usbd);
 2617              		.loc 1 1112 36 is_stmt 0 view .LVU871
 2618 003c A368     		ldr	r3, [r4, #8]
1112:/opt/XMClib/XMC_Peripheral_Library_v2.1.16/XMCLib/src/xmc_usbd.c ****   XMC_USBD_BASE_ADDRESS = (uint8_t *)(obj->usbd);
 2619              		.loc 1 1112 31 view .LVU872
 2620 003e C5F80432 		str	r3, [r5, #516]
1113:/opt/XMClib/XMC_Peripheral_Library_v2.1.16/XMCLib/src/xmc_usbd.c ****   /* assign register address */
 2621              		.loc 1 1113 3 is_stmt 1 view .LVU873
1113:/opt/XMClib/XMC_Peripheral_Library_v2.1.16/XMCLib/src/xmc_usbd.c ****   /* assign register address */
 2622              		.loc 1 1113 25 is_stmt 0 view .LVU874
 2623 0042 2068     		ldr	r0, [r4]
 2624              	.LVL197:
1115:/opt/XMClib/XMC_Peripheral_Library_v2.1.16/XMCLib/src/xmc_usbd.c ****   xmc_device.device_register = ((dwc_otg_device_global_regs_t*)(XMC_USBD_BASE_ADDRESS + DWC_DEV_GLO
 2625              		.loc 1 1115 3 is_stmt 1 view .LVU875
1115:/opt/XMClib/XMC_Peripheral_Library_v2.1.16/XMCLib/src/xmc_usbd.c ****   xmc_device.device_register = ((dwc_otg_device_global_regs_t*)(XMC_USBD_BASE_ADDRESS + DWC_DEV_GLO
 2626              		.loc 1 1115 30 is_stmt 0 view .LVU876
 2627 0044 C5F8A001 		str	r0, [r5, #416]
1116:/opt/XMClib/XMC_Peripheral_Library_v2.1.16/XMCLib/src/xmc_usbd.c ****   for (i = 0U;i < (uint32_t)XMC_USBD_NUM_EPS;i++)
 2628              		.loc 1 1116 3 is_stmt 1 view .LVU877
1116:/opt/XMClib/XMC_Peripheral_Library_v2.1.16/XMCLib/src/xmc_usbd.c ****   for (i = 0U;i < (uint32_t)XMC_USBD_NUM_EPS;i++)
 2629              		.loc 1 1116 87 is_stmt 0 view .LVU878
 2630 0048 00F50063 		add	r3, r0, #2048
1116:/opt/XMClib/XMC_Peripheral_Library_v2.1.16/XMCLib/src/xmc_usbd.c ****   for (i = 0U;i < (uint32_t)XMC_USBD_NUM_EPS;i++)
 2631              		.loc 1 1116 30 view .LVU879
 2632 004c C5F8A431 		str	r3, [r5, #420]
1117:/opt/XMClib/XMC_Peripheral_Library_v2.1.16/XMCLib/src/xmc_usbd.c ****   {
 2633              		.loc 1 1117 3 is_stmt 1 view .LVU880
 2634              	.LVL198:
1117:/opt/XMClib/XMC_Peripheral_Library_v2.1.16/XMCLib/src/xmc_usbd.c ****   {
 2635              		.loc 1 1117 17 discriminator 1 view .LVU881
 2636 0050 00F51062 		add	r2, r0, #2304
 2637 0054 05F5D273 		add	r3, r5, #420
 2638 0058 05F5E071 		add	r1, r5, #448
 2639              	.LVL199:
 2640              	.L196:
1119:/opt/XMClib/XMC_Peripheral_Library_v2.1.16/XMCLib/src/xmc_usbd.c ****     ((uint32_t)DWC_EP_REG_OFFSET*i));
 2641              		.loc 1 1119 5 view .LVU882
1119:/opt/XMClib/XMC_Peripheral_Library_v2.1.16/XMCLib/src/xmc_usbd.c ****     ((uint32_t)DWC_EP_REG_OFFSET*i));
 2642              		.loc 1 1119 40 is_stmt 0 view .LVU883
 2643 005c 43F8042F 		str	r2, [r3, #4]!
1117:/opt/XMClib/XMC_Peripheral_Library_v2.1.16/XMCLib/src/xmc_usbd.c ****   {
 2644              		.loc 1 1117 47 is_stmt 1 discriminator 3 view .LVU884
1117:/opt/XMClib/XMC_Peripheral_Library_v2.1.16/XMCLib/src/xmc_usbd.c ****   {
 2645              		.loc 1 1117 17 discriminator 1 view .LVU885
 2646 0060 2032     		adds	r2, r2, #32
 2647 0062 8B42     		cmp	r3, r1
 2648 0064 FAD1     		bne	.L196
 2649 0066 00F53062 		add	r2, r0, #2816
 2650 006a 294B     		ldr	r3, .L206+4
 2651 006c 05F5EE71 		add	r1, r5, #476
 2652              	.L197:
1124:/opt/XMClib/XMC_Peripheral_Library_v2.1.16/XMCLib/src/xmc_usbd.c ****     									  DWC_DEV_OUT_EP_REG_OFFSET +
 2653              		.loc 1 1124 5 view .LVU886
1124:/opt/XMClib/XMC_Peripheral_Library_v2.1.16/XMCLib/src/xmc_usbd.c ****     									  DWC_DEV_OUT_EP_REG_OFFSET +
 2654              		.loc 1 1124 41 is_stmt 0 view .LVU887
 2655 0070 43F8042F 		str	r2, [r3, #4]!
1122:/opt/XMClib/XMC_Peripheral_Library_v2.1.16/XMCLib/src/xmc_usbd.c ****   {
 2656              		.loc 1 1122 47 is_stmt 1 discriminator 3 view .LVU888
1122:/opt/XMClib/XMC_Peripheral_Library_v2.1.16/XMCLib/src/xmc_usbd.c ****   {
 2657              		.loc 1 1122 17 discriminator 1 view .LVU889
 2658 0074 2032     		adds	r2, r2, #32
 2659 0076 8B42     		cmp	r3, r1
 2660 0078 FAD1     		bne	.L197
 2661 007a 00F58052 		add	r2, r0, #4096
 2662 007e 254B     		ldr	r3, .L206+8
 2663 0080 05F5FC75 		add	r5, r5, #504
 2664              	.L198:
1130:/opt/XMClib/XMC_Peripheral_Library_v2.1.16/XMCLib/src/xmc_usbd.c ****     						XMC_USBD_TX_FIFO_REG_OFFSET +
 2665              		.loc 1 1130 5 view .LVU890
1130:/opt/XMClib/XMC_Peripheral_Library_v2.1.16/XMCLib/src/xmc_usbd.c ****     						XMC_USBD_TX_FIFO_REG_OFFSET +
 2666              		.loc 1 1130 24 is_stmt 0 view .LVU891
 2667 0084 43F8042F 		str	r2, [r3, #4]!
1128:/opt/XMClib/XMC_Peripheral_Library_v2.1.16/XMCLib/src/xmc_usbd.c ****   {
 2668              		.loc 1 1128 52 is_stmt 1 discriminator 3 view .LVU892
1128:/opt/XMClib/XMC_Peripheral_Library_v2.1.16/XMCLib/src/xmc_usbd.c ****   {
 2669              		.loc 1 1128 17 discriminator 1 view .LVU893
 2670 0088 02F58052 		add	r2, r2, #4096
 2671 008c AB42     		cmp	r3, r5
 2672 008e F9D1     		bne	.L198
1137:/opt/XMClib/XMC_Peripheral_Library_v2.1.16/XMCLib/src/xmc_usbd.c ****   gahbcfg.b.glblintrmsk = 1U; /* enable interrupts ( global mask ) */
 2673              		.loc 1 1137 3 view .LVU894
1137:/opt/XMClib/XMC_Peripheral_Library_v2.1.16/XMCLib/src/xmc_usbd.c ****   gahbcfg.b.glblintrmsk = 1U; /* enable interrupts ( global mask ) */
 2674              		.loc 1 1137 43 is_stmt 0 view .LVU895
 2675 0090 8268     		ldr	r2, [r0, #8]
1138:/opt/XMClib/XMC_Peripheral_Library_v2.1.16/XMCLib/src/xmc_usbd.c ****   gahbcfg.b.nptxfemplvl_txfemplvl = 1U;
 2676              		.loc 1 1138 3 is_stmt 1 view .LVU896
1139:/opt/XMClib/XMC_Peripheral_Library_v2.1.16/XMCLib/src/xmc_usbd.c ****   if(obj->usbd_transfer_mode == XMC_USBD_USE_DMA)
 2677              		.loc 1 1139 3 view .LVU897
1139:/opt/XMClib/XMC_Peripheral_Library_v2.1.16/XMCLib/src/xmc_usbd.c ****   if(obj->usbd_transfer_mode == XMC_USBD_USE_DMA)
 2678              		.loc 1 1139 35 is_stmt 0 view .LVU898
 2679 0092 42F08102 		orr	r2, r2, #129
 2680              	.LVL200:
1140:/opt/XMClib/XMC_Peripheral_Library_v2.1.16/XMCLib/src/xmc_usbd.c ****   {
 2681              		.loc 1 1140 3 is_stmt 1 view .LVU899
1140:/opt/XMClib/XMC_Peripheral_Library_v2.1.16/XMCLib/src/xmc_usbd.c ****   {
 2682              		.loc 1 1140 5 is_stmt 0 view .LVU900
 2683 0096 637B     		ldrb	r3, [r4, #13]	@ zero_extendqisi2
 2684 0098 B3FA83F3 		clz	r3, r3
 2685 009c 5B09     		lsrs	r3, r3, #5
 2686 009e 63F34512 		bfi	r2, r3, #5, #1
 2687              	.LVL201:
1149:/opt/XMClib/XMC_Peripheral_Library_v2.1.16/XMCLib/src/xmc_usbd.c ****   /* configure usb details */  
 2688              		.loc 1 1149 3 is_stmt 1 view .LVU901
1149:/opt/XMClib/XMC_Peripheral_Library_v2.1.16/XMCLib/src/xmc_usbd.c ****   /* configure usb details */  
 2689              		.loc 1 1149 39 is_stmt 0 view .LVU902
 2690 00a2 8260     		str	r2, [r0, #8]
1151:/opt/XMClib/XMC_Peripheral_Library_v2.1.16/XMCLib/src/xmc_usbd.c ****   gusbcfg.b.force_dev_mode = 1U; /* force us into device mode */
 2691              		.loc 1 1151 3 is_stmt 1 view .LVU903
1151:/opt/XMClib/XMC_Peripheral_Library_v2.1.16/XMCLib/src/xmc_usbd.c ****   gusbcfg.b.force_dev_mode = 1U; /* force us into device mode */
 2692              		.loc 1 1151 26 is_stmt 0 view .LVU904
 2693 00a4 194D     		ldr	r5, .L206
 2694 00a6 D5F8A021 		ldr	r2, [r5, #416]
 2695              	.LVL202:
1151:/opt/XMClib/XMC_Peripheral_Library_v2.1.16/XMCLib/src/xmc_usbd.c ****   gusbcfg.b.force_dev_mode = 1U; /* force us into device mode */
 2696              		.loc 1 1151 42 view .LVU905
 2697 00aa D368     		ldr	r3, [r2, #12]
1152:/opt/XMClib/XMC_Peripheral_Library_v2.1.16/XMCLib/src/xmc_usbd.c ****   gusbcfg.b.srpcap = 1U; /* enable session request protocoll */
 2698              		.loc 1 1152 3 is_stmt 1 view .LVU906
1153:/opt/XMClib/XMC_Peripheral_Library_v2.1.16/XMCLib/src/xmc_usbd.c ****   xmc_device.global_register->gusbcfg = gusbcfg.d32;
 2699              		.loc 1 1153 3 view .LVU907
1153:/opt/XMClib/XMC_Peripheral_Library_v2.1.16/XMCLib/src/xmc_usbd.c ****   xmc_device.global_register->gusbcfg = gusbcfg.d32;
 2700              		.loc 1 1153 20 is_stmt 0 view .LVU908
 2701 00ac 43F08043 		orr	r3, r3, #1073741824
 2702              	.LVL203:
1153:/opt/XMClib/XMC_Peripheral_Library_v2.1.16/XMCLib/src/xmc_usbd.c ****   xmc_device.global_register->gusbcfg = gusbcfg.d32;
 2703              		.loc 1 1153 20 view .LVU909
 2704 00b0 43F48073 		orr	r3, r3, #256
 2705              	.LVL204:
1154:/opt/XMClib/XMC_Peripheral_Library_v2.1.16/XMCLib/src/xmc_usbd.c **** 
 2706              		.loc 1 1154 3 is_stmt 1 view .LVU910
1154:/opt/XMClib/XMC_Peripheral_Library_v2.1.16/XMCLib/src/xmc_usbd.c **** 
 2707              		.loc 1 1154 39 is_stmt 0 view .LVU911
 2708 00b4 D360     		str	r3, [r2, #12]
1158:/opt/XMClib/XMC_Peripheral_Library_v2.1.16/XMCLib/src/xmc_usbd.c ****   dcfg.b.devspd = XMC_USBD_DCFG_DEVSPD_FS;
 2709              		.loc 1 1158 3 is_stmt 1 view .LVU912
1158:/opt/XMClib/XMC_Peripheral_Library_v2.1.16/XMCLib/src/xmc_usbd.c ****   dcfg.b.devspd = XMC_USBD_DCFG_DEVSPD_FS;
 2710              		.loc 1 1158 24 is_stmt 0 view .LVU913
 2711 00b6 D5F8A421 		ldr	r2, [r5, #420]
1158:/opt/XMClib/XMC_Peripheral_Library_v2.1.16/XMCLib/src/xmc_usbd.c ****   dcfg.b.devspd = XMC_USBD_DCFG_DEVSPD_FS;
 2712              		.loc 1 1158 40 view .LVU914
 2713 00ba 1368     		ldr	r3, [r2]
 2714              	.LVL205:
1159:/opt/XMClib/XMC_Peripheral_Library_v2.1.16/XMCLib/src/xmc_usbd.c ****   dcfg.b.descdma = 0U;
 2715              		.loc 1 1159 3 is_stmt 1 view .LVU915
1159:/opt/XMClib/XMC_Peripheral_Library_v2.1.16/XMCLib/src/xmc_usbd.c ****   dcfg.b.descdma = 0U;
 2716              		.loc 1 1159 17 is_stmt 0 view .LVU916
 2717 00bc 43F00303 		orr	r3, r3, #3
 2718              	.LVL206:
1160:/opt/XMClib/XMC_Peripheral_Library_v2.1.16/XMCLib/src/xmc_usbd.c ****   xmc_device.device_register->dcfg = dcfg.d32;
 2719              		.loc 1 1160 3 is_stmt 1 view .LVU917
1160:/opt/XMClib/XMC_Peripheral_Library_v2.1.16/XMCLib/src/xmc_usbd.c ****   xmc_device.device_register->dcfg = dcfg.d32;
 2720              		.loc 1 1160 18 is_stmt 0 view .LVU918
 2721 00c0 23F40003 		bic	r3, r3, #8388608
 2722              	.LVL207:
1161:/opt/XMClib/XMC_Peripheral_Library_v2.1.16/XMCLib/src/xmc_usbd.c ****   /* configure device functions */  
 2723              		.loc 1 1161 3 is_stmt 1 view .LVU919
1161:/opt/XMClib/XMC_Peripheral_Library_v2.1.16/XMCLib/src/xmc_usbd.c ****   /* configure device functions */  
 2724              		.loc 1 1161 36 is_stmt 0 view .LVU920
 2725 00c4 1360     		str	r3, [r2]
1163:/opt/XMClib/XMC_Peripheral_Library_v2.1.16/XMCLib/src/xmc_usbd.c ****   dctl.b.sftdiscon = 1U; /* disconnect the device until its connected by the user */
 2726              		.loc 1 1163 3 is_stmt 1 view .LVU921
1163:/opt/XMClib/XMC_Peripheral_Library_v2.1.16/XMCLib/src/xmc_usbd.c ****   dctl.b.sftdiscon = 1U; /* disconnect the device until its connected by the user */
 2727              		.loc 1 1163 24 is_stmt 0 view .LVU922
 2728 00c6 D5F8A421 		ldr	r2, [r5, #420]
1163:/opt/XMClib/XMC_Peripheral_Library_v2.1.16/XMCLib/src/xmc_usbd.c ****   dctl.b.sftdiscon = 1U; /* disconnect the device until its connected by the user */
 2729              		.loc 1 1163 40 view .LVU923
 2730 00ca 5368     		ldr	r3, [r2, #4]
 2731              	.LVL208:
1164:/opt/XMClib/XMC_Peripheral_Library_v2.1.16/XMCLib/src/xmc_usbd.c ****   /* all other config is done by default register value */
 2732              		.loc 1 1164 3 is_stmt 1 view .LVU924
1164:/opt/XMClib/XMC_Peripheral_Library_v2.1.16/XMCLib/src/xmc_usbd.c ****   /* all other config is done by default register value */
 2733              		.loc 1 1164 20 is_stmt 0 view .LVU925
 2734 00cc 43F00203 		orr	r3, r3, #2
 2735              	.LVL209:
1166:/opt/XMClib/XMC_Peripheral_Library_v2.1.16/XMCLib/src/xmc_usbd.c ****   /* flush the fifos for proper operation */
 2736              		.loc 1 1166 3 is_stmt 1 view .LVU926
1166:/opt/XMClib/XMC_Peripheral_Library_v2.1.16/XMCLib/src/xmc_usbd.c ****   /* flush the fifos for proper operation */
 2737              		.loc 1 1166 36 is_stmt 0 view .LVU927
 2738 00d0 5360     		str	r3, [r2, #4]
1168:/opt/XMClib/XMC_Peripheral_Library_v2.1.16/XMCLib/src/xmc_usbd.c ****   XMC_USBD_lFlushRXFifo();
 2739              		.loc 1 1168 3 is_stmt 1 view .LVU928
 2740 00d2 1020     		movs	r0, #16
 2741              	.LVL210:
1168:/opt/XMClib/XMC_Peripheral_Library_v2.1.16/XMCLib/src/xmc_usbd.c ****   XMC_USBD_lFlushRXFifo();
 2742              		.loc 1 1168 3 is_stmt 0 view .LVU929
 2743 00d4 FFF7FEFF 		bl	XMC_USBD_lFlushTXFifo
 2744              	.LVL211:
1169:/opt/XMClib/XMC_Peripheral_Library_v2.1.16/XMCLib/src/xmc_usbd.c ****   /* Enable Global Interrupts */
 2745              		.loc 1 1169 3 is_stmt 1 view .LVU930
 2746 00d8 FFF7FEFF 		bl	XMC_USBD_lFlushRXFifo
 2747              	.LVL212:
1172:/opt/XMClib/XMC_Peripheral_Library_v2.1.16/XMCLib/src/xmc_usbd.c ****   xmc_device.global_register->gintsts = 0xFFFFFFFFU; /* clear all interrupts */
 2748              		.loc 1 1172 3 view .LVU931
1172:/opt/XMClib/XMC_Peripheral_Library_v2.1.16/XMCLib/src/xmc_usbd.c ****   xmc_device.global_register->gintsts = 0xFFFFFFFFU; /* clear all interrupts */
 2749              		.loc 1 1172 13 is_stmt 0 view .LVU932
 2750 00dc D5F8A031 		ldr	r3, [r5, #416]
1172:/opt/XMClib/XMC_Peripheral_Library_v2.1.16/XMCLib/src/xmc_usbd.c ****   xmc_device.global_register->gintsts = 0xFFFFFFFFU; /* clear all interrupts */
 2751              		.loc 1 1172 39 view .LVU933
 2752 00e0 0022     		movs	r2, #0
 2753 00e2 9A61     		str	r2, [r3, #24]
1173:/opt/XMClib/XMC_Peripheral_Library_v2.1.16/XMCLib/src/xmc_usbd.c ****  
 2754              		.loc 1 1173 3 is_stmt 1 view .LVU934
1173:/opt/XMClib/XMC_Peripheral_Library_v2.1.16/XMCLib/src/xmc_usbd.c ****  
 2755              		.loc 1 1173 13 is_stmt 0 view .LVU935
 2756 00e4 D5F8A031 		ldr	r3, [r5, #416]
1173:/opt/XMClib/XMC_Peripheral_Library_v2.1.16/XMCLib/src/xmc_usbd.c ****  
 2757              		.loc 1 1173 39 view .LVU936
 2758 00e8 4FF0FF32 		mov	r2, #-1
 2759 00ec 5A61     		str	r2, [r3, #20]
1175:/opt/XMClib/XMC_Peripheral_Library_v2.1.16/XMCLib/src/xmc_usbd.c ****   /* enable common interrupts */
 2760              		.loc 1 1175 3 is_stmt 1 view .LVU937
1177:/opt/XMClib/XMC_Peripheral_Library_v2.1.16/XMCLib/src/xmc_usbd.c ****   gintmsk.b.otgintr = 1U;
 2761              		.loc 1 1177 3 view .LVU938
1178:/opt/XMClib/XMC_Peripheral_Library_v2.1.16/XMCLib/src/xmc_usbd.c ****   gintmsk.b.sessreqintr = 1U;
 2762              		.loc 1 1178 3 view .LVU939
1179:/opt/XMClib/XMC_Peripheral_Library_v2.1.16/XMCLib/src/xmc_usbd.c ****   /* enable device interrupts */
 2763              		.loc 1 1179 3 view .LVU940
1181:/opt/XMClib/XMC_Peripheral_Library_v2.1.16/XMCLib/src/xmc_usbd.c ****   gintmsk.b.enumdone = 1U;
 2764              		.loc 1 1181 3 view .LVU941
1182:/opt/XMClib/XMC_Peripheral_Library_v2.1.16/XMCLib/src/xmc_usbd.c ****   gintmsk.b.erlysuspend = 1U;
 2765              		.loc 1 1182 3 view .LVU942
1183:/opt/XMClib/XMC_Peripheral_Library_v2.1.16/XMCLib/src/xmc_usbd.c ****   gintmsk.b.usbsuspend = 1U;
 2766              		.loc 1 1183 3 view .LVU943
1184:/opt/XMClib/XMC_Peripheral_Library_v2.1.16/XMCLib/src/xmc_usbd.c ****   gintmsk.b.wkupintr = 1U;
 2767              		.loc 1 1184 3 view .LVU944
1185:/opt/XMClib/XMC_Peripheral_Library_v2.1.16/XMCLib/src/xmc_usbd.c ****   gintmsk.b.sofintr = 1U;
 2768              		.loc 1 1185 3 view .LVU945
1186:/opt/XMClib/XMC_Peripheral_Library_v2.1.16/XMCLib/src/xmc_usbd.c ****   if(obj->usbd_transfer_mode == XMC_USBD_USE_FIFO)
 2769              		.loc 1 1186 3 view .LVU946
1186:/opt/XMClib/XMC_Peripheral_Library_v2.1.16/XMCLib/src/xmc_usbd.c ****   if(obj->usbd_transfer_mode == XMC_USBD_USE_FIFO)
 2770              		.loc 1 1186 21 is_stmt 0 view .LVU947
 2771 00ee 0A4B     		ldr	r3, .L206+12
 2772              	.LVL213:
1187:/opt/XMClib/XMC_Peripheral_Library_v2.1.16/XMCLib/src/xmc_usbd.c ****   {
 2773              		.loc 1 1187 3 is_stmt 1 view .LVU948
1187:/opt/XMClib/XMC_Peripheral_Library_v2.1.16/XMCLib/src/xmc_usbd.c ****   {
 2774              		.loc 1 1187 5 is_stmt 0 view .LVU949
 2775 00f0 627B     		ldrb	r2, [r4, #13]	@ zero_extendqisi2
 2776 00f2 012A     		cmp	r2, #1
1189:/opt/XMClib/XMC_Peripheral_Library_v2.1.16/XMCLib/src/xmc_usbd.c ****   }
 2777              		.loc 1 1189 25 view .LVU950
 2778 00f4 0CBF     		ite	eq
 2779 00f6 0122     		moveq	r2, #1
 2780 00f8 0022     		movne	r2, #0
 2781 00fa 62F30413 		bfi	r3, r2, #4, #1
 2782              	.LVL214:
1191:/opt/XMClib/XMC_Peripheral_Library_v2.1.16/XMCLib/src/xmc_usbd.c ****   gintmsk.b.inepintr = 1U;
 2783              		.loc 1 1191 3 is_stmt 1 view .LVU951
1192:/opt/XMClib/XMC_Peripheral_Library_v2.1.16/XMCLib/src/xmc_usbd.c ****   xmc_device.global_register->gintmsk = gintmsk.d32;
 2784              		.loc 1 1192 3 view .LVU952
1192:/opt/XMClib/XMC_Peripheral_Library_v2.1.16/XMCLib/src/xmc_usbd.c ****   xmc_device.global_register->gintmsk = gintmsk.d32;
 2785              		.loc 1 1192 22 is_stmt 0 view .LVU953
 2786 00fe 43F44023 		orr	r3, r3, #786432
 2787              	.LVL215:
1193:/opt/XMClib/XMC_Peripheral_Library_v2.1.16/XMCLib/src/xmc_usbd.c ****   return XMC_USBD_STATUS_OK;
 2788              		.loc 1 1193 3 is_stmt 1 view .LVU954
1193:/opt/XMClib/XMC_Peripheral_Library_v2.1.16/XMCLib/src/xmc_usbd.c ****   return XMC_USBD_STATUS_OK;
 2789              		.loc 1 1193 13 is_stmt 0 view .LVU955
 2790 0102 D5F8A021 		ldr	r2, [r5, #416]
 2791              	.LVL216:
1193:/opt/XMClib/XMC_Peripheral_Library_v2.1.16/XMCLib/src/xmc_usbd.c ****   return XMC_USBD_STATUS_OK;
 2792              		.loc 1 1193 39 view .LVU956
 2793 0106 9361     		str	r3, [r2, #24]
1194:/opt/XMClib/XMC_Peripheral_Library_v2.1.16/XMCLib/src/xmc_usbd.c **** }
 2794              		.loc 1 1194 3 is_stmt 1 view .LVU957
1195:/opt/XMClib/XMC_Peripheral_Library_v2.1.16/XMCLib/src/xmc_usbd.c **** 
 2795              		.loc 1 1195 1 is_stmt 0 view .LVU958
 2796 0108 0020     		movs	r0, #0
 2797 010a 38BD     		pop	{r3, r4, r5, pc}
 2798              	.LVL217:
 2799              	.L207:
1195:/opt/XMClib/XMC_Peripheral_Library_v2.1.16/XMCLib/src/xmc_usbd.c **** 
 2800              		.loc 1 1195 1 view .LVU959
 2801              		.align	2
 2802              	.L206:
 2803 010c 00000000 		.word	.LANCHOR0
 2804 0110 C0010000 		.word	.LANCHOR0+448
 2805 0114 DC010000 		.word	.LANCHOR0+476
 2806 0118 0E3C00C0 		.word	-1073726450
 2807              		.cfi_endproc
 2808              	.LFE187:
 2810              		.section	.text.XMC_USBD_Disable,"ax",%progbits
 2811              		.align	1
 2812              		.global	XMC_USBD_Disable
 2813              		.syntax unified
 2814              		.thumb
 2815              		.thumb_func
 2817              	XMC_USBD_Disable:
 2818              	.LFB179:
 955:/opt/XMClib/XMC_Peripheral_Library_v2.1.16/XMCLib/src/xmc_usbd.c ****   /* Clear Reset and power up */
 2819              		.loc 1 955 1 is_stmt 1 view -0
 2820              		.cfi_startproc
 2821              		@ args = 0, pretend = 0, frame = 0
 2822              		@ frame_needed = 0, uses_anonymous_args = 0
 2823 0000 08B5     		push	{r3, lr}
 2824              	.LCFI27:
 2825              		.cfi_def_cfa_offset 8
 2826              		.cfi_offset 3, -8
 2827              		.cfi_offset 14, -4
 957:/opt/XMClib/XMC_Peripheral_Library_v2.1.16/XMCLib/src/xmc_usbd.c **** #if defined(CLOCK_GATING_SUPPORTED)
 2828              		.loc 1 957 3 view .LVU961
 2829 0002 0348     		ldr	r0, .L210
 2830 0004 FFF7FEFF 		bl	XMC_SCU_RESET_AssertPeripheralReset
 2831              	.LVL218:
 961:/opt/XMClib/XMC_Peripheral_Library_v2.1.16/XMCLib/src/xmc_usbd.c **** }
 2832              		.loc 1 961 3 view .LVU962
 2833 0008 FFF7FEFF 		bl	XMC_SCU_POWER_DisableUsb
 2834              	.LVL219:
 962:/opt/XMClib/XMC_Peripheral_Library_v2.1.16/XMCLib/src/xmc_usbd.c **** 
 2835              		.loc 1 962 1 is_stmt 0 view .LVU963
 2836 000c 08BD     		pop	{r3, pc}
 2837              	.L211:
 2838 000e 00BF     		.align	2
 2839              	.L210:
 2840 0010 80000020 		.word	536871040
 2841              		.cfi_endproc
 2842              	.LFE179:
 2844              		.section	.text.XMC_USBD_ClearEvent,"ax",%progbits
 2845              		.align	1
 2846              		.global	XMC_USBD_ClearEvent
 2847              		.syntax unified
 2848              		.thumb
 2849              		.thumb_func
 2851              	XMC_USBD_ClearEvent:
 2852              	.LVL220:
 2853              	.LFB180:
 968:/opt/XMClib/XMC_Peripheral_Library_v2.1.16/XMCLib/src/xmc_usbd.c ****   gintsts_data_t clear;
 2854              		.loc 1 968 1 is_stmt 1 view -0
 2855              		.cfi_startproc
 2856              		@ args = 0, pretend = 0, frame = 0
 2857              		@ frame_needed = 0, uses_anonymous_args = 0
 2858              		@ link register save eliminated.
 969:/opt/XMClib/XMC_Peripheral_Library_v2.1.16/XMCLib/src/xmc_usbd.c ****   clear.d32 = 0U;
 2859              		.loc 1 969 3 view .LVU965
 970:/opt/XMClib/XMC_Peripheral_Library_v2.1.16/XMCLib/src/xmc_usbd.c ****   switch(event)
 2860              		.loc 1 970 3 view .LVU966
 970:/opt/XMClib/XMC_Peripheral_Library_v2.1.16/XMCLib/src/xmc_usbd.c ****   switch(event)
 2861              		.loc 1 970 13 is_stmt 0 view .LVU967
 2862 0000 0023     		movs	r3, #0
 2863              	.LVL221:
 971:/opt/XMClib/XMC_Peripheral_Library_v2.1.16/XMCLib/src/xmc_usbd.c ****   {
 2864              		.loc 1 971 3 is_stmt 1 view .LVU968
 2865 0002 0D28     		cmp	r0, #13
 2866 0004 0AD8     		bhi	.L213
 2867 0006 DFE800F0 		tbb	[pc, r0]
 2868              	.L215:
 2869 000a 07       		.byte	(.L223-.L215)/2
 2870 000b 09       		.byte	(.L213-.L215)/2
 2871 000c 09       		.byte	(.L213-.L215)/2
 2872 000d 09       		.byte	(.L213-.L215)/2
 2873 000e 0E       		.byte	(.L222-.L215)/2
 2874 000f 09       		.byte	(.L213-.L215)/2
 2875 0010 11       		.byte	(.L221-.L215)/2
 2876 0011 14       		.byte	(.L220-.L215)/2
 2877 0012 17       		.byte	(.L219-.L215)/2
 2878 0013 1A       		.byte	(.L218-.L215)/2
 2879 0014 1C       		.byte	(.L217-.L215)/2
 2880 0015 1F       		.byte	(.L216-.L215)/2
 2881 0016 09       		.byte	(.L213-.L215)/2
 2882 0017 22       		.byte	(.L214-.L215)/2
 2883              		.p2align 1
 2884              	.L223:
 974:/opt/XMClib/XMC_Peripheral_Library_v2.1.16/XMCLib/src/xmc_usbd.c **** 	  break;
 2885              		.loc 1 974 4 view .LVU969
 974:/opt/XMClib/XMC_Peripheral_Library_v2.1.16/XMCLib/src/xmc_usbd.c **** 	  break;
 2886              		.loc 1 974 24 is_stmt 0 view .LVU970
 2887 0018 4FF08043 		mov	r3, #1073741824
 975:/opt/XMClib/XMC_Peripheral_Library_v2.1.16/XMCLib/src/xmc_usbd.c ****     case (XMC_USBD_EVENT_RESET):
 2888              		.loc 1 975 4 is_stmt 1 view .LVU971
 2889              	.L213:
1003:/opt/XMClib/XMC_Peripheral_Library_v2.1.16/XMCLib/src/xmc_usbd.c **** }
 2890              		.loc 1 1003 2 view .LVU972
1003:/opt/XMClib/XMC_Peripheral_Library_v2.1.16/XMCLib/src/xmc_usbd.c **** }
 2891              		.loc 1 1003 12 is_stmt 0 view .LVU973
 2892 001c 0D4A     		ldr	r2, .L225
 2893 001e D2F8A021 		ldr	r2, [r2, #416]
 2894              	.LVL222:
1003:/opt/XMClib/XMC_Peripheral_Library_v2.1.16/XMCLib/src/xmc_usbd.c **** }
 2895              		.loc 1 1003 38 view .LVU974
 2896 0022 5361     		str	r3, [r2, #20]
1004:/opt/XMClib/XMC_Peripheral_Library_v2.1.16/XMCLib/src/xmc_usbd.c **** 
 2897              		.loc 1 1004 1 view .LVU975
 2898 0024 7047     		bx	lr
 2899              	.LVL223:
 2900              	.L222:
 977:/opt/XMClib/XMC_Peripheral_Library_v2.1.16/XMCLib/src/xmc_usbd.c **** 	  break;
 2901              		.loc 1 977 4 is_stmt 1 view .LVU976
 977:/opt/XMClib/XMC_Peripheral_Library_v2.1.16/XMCLib/src/xmc_usbd.c **** 	  break;
 2902              		.loc 1 977 21 is_stmt 0 view .LVU977
 2903 0026 4FF48053 		mov	r3, #4096
 978:/opt/XMClib/XMC_Peripheral_Library_v2.1.16/XMCLib/src/xmc_usbd.c ****     case (XMC_USBD_EVENT_SUSPEND):
 2904              		.loc 1 978 4 is_stmt 1 view .LVU978
 2905 002a F7E7     		b	.L213
 2906              	.L221:
 980:/opt/XMClib/XMC_Peripheral_Library_v2.1.16/XMCLib/src/xmc_usbd.c **** 	  break;
 2907              		.loc 1 980 4 view .LVU979
 980:/opt/XMClib/XMC_Peripheral_Library_v2.1.16/XMCLib/src/xmc_usbd.c **** 	  break;
 2908              		.loc 1 980 23 is_stmt 0 view .LVU980
 2909 002c 4FF40063 		mov	r3, #2048
 981:/opt/XMClib/XMC_Peripheral_Library_v2.1.16/XMCLib/src/xmc_usbd.c ****     case (XMC_USBD_EVENT_RESUME):
 2910              		.loc 1 981 4 is_stmt 1 view .LVU981
 2911 0030 F4E7     		b	.L213
 2912              	.L220:
 983:/opt/XMClib/XMC_Peripheral_Library_v2.1.16/XMCLib/src/xmc_usbd.c **** 	  break;
 2913              		.loc 1 983 4 view .LVU982
 983:/opt/XMClib/XMC_Peripheral_Library_v2.1.16/XMCLib/src/xmc_usbd.c **** 	  break;
 2914              		.loc 1 983 21 is_stmt 0 view .LVU983
 2915 0032 4FF00043 		mov	r3, #-2147483648
 984:/opt/XMClib/XMC_Peripheral_Library_v2.1.16/XMCLib/src/xmc_usbd.c ****     case (XMC_USBD_EVENT_REMOTE_WAKEUP):
 2916              		.loc 1 984 4 is_stmt 1 view .LVU984
 2917 0036 F1E7     		b	.L213
 2918              	.L219:
 986:/opt/XMClib/XMC_Peripheral_Library_v2.1.16/XMCLib/src/xmc_usbd.c **** 	  break;
 2919              		.loc 1 986 4 view .LVU985
 986:/opt/XMClib/XMC_Peripheral_Library_v2.1.16/XMCLib/src/xmc_usbd.c **** 	  break;
 2920              		.loc 1 986 21 is_stmt 0 view .LVU986
 2921 0038 4FF00043 		mov	r3, #-2147483648
 987:/opt/XMClib/XMC_Peripheral_Library_v2.1.16/XMCLib/src/xmc_usbd.c ****     case (XMC_USBD_EVENT_SOF):
 2922              		.loc 1 987 4 is_stmt 1 view .LVU987
 2923 003c EEE7     		b	.L213
 2924              	.L218:
 989:/opt/XMClib/XMC_Peripheral_Library_v2.1.16/XMCLib/src/xmc_usbd.c **** 	  break;
 2925              		.loc 1 989 4 view .LVU988
 989:/opt/XMClib/XMC_Peripheral_Library_v2.1.16/XMCLib/src/xmc_usbd.c **** 	  break;
 2926              		.loc 1 989 20 is_stmt 0 view .LVU989
 2927 003e 0823     		movs	r3, #8
 990:/opt/XMClib/XMC_Peripheral_Library_v2.1.16/XMCLib/src/xmc_usbd.c ****     case (XMC_USBD_EVENT_EARLYSUSPEND):
 2928              		.loc 1 990 4 is_stmt 1 view .LVU990
 2929 0040 ECE7     		b	.L213
 2930              	.L217:
 992:/opt/XMClib/XMC_Peripheral_Library_v2.1.16/XMCLib/src/xmc_usbd.c **** 	  break;
 2931              		.loc 1 992 4 view .LVU991
 992:/opt/XMClib/XMC_Peripheral_Library_v2.1.16/XMCLib/src/xmc_usbd.c **** 	  break;
 2932              		.loc 1 992 24 is_stmt 0 view .LVU992
 2933 0042 4FF48063 		mov	r3, #1024
 993:/opt/XMClib/XMC_Peripheral_Library_v2.1.16/XMCLib/src/xmc_usbd.c ****     case (XMC_USBD_EVENT_ENUMDONE):
 2934              		.loc 1 993 4 is_stmt 1 view .LVU993
 2935 0046 E9E7     		b	.L213
 2936              	.L216:
 995:/opt/XMClib/XMC_Peripheral_Library_v2.1.16/XMCLib/src/xmc_usbd.c **** 	  break;
 2937              		.loc 1 995 4 view .LVU994
 995:/opt/XMClib/XMC_Peripheral_Library_v2.1.16/XMCLib/src/xmc_usbd.c **** 	  break;
 2938              		.loc 1 995 21 is_stmt 0 view .LVU995
 2939 0048 4FF40053 		mov	r3, #8192
 996:/opt/XMClib/XMC_Peripheral_Library_v2.1.16/XMCLib/src/xmc_usbd.c ****     case (XMC_USBD_EVENT_OUTEP):
 2940              		.loc 1 996 4 is_stmt 1 view .LVU996
 2941 004c E6E7     		b	.L213
 2942              	.L214:
 998:/opt/XMClib/XMC_Peripheral_Library_v2.1.16/XMCLib/src/xmc_usbd.c **** 	  break;
 2943              		.loc 1 998 4 view .LVU997
 998:/opt/XMClib/XMC_Peripheral_Library_v2.1.16/XMCLib/src/xmc_usbd.c **** 	  break;
 2944              		.loc 1 998 22 is_stmt 0 view .LVU998
 2945 004e 4FF40023 		mov	r3, #524288
 999:/opt/XMClib/XMC_Peripheral_Library_v2.1.16/XMCLib/src/xmc_usbd.c **** 		default:
 2946              		.loc 1 999 4 is_stmt 1 view .LVU999
 2947 0052 E3E7     		b	.L213
 2948              	.L226:
 2949              		.align	2
 2950              	.L225:
 2951 0054 00000000 		.word	.LANCHOR0
 2952              		.cfi_endproc
 2953              	.LFE180:
 2955              		.section	.text.XMC_USBD_ClearEventINEP,"ax",%progbits
 2956              		.align	1
 2957              		.global	XMC_USBD_ClearEventINEP
 2958              		.syntax unified
 2959              		.thumb
 2960              		.thumb_func
 2962              	XMC_USBD_ClearEventINEP:
 2963              	.LVL224:
 2964              	.LFB182:
1020:/opt/XMClib/XMC_Peripheral_Library_v2.1.16/XMCLib/src/xmc_usbd.c ****   diepint_data_t clear;
 2965              		.loc 1 1020 1 view -0
 2966              		.cfi_startproc
 2967              		@ args = 0, pretend = 0, frame = 0
 2968              		@ frame_needed = 0, uses_anonymous_args = 0
 2969              		@ link register save eliminated.
1021:/opt/XMClib/XMC_Peripheral_Library_v2.1.16/XMCLib/src/xmc_usbd.c ****   clear.d32 = event;
 2970              		.loc 1 1021 3 view .LVU1001
1022:/opt/XMClib/XMC_Peripheral_Library_v2.1.16/XMCLib/src/xmc_usbd.c ****   xmc_device.endpoint_in_register[ep_num]->diepint = clear.d32;
 2971              		.loc 1 1022 3 view .LVU1002
1023:/opt/XMClib/XMC_Peripheral_Library_v2.1.16/XMCLib/src/xmc_usbd.c **** }
 2972              		.loc 1 1023 3 view .LVU1003
1023:/opt/XMClib/XMC_Peripheral_Library_v2.1.16/XMCLib/src/xmc_usbd.c **** }
 2973              		.loc 1 1023 34 is_stmt 0 view .LVU1004
 2974 0000 6A31     		adds	r1, r1, #106
 2975              	.LVL225:
1023:/opt/XMClib/XMC_Peripheral_Library_v2.1.16/XMCLib/src/xmc_usbd.c **** }
 2976              		.loc 1 1023 34 view .LVU1005
 2977 0002 024B     		ldr	r3, .L228
 2978 0004 53F82130 		ldr	r3, [r3, r1, lsl #2]
1023:/opt/XMClib/XMC_Peripheral_Library_v2.1.16/XMCLib/src/xmc_usbd.c **** }
 2979              		.loc 1 1023 52 view .LVU1006
 2980 0008 9860     		str	r0, [r3, #8]
 2981              	.LVL226:
1024:/opt/XMClib/XMC_Peripheral_Library_v2.1.16/XMCLib/src/xmc_usbd.c **** 
 2982              		.loc 1 1024 1 view .LVU1007
 2983 000a 7047     		bx	lr
 2984              	.L229:
 2985              		.align	2
 2986              	.L228:
 2987 000c 00000000 		.word	.LANCHOR0
 2988              		.cfi_endproc
 2989              	.LFE182:
 2991              		.section	.text.XMC_USBD_ClearEventOUTEP,"ax",%progbits
 2992              		.align	1
 2993              		.global	XMC_USBD_ClearEventOUTEP
 2994              		.syntax unified
 2995              		.thumb
 2996              		.thumb_func
 2998              	XMC_USBD_ClearEventOUTEP:
 2999              	.LVL227:
 3000              	.LFB183:
1030:/opt/XMClib/XMC_Peripheral_Library_v2.1.16/XMCLib/src/xmc_usbd.c ****   doepint_data_t clear;
 3001              		.loc 1 1030 1 is_stmt 1 view -0
 3002              		.cfi_startproc
 3003              		@ args = 0, pretend = 0, frame = 0
 3004              		@ frame_needed = 0, uses_anonymous_args = 0
 3005              		@ link register save eliminated.
1031:/opt/XMClib/XMC_Peripheral_Library_v2.1.16/XMCLib/src/xmc_usbd.c ****   clear.d32 = event;
 3006              		.loc 1 1031 3 view .LVU1009
1032:/opt/XMClib/XMC_Peripheral_Library_v2.1.16/XMCLib/src/xmc_usbd.c ****   xmc_device.endpoint_out_register[ep_num]->doepint = clear.d32;
 3007              		.loc 1 1032 3 view .LVU1010
1033:/opt/XMClib/XMC_Peripheral_Library_v2.1.16/XMCLib/src/xmc_usbd.c **** }
 3008              		.loc 1 1033 3 view .LVU1011
1033:/opt/XMClib/XMC_Peripheral_Library_v2.1.16/XMCLib/src/xmc_usbd.c **** }
 3009              		.loc 1 1033 35 is_stmt 0 view .LVU1012
 3010 0000 034B     		ldr	r3, .L231
 3011 0002 03EB8103 		add	r3, r3, r1, lsl #2
 3012 0006 D3F8C431 		ldr	r3, [r3, #452]
1033:/opt/XMClib/XMC_Peripheral_Library_v2.1.16/XMCLib/src/xmc_usbd.c **** }
 3013              		.loc 1 1033 53 view .LVU1013
 3014 000a 9860     		str	r0, [r3, #8]
 3015              	.LVL228:
1034:/opt/XMClib/XMC_Peripheral_Library_v2.1.16/XMCLib/src/xmc_usbd.c **** 
 3016              		.loc 1 1034 1 view .LVU1014
 3017 000c 7047     		bx	lr
 3018              	.L232:
 3019 000e 00BF     		.align	2
 3020              	.L231:
 3021 0010 00000000 		.word	.LANCHOR0
 3022              		.cfi_endproc
 3023              	.LFE183:
 3025              		.section	.text.XMC_USBD_EnableEventOUTEP,"ax",%progbits
 3026              		.align	1
 3027              		.global	XMC_USBD_EnableEventOUTEP
 3028              		.syntax unified
 3029              		.thumb
 3030              		.thumb_func
 3032              	XMC_USBD_EnableEventOUTEP:
 3033              	.LVL229:
 3034              	.LFB184:
1040:/opt/XMClib/XMC_Peripheral_Library_v2.1.16/XMCLib/src/xmc_usbd.c **** 	doepint_data_t doepint;
 3035              		.loc 1 1040 1 is_stmt 1 view -0
 3036              		.cfi_startproc
 3037              		@ args = 0, pretend = 0, frame = 0
 3038              		@ frame_needed = 0, uses_anonymous_args = 0
 3039              		@ link register save eliminated.
1041:/opt/XMClib/XMC_Peripheral_Library_v2.1.16/XMCLib/src/xmc_usbd.c **** 	doepint.d32 = event;
 3040              		.loc 1 1041 2 view .LVU1016
1042:/opt/XMClib/XMC_Peripheral_Library_v2.1.16/XMCLib/src/xmc_usbd.c **** 	xmc_device.device_register->doepmsk |= doepint.d32;
 3041              		.loc 1 1042 2 view .LVU1017
1043:/opt/XMClib/XMC_Peripheral_Library_v2.1.16/XMCLib/src/xmc_usbd.c **** }
 3042              		.loc 1 1043 2 view .LVU1018
1043:/opt/XMClib/XMC_Peripheral_Library_v2.1.16/XMCLib/src/xmc_usbd.c **** }
 3043              		.loc 1 1043 12 is_stmt 0 view .LVU1019
 3044 0000 034B     		ldr	r3, .L234
 3045 0002 D3F8A421 		ldr	r2, [r3, #420]
1043:/opt/XMClib/XMC_Peripheral_Library_v2.1.16/XMCLib/src/xmc_usbd.c **** }
 3046              		.loc 1 1043 28 view .LVU1020
 3047 0006 5369     		ldr	r3, [r2, #20]
1043:/opt/XMClib/XMC_Peripheral_Library_v2.1.16/XMCLib/src/xmc_usbd.c **** }
 3048              		.loc 1 1043 38 view .LVU1021
 3049 0008 0343     		orrs	r3, r3, r0
 3050 000a 5361     		str	r3, [r2, #20]
 3051              	.LVL230:
1044:/opt/XMClib/XMC_Peripheral_Library_v2.1.16/XMCLib/src/xmc_usbd.c **** 
 3052              		.loc 1 1044 1 view .LVU1022
 3053 000c 7047     		bx	lr
 3054              	.L235:
 3055 000e 00BF     		.align	2
 3056              	.L234:
 3057 0010 00000000 		.word	.LANCHOR0
 3058              		.cfi_endproc
 3059              	.LFE184:
 3061              		.section	.text.XMC_USBD_EnableEventINEP,"ax",%progbits
 3062              		.align	1
 3063              		.global	XMC_USBD_EnableEventINEP
 3064              		.syntax unified
 3065              		.thumb
 3066              		.thumb_func
 3068              	XMC_USBD_EnableEventINEP:
 3069              	.LVL231:
 3070              	.LFB185:
1050:/opt/XMClib/XMC_Peripheral_Library_v2.1.16/XMCLib/src/xmc_usbd.c **** 	diepint_data_t diepint;
 3071              		.loc 1 1050 1 is_stmt 1 view -0
 3072              		.cfi_startproc
 3073              		@ args = 0, pretend = 0, frame = 0
 3074              		@ frame_needed = 0, uses_anonymous_args = 0
 3075              		@ link register save eliminated.
1051:/opt/XMClib/XMC_Peripheral_Library_v2.1.16/XMCLib/src/xmc_usbd.c **** 	diepint.d32 = event;
 3076              		.loc 1 1051 2 view .LVU1024
1052:/opt/XMClib/XMC_Peripheral_Library_v2.1.16/XMCLib/src/xmc_usbd.c **** 	xmc_device.device_register->diepmsk |= diepint.d32;
 3077              		.loc 1 1052 2 view .LVU1025
1053:/opt/XMClib/XMC_Peripheral_Library_v2.1.16/XMCLib/src/xmc_usbd.c **** }
 3078              		.loc 1 1053 2 view .LVU1026
1053:/opt/XMClib/XMC_Peripheral_Library_v2.1.16/XMCLib/src/xmc_usbd.c **** }
 3079              		.loc 1 1053 12 is_stmt 0 view .LVU1027
 3080 0000 034B     		ldr	r3, .L237
 3081 0002 D3F8A421 		ldr	r2, [r3, #420]
1053:/opt/XMClib/XMC_Peripheral_Library_v2.1.16/XMCLib/src/xmc_usbd.c **** }
 3082              		.loc 1 1053 28 view .LVU1028
 3083 0006 1369     		ldr	r3, [r2, #16]
1053:/opt/XMClib/XMC_Peripheral_Library_v2.1.16/XMCLib/src/xmc_usbd.c **** }
 3084              		.loc 1 1053 38 view .LVU1029
 3085 0008 0343     		orrs	r3, r3, r0
 3086 000a 1361     		str	r3, [r2, #16]
 3087              	.LVL232:
1054:/opt/XMClib/XMC_Peripheral_Library_v2.1.16/XMCLib/src/xmc_usbd.c **** 
 3088              		.loc 1 1054 1 view .LVU1030
 3089 000c 7047     		bx	lr
 3090              	.L238:
 3091 000e 00BF     		.align	2
 3092              	.L237:
 3093 0010 00000000 		.word	.LANCHOR0
 3094              		.cfi_endproc
 3095              	.LFE185:
 3097              		.section	.text.XMC_USBD_IRQHandler,"ax",%progbits
 3098              		.align	1
 3099              		.global	XMC_USBD_IRQHandler
 3100              		.syntax unified
 3101              		.thumb
 3102              		.thumb_func
 3104              	XMC_USBD_IRQHandler:
 3105              	.LVL233:
 3106              	.LFB177:
 867:/opt/XMClib/XMC_Peripheral_Library_v2.1.16/XMCLib/src/xmc_usbd.c ****   gintmsk_data_t gintmsk;
 3107              		.loc 1 867 1 is_stmt 1 view -0
 3108              		.cfi_startproc
 3109              		@ args = 0, pretend = 0, frame = 16
 3110              		@ frame_needed = 0, uses_anonymous_args = 0
 867:/opt/XMClib/XMC_Peripheral_Library_v2.1.16/XMCLib/src/xmc_usbd.c ****   gintmsk_data_t gintmsk;
 3111              		.loc 1 867 1 is_stmt 0 view .LVU1032
 3112 0000 2DE9F04F 		push	{r4, r5, r6, r7, r8, r9, r10, fp, lr}
 3113              	.LCFI28:
 3114              		.cfi_def_cfa_offset 36
 3115              		.cfi_offset 4, -36
 3116              		.cfi_offset 5, -32
 3117              		.cfi_offset 6, -28
 3118              		.cfi_offset 7, -24
 3119              		.cfi_offset 8, -20
 3120              		.cfi_offset 9, -16
 3121              		.cfi_offset 10, -12
 3122              		.cfi_offset 11, -8
 3123              		.cfi_offset 14, -4
 3124 0004 85B0     		sub	sp, sp, #20
 3125              	.LCFI29:
 3126              		.cfi_def_cfa_offset 56
 3127 0006 8346     		mov	fp, r0
 868:/opt/XMClib/XMC_Peripheral_Library_v2.1.16/XMCLib/src/xmc_usbd.c ****   gintsts_data_t data;
 3128              		.loc 1 868 3 is_stmt 1 view .LVU1033
 869:/opt/XMClib/XMC_Peripheral_Library_v2.1.16/XMCLib/src/xmc_usbd.c **** 	
 3129              		.loc 1 869 3 view .LVU1034
 871:/opt/XMClib/XMC_Peripheral_Library_v2.1.16/XMCLib/src/xmc_usbd.c ****   data.d32 = xmc_device.global_register->gintsts & gintmsk.d32;
 3130              		.loc 1 871 3 view .LVU1035
 871:/opt/XMClib/XMC_Peripheral_Library_v2.1.16/XMCLib/src/xmc_usbd.c ****   data.d32 = xmc_device.global_register->gintsts & gintmsk.d32;
 3131              		.loc 1 871 27 is_stmt 0 view .LVU1036
 3132 0008 944B     		ldr	r3, .L300
 3133 000a D3F8A031 		ldr	r3, [r3, #416]
 871:/opt/XMClib/XMC_Peripheral_Library_v2.1.16/XMCLib/src/xmc_usbd.c ****   data.d32 = xmc_device.global_register->gintsts & gintmsk.d32;
 3134              		.loc 1 871 43 view .LVU1037
 3135 000e 9D69     		ldr	r5, [r3, #24]
 3136              	.LVL234:
 872:/opt/XMClib/XMC_Peripheral_Library_v2.1.16/XMCLib/src/xmc_usbd.c **** 	
 3137              		.loc 1 872 3 is_stmt 1 view .LVU1038
 872:/opt/XMClib/XMC_Peripheral_Library_v2.1.16/XMCLib/src/xmc_usbd.c **** 	
 3138              		.loc 1 872 40 is_stmt 0 view .LVU1039
 3139 0010 5C69     		ldr	r4, [r3, #20]
 872:/opt/XMClib/XMC_Peripheral_Library_v2.1.16/XMCLib/src/xmc_usbd.c **** 	
 3140              		.loc 1 872 50 view .LVU1040
 3141 0012 2C40     		ands	r4, r4, r5
 3142              	.LVL235:
 874:/opt/XMClib/XMC_Peripheral_Library_v2.1.16/XMCLib/src/xmc_usbd.c ****   {
 3143              		.loc 1 874 3 is_stmt 1 view .LVU1041
 874:/opt/XMClib/XMC_Peripheral_Library_v2.1.16/XMCLib/src/xmc_usbd.c ****   {
 3144              		.loc 1 874 7 is_stmt 0 view .LVU1042
 3145 0014 5FFA84FA 		uxtb	r10, r4
 874:/opt/XMClib/XMC_Peripheral_Library_v2.1.16/XMCLib/src/xmc_usbd.c ****   {
 3146              		.loc 1 874 6 view .LVU1043
 3147 0018 14F0080F 		tst	r4, #8
 3148 001c 07D0     		beq	.L240
 876:/opt/XMClib/XMC_Peripheral_Library_v2.1.16/XMCLib/src/xmc_usbd.c ****     XMC_USBD_ClearEvent(XMC_USBD_EVENT_SOF);
 3149              		.loc 1 876 5 is_stmt 1 view .LVU1044
 876:/opt/XMClib/XMC_Peripheral_Library_v2.1.16/XMCLib/src/xmc_usbd.c ****     XMC_USBD_ClearEvent(XMC_USBD_EVENT_SOF);
 3150              		.loc 1 876 15 is_stmt 0 view .LVU1045
 3151 001e 8F4B     		ldr	r3, .L300
 876:/opt/XMClib/XMC_Peripheral_Library_v2.1.16/XMCLib/src/xmc_usbd.c ****     XMC_USBD_ClearEvent(XMC_USBD_EVENT_SOF);
 3152              		.loc 1 876 5 view .LVU1046
 3153 0020 D3F80032 		ldr	r3, [r3, #512]
 3154 0024 0920     		movs	r0, #9
 3155              	.LVL236:
 876:/opt/XMClib/XMC_Peripheral_Library_v2.1.16/XMCLib/src/xmc_usbd.c ****     XMC_USBD_ClearEvent(XMC_USBD_EVENT_SOF);
 3156              		.loc 1 876 5 view .LVU1047
 3157 0026 9847     		blx	r3
 3158              	.LVL237:
 877:/opt/XMClib/XMC_Peripheral_Library_v2.1.16/XMCLib/src/xmc_usbd.c ****   }
 3159              		.loc 1 877 5 is_stmt 1 view .LVU1048
 3160 0028 0920     		movs	r0, #9
 3161 002a FFF7FEFF 		bl	XMC_USBD_ClearEvent
 3162              	.LVL238:
 3163              	.L240:
 879:/opt/XMClib/XMC_Peripheral_Library_v2.1.16/XMCLib/src/xmc_usbd.c ****   {
 3164              		.loc 1 879 3 view .LVU1049
 879:/opt/XMClib/XMC_Peripheral_Library_v2.1.16/XMCLib/src/xmc_usbd.c ****   {
 3165              		.loc 1 879 5 is_stmt 0 view .LVU1050
 3166 002e 9BF80D30 		ldrb	r3, [fp, #13]	@ zero_extendqisi2
 3167 0032 012B     		cmp	r3, #1
 3168 0034 3BD0     		beq	.L286
 3169              	.LVL239:
 3170              	.L241:
 891:/opt/XMClib/XMC_Peripheral_Library_v2.1.16/XMCLib/src/xmc_usbd.c ****   {
 3171              		.loc 1 891 3 is_stmt 1 view .LVU1051
 891:/opt/XMClib/XMC_Peripheral_Library_v2.1.16/XMCLib/src/xmc_usbd.c ****   {
 3172              		.loc 1 891 7 is_stmt 0 view .LVU1052
 3173 0036 C4F30725 		ubfx	r5, r4, #8, #8
 3174              	.LVL240:
 891:/opt/XMClib/XMC_Peripheral_Library_v2.1.16/XMCLib/src/xmc_usbd.c ****   {
 3175              		.loc 1 891 6 view .LVU1053
 3176 003a 14F4806F 		tst	r4, #1024
 3177 003e 5CD1     		bne	.L287
 3178              	.L245:
 895:/opt/XMClib/XMC_Peripheral_Library_v2.1.16/XMCLib/src/xmc_usbd.c ****   {
 3179              		.loc 1 895 3 is_stmt 1 view .LVU1054
 895:/opt/XMClib/XMC_Peripheral_Library_v2.1.16/XMCLib/src/xmc_usbd.c ****   {
 3180              		.loc 1 895 6 is_stmt 0 view .LVU1055
 3181 0040 15F0080F 		tst	r5, #8
 3182 0044 07D0     		beq	.L246
 897:/opt/XMClib/XMC_Peripheral_Library_v2.1.16/XMCLib/src/xmc_usbd.c ****     XMC_USBD_ClearEvent(XMC_USBD_EVENT_SUSPEND);
 3183              		.loc 1 897 5 is_stmt 1 view .LVU1056
 897:/opt/XMClib/XMC_Peripheral_Library_v2.1.16/XMCLib/src/xmc_usbd.c ****     XMC_USBD_ClearEvent(XMC_USBD_EVENT_SUSPEND);
 3184              		.loc 1 897 15 is_stmt 0 view .LVU1057
 3185 0046 854B     		ldr	r3, .L300
 897:/opt/XMClib/XMC_Peripheral_Library_v2.1.16/XMCLib/src/xmc_usbd.c ****     XMC_USBD_ClearEvent(XMC_USBD_EVENT_SUSPEND);
 3186              		.loc 1 897 5 view .LVU1058
 3187 0048 D3F80032 		ldr	r3, [r3, #512]
 3188 004c 0620     		movs	r0, #6
 3189              	.LVL241:
 897:/opt/XMClib/XMC_Peripheral_Library_v2.1.16/XMCLib/src/xmc_usbd.c ****     XMC_USBD_ClearEvent(XMC_USBD_EVENT_SUSPEND);
 3190              		.loc 1 897 5 view .LVU1059
 3191 004e 9847     		blx	r3
 3192              	.LVL242:
 898:/opt/XMClib/XMC_Peripheral_Library_v2.1.16/XMCLib/src/xmc_usbd.c ****   }
 3193              		.loc 1 898 5 is_stmt 1 view .LVU1060
 3194 0050 0620     		movs	r0, #6
 3195 0052 FFF7FEFF 		bl	XMC_USBD_ClearEvent
 3196              	.LVL243:
 3197              	.L246:
 900:/opt/XMClib/XMC_Peripheral_Library_v2.1.16/XMCLib/src/xmc_usbd.c ****   {
 3198              		.loc 1 900 3 view .LVU1061
 900:/opt/XMClib/XMC_Peripheral_Library_v2.1.16/XMCLib/src/xmc_usbd.c ****   {
 3199              		.loc 1 900 7 is_stmt 0 view .LVU1062
 3200 0056 260E     		lsrs	r6, r4, #24
 900:/opt/XMClib/XMC_Peripheral_Library_v2.1.16/XMCLib/src/xmc_usbd.c ****   {
 3201              		.loc 1 900 6 view .LVU1063
 3202 0058 002C     		cmp	r4, #0
 3203 005a 52DB     		blt	.L288
 3204              	.L247:
 905:/opt/XMClib/XMC_Peripheral_Library_v2.1.16/XMCLib/src/xmc_usbd.c ****   {
 3205              		.loc 1 905 3 is_stmt 1 view .LVU1064
 905:/opt/XMClib/XMC_Peripheral_Library_v2.1.16/XMCLib/src/xmc_usbd.c ****   {
 3206              		.loc 1 905 6 is_stmt 0 view .LVU1065
 3207 005c 16F0400F 		tst	r6, #64
 3208 0060 0DD0     		beq	.L248
 907:/opt/XMClib/XMC_Peripheral_Library_v2.1.16/XMCLib/src/xmc_usbd.c ****     xmc_device.DeviceEvent_cb(XMC_USBD_EVENT_POWER_ON);
 3209              		.loc 1 907 5 is_stmt 1 view .LVU1066
 907:/opt/XMClib/XMC_Peripheral_Library_v2.1.16/XMCLib/src/xmc_usbd.c ****     xmc_device.DeviceEvent_cb(XMC_USBD_EVENT_POWER_ON);
 3210              		.loc 1 907 26 is_stmt 0 view .LVU1067
 3211 0062 7E4B     		ldr	r3, .L300
 3212 0064 93F8FE21 		ldrb	r2, [r3, #510]	@ zero_extendqisi2
 3213 0068 42F00402 		orr	r2, r2, #4
 3214 006c 83F8FE21 		strb	r2, [r3, #510]
 908:/opt/XMClib/XMC_Peripheral_Library_v2.1.16/XMCLib/src/xmc_usbd.c ****     XMC_USBD_ClearEvent(XMC_USBD_EVENT_POWER_ON);
 3215              		.loc 1 908 5 is_stmt 1 view .LVU1068
 3216 0070 D3F80032 		ldr	r3, [r3, #512]
 3217 0074 0020     		movs	r0, #0
 3218              	.LVL244:
 908:/opt/XMClib/XMC_Peripheral_Library_v2.1.16/XMCLib/src/xmc_usbd.c ****     XMC_USBD_ClearEvent(XMC_USBD_EVENT_POWER_ON);
 3219              		.loc 1 908 5 is_stmt 0 view .LVU1069
 3220 0076 9847     		blx	r3
 3221              	.LVL245:
 909:/opt/XMClib/XMC_Peripheral_Library_v2.1.16/XMCLib/src/xmc_usbd.c ****   }
 3222              		.loc 1 909 5 is_stmt 1 view .LVU1070
 3223 0078 0020     		movs	r0, #0
 3224 007a FFF7FEFF 		bl	XMC_USBD_ClearEvent
 3225              	.LVL246:
 3226              	.L248:
 911:/opt/XMClib/XMC_Peripheral_Library_v2.1.16/XMCLib/src/xmc_usbd.c ****   {
 3227              		.loc 1 911 3 view .LVU1071
 911:/opt/XMClib/XMC_Peripheral_Library_v2.1.16/XMCLib/src/xmc_usbd.c ****   {
 3228              		.loc 1 911 6 is_stmt 0 view .LVU1072
 3229 007e 15F0100F 		tst	r5, #16
 3230 0082 47D1     		bne	.L289
 3231              	.L249:
 915:/opt/XMClib/XMC_Peripheral_Library_v2.1.16/XMCLib/src/xmc_usbd.c ****   {
 3232              		.loc 1 915 3 is_stmt 1 view .LVU1073
 915:/opt/XMClib/XMC_Peripheral_Library_v2.1.16/XMCLib/src/xmc_usbd.c ****   {
 3233              		.loc 1 915 6 is_stmt 0 view .LVU1074
 3234 0084 15F0200F 		tst	r5, #32
 3235 0088 40F0B480 		bne	.L290
 3236              	.L252:
 919:/opt/XMClib/XMC_Peripheral_Library_v2.1.16/XMCLib/src/xmc_usbd.c ****   {
 3237              		.loc 1 919 3 is_stmt 1 view .LVU1075
 919:/opt/XMClib/XMC_Peripheral_Library_v2.1.16/XMCLib/src/xmc_usbd.c ****   {
 3238              		.loc 1 919 7 is_stmt 0 view .LVU1076
 3239 008c C4F30745 		ubfx	r5, r4, #16, #8
 919:/opt/XMClib/XMC_Peripheral_Library_v2.1.16/XMCLib/src/xmc_usbd.c ****   {
 3240              		.loc 1 919 6 view .LVU1077
 3241 0090 14F4802F 		tst	r4, #262144
 3242 0094 40F0CA80 		bne	.L291
 3243              	.LVL247:
 3244              	.L253:
 923:/opt/XMClib/XMC_Peripheral_Library_v2.1.16/XMCLib/src/xmc_usbd.c ****   {
 3245              		.loc 1 923 3 is_stmt 1 view .LVU1078
 923:/opt/XMClib/XMC_Peripheral_Library_v2.1.16/XMCLib/src/xmc_usbd.c ****   {
 3246              		.loc 1 923 6 is_stmt 0 view .LVU1079
 3247 0098 15F0080F 		tst	r5, #8
 3248 009c 40F08E81 		bne	.L292
 3249              	.L268:
 927:/opt/XMClib/XMC_Peripheral_Library_v2.1.16/XMCLib/src/xmc_usbd.c ****   {
 3250              		.loc 1 927 2 is_stmt 1 view .LVU1080
 927:/opt/XMClib/XMC_Peripheral_Library_v2.1.16/XMCLib/src/xmc_usbd.c ****   {
 3251              		.loc 1 927 5 is_stmt 0 view .LVU1081
 3252 00a0 1AF0040F 		tst	r10, #4
 3253 00a4 40F02282 		bne	.L293
 3254              	.LVL248:
 3255              	.L239:
 932:/opt/XMClib/XMC_Peripheral_Library_v2.1.16/XMCLib/src/xmc_usbd.c **** 
 3256              		.loc 1 932 1 view .LVU1082
 3257 00a8 05B0     		add	sp, sp, #20
 3258              	.LCFI30:
 3259              		.cfi_remember_state
 3260              		.cfi_def_cfa_offset 36
 3261              		@ sp needed
 3262 00aa BDE8F08F 		pop	{r4, r5, r6, r7, r8, r9, r10, fp, pc}
 3263              	.LVL249:
 3264              	.L286:
 3265              	.LCFI31:
 3266              		.cfi_restore_state
 881:/opt/XMClib/XMC_Peripheral_Library_v2.1.16/XMCLib/src/xmc_usbd.c ****     {
 3267              		.loc 1 881 5 is_stmt 1 view .LVU1083
 881:/opt/XMClib/XMC_Peripheral_Library_v2.1.16/XMCLib/src/xmc_usbd.c ****     {
 3268              		.loc 1 881 8 is_stmt 0 view .LVU1084
 3269 00ae 1AF0100F 		tst	r10, #16
 3270 00b2 C0D0     		beq	.L241
 884:/opt/XMClib/XMC_Peripheral_Library_v2.1.16/XMCLib/src/xmc_usbd.c ****       xmc_device.global_register->gintmsk = gintmsk.d32;
 3271              		.loc 1 884 7 is_stmt 1 view .LVU1085
 884:/opt/XMClib/XMC_Peripheral_Library_v2.1.16/XMCLib/src/xmc_usbd.c ****       xmc_device.global_register->gintmsk = gintmsk.d32;
 3272              		.loc 1 884 27 is_stmt 0 view .LVU1086
 3273 00b4 25F01005 		bic	r5, r5, #16
 3274              	.LVL250:
 885:/opt/XMClib/XMC_Peripheral_Library_v2.1.16/XMCLib/src/xmc_usbd.c ****       XMC_USBD_lHandleRxFLvl(); /* handle the interrupt */
 3275              		.loc 1 885 7 is_stmt 1 view .LVU1087
 885:/opt/XMClib/XMC_Peripheral_Library_v2.1.16/XMCLib/src/xmc_usbd.c ****       XMC_USBD_lHandleRxFLvl(); /* handle the interrupt */
 3276              		.loc 1 885 17 is_stmt 0 view .LVU1088
 3277 00b8 684B     		ldr	r3, .L300
 3278 00ba D3F8A021 		ldr	r2, [r3, #416]
 3279              	.LVL251:
 885:/opt/XMClib/XMC_Peripheral_Library_v2.1.16/XMCLib/src/xmc_usbd.c ****       XMC_USBD_lHandleRxFLvl(); /* handle the interrupt */
 3280              		.loc 1 885 43 view .LVU1089
 3281 00be 9561     		str	r5, [r2, #24]
 886:/opt/XMClib/XMC_Peripheral_Library_v2.1.16/XMCLib/src/xmc_usbd.c ****       gintmsk.b.rxstsqlvl = 1U;
 3282              		.loc 1 886 7 is_stmt 1 view .LVU1090
 3283              	.LBB48:
 3284              	.LBI48:
 835:/opt/XMClib/XMC_Peripheral_Library_v2.1.16/XMCLib/src/xmc_usbd.c **** {
 3285              		.loc 1 835 13 view .LVU1091
 3286              	.LBB49:
 837:/opt/XMClib/XMC_Peripheral_Library_v2.1.16/XMCLib/src/xmc_usbd.c ****   data.d32 = xmc_device.global_register->grxstsp;
 3287              		.loc 1 837 3 view .LVU1092
 838:/opt/XMClib/XMC_Peripheral_Library_v2.1.16/XMCLib/src/xmc_usbd.c **** 
 3288              		.loc 1 838 3 view .LVU1093
 838:/opt/XMClib/XMC_Peripheral_Library_v2.1.16/XMCLib/src/xmc_usbd.c **** 
 3289              		.loc 1 838 24 is_stmt 0 view .LVU1094
 3290 00c0 D3F8A031 		ldr	r3, [r3, #416]
 838:/opt/XMClib/XMC_Peripheral_Library_v2.1.16/XMCLib/src/xmc_usbd.c **** 
 3291              		.loc 1 838 40 view .LVU1095
 3292 00c4 186A     		ldr	r0, [r3, #32]
 3293              	.LVL252:
 840:/opt/XMClib/XMC_Peripheral_Library_v2.1.16/XMCLib/src/xmc_usbd.c **** 	{
 3294              		.loc 1 840 3 is_stmt 1 view .LVU1096
 840:/opt/XMClib/XMC_Peripheral_Library_v2.1.16/XMCLib/src/xmc_usbd.c **** 	{
 3295              		.loc 1 840 17 is_stmt 0 view .LVU1097
 3296 00c6 C0F34343 		ubfx	r3, r0, #17, #4
 840:/opt/XMClib/XMC_Peripheral_Library_v2.1.16/XMCLib/src/xmc_usbd.c **** 	{
 3297              		.loc 1 840 3 view .LVU1098
 3298 00ca 022B     		cmp	r3, #2
 3299 00cc 08D0     		beq	.L242
 3300 00ce 062B     		cmp	r3, #6
 3301 00d0 0CD1     		bne	.L244
 850:/opt/XMClib/XMC_Peripheral_Library_v2.1.16/XMCLib/src/xmc_usbd.c ****       break;
 3302              		.loc 1 850 7 is_stmt 1 view .LVU1099
 3303 00d2 C0F30A11 		ubfx	r1, r0, #4, #11
 3304 00d6 00F00F00 		and	r0, r0, #15
 3305              	.LVL253:
 850:/opt/XMClib/XMC_Peripheral_Library_v2.1.16/XMCLib/src/xmc_usbd.c ****       break;
 3306              		.loc 1 850 7 is_stmt 0 view .LVU1100
 3307 00da FFF7FEFF 		bl	XMC_USBD_lReadFifo
 3308              	.LVL254:
 851:/opt/XMClib/XMC_Peripheral_Library_v2.1.16/XMCLib/src/xmc_usbd.c ****     case XMC_USBD_GRXSTS_PKTSTS_SETUPCMPL:
 3309              		.loc 1 851 7 is_stmt 1 view .LVU1101
 3310 00de 05E0     		b	.L244
 3311              	.LVL255:
 3312              	.L242:
 847:/opt/XMClib/XMC_Peripheral_Library_v2.1.16/XMCLib/src/xmc_usbd.c ****       break;
 3313              		.loc 1 847 7 view .LVU1102
 3314 00e0 C0F30A11 		ubfx	r1, r0, #4, #11
 3315 00e4 00F00F00 		and	r0, r0, #15
 3316              	.LVL256:
 847:/opt/XMClib/XMC_Peripheral_Library_v2.1.16/XMCLib/src/xmc_usbd.c ****       break;
 3317              		.loc 1 847 7 is_stmt 0 view .LVU1103
 3318 00e8 FFF7FEFF 		bl	XMC_USBD_lReadFifo
 3319              	.LVL257:
 848:/opt/XMClib/XMC_Peripheral_Library_v2.1.16/XMCLib/src/xmc_usbd.c ****     case XMC_USBD_GRXSTS_PKTSTS_SETUP:
 3320              		.loc 1 848 7 is_stmt 1 view .LVU1104
 3321              	.L244:
 848:/opt/XMClib/XMC_Peripheral_Library_v2.1.16/XMCLib/src/xmc_usbd.c ****     case XMC_USBD_GRXSTS_PKTSTS_SETUP:
 3322              		.loc 1 848 7 is_stmt 0 view .LVU1105
 3323              	.LBE49:
 3324              	.LBE48:
 887:/opt/XMClib/XMC_Peripheral_Library_v2.1.16/XMCLib/src/xmc_usbd.c ****       xmc_device.global_register->gintmsk = gintmsk.d32;
 3325              		.loc 1 887 7 is_stmt 1 view .LVU1106
 887:/opt/XMClib/XMC_Peripheral_Library_v2.1.16/XMCLib/src/xmc_usbd.c ****       xmc_device.global_register->gintmsk = gintmsk.d32;
 3326              		.loc 1 887 27 is_stmt 0 view .LVU1107
 3327 00ec 45F01005 		orr	r5, r5, #16
 3328              	.LVL258:
 888:/opt/XMClib/XMC_Peripheral_Library_v2.1.16/XMCLib/src/xmc_usbd.c ****     }
 3329              		.loc 1 888 7 is_stmt 1 view .LVU1108
 888:/opt/XMClib/XMC_Peripheral_Library_v2.1.16/XMCLib/src/xmc_usbd.c ****     }
 3330              		.loc 1 888 17 is_stmt 0 view .LVU1109
 3331 00f0 5A4B     		ldr	r3, .L300
 3332 00f2 D3F8A031 		ldr	r3, [r3, #416]
 3333              	.LVL259:
 888:/opt/XMClib/XMC_Peripheral_Library_v2.1.16/XMCLib/src/xmc_usbd.c ****     }
 3334              		.loc 1 888 43 view .LVU1110
 3335 00f6 9D61     		str	r5, [r3, #24]
 3336 00f8 9DE7     		b	.L241
 3337              	.LVL260:
 3338              	.L287:
 893:/opt/XMClib/XMC_Peripheral_Library_v2.1.16/XMCLib/src/xmc_usbd.c ****   }
 3339              		.loc 1 893 5 is_stmt 1 view .LVU1111
 3340 00fa 0A20     		movs	r0, #10
 3341              	.LVL261:
 893:/opt/XMClib/XMC_Peripheral_Library_v2.1.16/XMCLib/src/xmc_usbd.c ****   }
 3342              		.loc 1 893 5 is_stmt 0 view .LVU1112
 3343 00fc FFF7FEFF 		bl	XMC_USBD_ClearEvent
 3344              	.LVL262:
 3345 0100 9EE7     		b	.L245
 3346              	.LVL263:
 3347              	.L288:
 902:/opt/XMClib/XMC_Peripheral_Library_v2.1.16/XMCLib/src/xmc_usbd.c ****     XMC_USBD_ClearEvent(XMC_USBD_EVENT_REMOTE_WAKEUP);
 3348              		.loc 1 902 5 is_stmt 1 view .LVU1113
 902:/opt/XMClib/XMC_Peripheral_Library_v2.1.16/XMCLib/src/xmc_usbd.c ****     XMC_USBD_ClearEvent(XMC_USBD_EVENT_REMOTE_WAKEUP);
 3349              		.loc 1 902 15 is_stmt 0 view .LVU1114
 3350 0102 564B     		ldr	r3, .L300
 902:/opt/XMClib/XMC_Peripheral_Library_v2.1.16/XMCLib/src/xmc_usbd.c ****     XMC_USBD_ClearEvent(XMC_USBD_EVENT_REMOTE_WAKEUP);
 3351              		.loc 1 902 5 view .LVU1115
 3352 0104 D3F80032 		ldr	r3, [r3, #512]
 3353 0108 0820     		movs	r0, #8
 3354              	.LVL264:
 902:/opt/XMClib/XMC_Peripheral_Library_v2.1.16/XMCLib/src/xmc_usbd.c ****     XMC_USBD_ClearEvent(XMC_USBD_EVENT_REMOTE_WAKEUP);
 3355              		.loc 1 902 5 view .LVU1116
 3356 010a 9847     		blx	r3
 3357              	.LVL265:
 903:/opt/XMClib/XMC_Peripheral_Library_v2.1.16/XMCLib/src/xmc_usbd.c ****   }
 3358              		.loc 1 903 5 is_stmt 1 view .LVU1117
 3359 010c 0820     		movs	r0, #8
 3360 010e FFF7FEFF 		bl	XMC_USBD_ClearEvent
 3361              	.LVL266:
 3362 0112 A3E7     		b	.L247
 3363              	.LVL267:
 3364              	.L289:
 913:/opt/XMClib/XMC_Peripheral_Library_v2.1.16/XMCLib/src/xmc_usbd.c ****   }
 3365              		.loc 1 913 5 view .LVU1118
 3366              	.LBB50:
 3367              	.LBI50:
 520:/opt/XMClib/XMC_Peripheral_Library_v2.1.16/XMCLib/src/xmc_usbd.c **** {
 3368              		.loc 1 520 13 view .LVU1119
 3369              	.LBB51:
 522:/opt/XMClib/XMC_Peripheral_Library_v2.1.16/XMCLib/src/xmc_usbd.c ****   depctl_data_t epctl;
 3370              		.loc 1 522 3 view .LVU1120
 523:/opt/XMClib/XMC_Peripheral_Library_v2.1.16/XMCLib/src/xmc_usbd.c ****   dctl_data_t dctl;
 3371              		.loc 1 523 3 view .LVU1121
 524:/opt/XMClib/XMC_Peripheral_Library_v2.1.16/XMCLib/src/xmc_usbd.c ****   fifosize_data_t gnptxfsiz;
 3372              		.loc 1 524 3 view .LVU1122
 525:/opt/XMClib/XMC_Peripheral_Library_v2.1.16/XMCLib/src/xmc_usbd.c ****   daint_data_t daint;
 3373              		.loc 1 525 3 view .LVU1123
 526:/opt/XMClib/XMC_Peripheral_Library_v2.1.16/XMCLib/src/xmc_usbd.c ****   dcfg_data_t dcfg;
 3374              		.loc 1 526 3 view .LVU1124
 527:/opt/XMClib/XMC_Peripheral_Library_v2.1.16/XMCLib/src/xmc_usbd.c **** 	
 3375              		.loc 1 527 3 view .LVU1125
 530:/opt/XMClib/XMC_Peripheral_Library_v2.1.16/XMCLib/src/xmc_usbd.c ****   dctl.b.rmtwkupsig = 1U;
 3376              		.loc 1 530 3 view .LVU1126
 530:/opt/XMClib/XMC_Peripheral_Library_v2.1.16/XMCLib/src/xmc_usbd.c ****   dctl.b.rmtwkupsig = 1U;
 3377              		.loc 1 530 24 is_stmt 0 view .LVU1127
 3378 0114 5148     		ldr	r0, .L300
 3379              	.LVL268:
 530:/opt/XMClib/XMC_Peripheral_Library_v2.1.16/XMCLib/src/xmc_usbd.c ****   dctl.b.rmtwkupsig = 1U;
 3380              		.loc 1 530 24 view .LVU1128
 3381 0116 D0F8A421 		ldr	r2, [r0, #420]
 530:/opt/XMClib/XMC_Peripheral_Library_v2.1.16/XMCLib/src/xmc_usbd.c ****   dctl.b.rmtwkupsig = 1U;
 3382              		.loc 1 530 40 view .LVU1129
 3383 011a 5368     		ldr	r3, [r2, #4]
 531:/opt/XMClib/XMC_Peripheral_Library_v2.1.16/XMCLib/src/xmc_usbd.c ****   xmc_device.device_register->dctl = dctl.d32;
 3384              		.loc 1 531 3 is_stmt 1 view .LVU1130
 531:/opt/XMClib/XMC_Peripheral_Library_v2.1.16/XMCLib/src/xmc_usbd.c ****   xmc_device.device_register->dctl = dctl.d32;
 3385              		.loc 1 531 21 is_stmt 0 view .LVU1131
 3386 011c 43F00103 		orr	r3, r3, #1
 3387              	.LVL269:
 532:/opt/XMClib/XMC_Peripheral_Library_v2.1.16/XMCLib/src/xmc_usbd.c **** 
 3388              		.loc 1 532 3 is_stmt 1 view .LVU1132
 532:/opt/XMClib/XMC_Peripheral_Library_v2.1.16/XMCLib/src/xmc_usbd.c **** 
 3389              		.loc 1 532 36 is_stmt 0 view .LVU1133
 3390 0120 5360     		str	r3, [r2, #4]
 535:/opt/XMClib/XMC_Peripheral_Library_v2.1.16/XMCLib/src/xmc_usbd.c ****   {
 3391              		.loc 1 535 3 is_stmt 1 view .LVU1134
 3392              	.LVL270:
 535:/opt/XMClib/XMC_Peripheral_Library_v2.1.16/XMCLib/src/xmc_usbd.c ****   {
 3393              		.loc 1 535 17 discriminator 1 view .LVU1135
 3394 0122 00F5E072 		add	r2, r0, #448
 3395 0126 00F5EE70 		add	r0, r0, #476
 3396              	.LVL271:
 3397              	.L250:
 537:/opt/XMClib/XMC_Peripheral_Library_v2.1.16/XMCLib/src/xmc_usbd.c **** 		epctl.b.snak = 1U;
 3398              		.loc 1 537 5 view .LVU1136
 537:/opt/XMClib/XMC_Peripheral_Library_v2.1.16/XMCLib/src/xmc_usbd.c **** 		epctl.b.snak = 1U;
 3399              		.loc 1 537 49 is_stmt 0 view .LVU1137
 3400 012a 52F8041F 		ldr	r1, [r2, #4]!
 537:/opt/XMClib/XMC_Peripheral_Library_v2.1.16/XMCLib/src/xmc_usbd.c **** 		epctl.b.snak = 1U;
 3401              		.loc 1 537 52 view .LVU1138
 3402 012e 0B68     		ldr	r3, [r1]
 3403              	.LVL272:
 538:/opt/XMClib/XMC_Peripheral_Library_v2.1.16/XMCLib/src/xmc_usbd.c **** 		epctl.b.stall = 0U;
 3404              		.loc 1 538 3 is_stmt 1 view .LVU1139
 538:/opt/XMClib/XMC_Peripheral_Library_v2.1.16/XMCLib/src/xmc_usbd.c **** 		epctl.b.stall = 0U;
 3405              		.loc 1 538 16 is_stmt 0 view .LVU1140
 3406 0130 43F00063 		orr	r3, r3, #134217728
 539:/opt/XMClib/XMC_Peripheral_Library_v2.1.16/XMCLib/src/xmc_usbd.c **** 		xmc_device.endpoint_out_register[i]->doepctl = epctl.d32;
 3407              		.loc 1 539 3 is_stmt 1 view .LVU1141
 3408              	.LVL273:
 539:/opt/XMClib/XMC_Peripheral_Library_v2.1.16/XMCLib/src/xmc_usbd.c **** 		xmc_device.endpoint_out_register[i]->doepctl = epctl.d32;
 3409              		.loc 1 539 17 is_stmt 0 view .LVU1142
 3410 0134 23F40013 		bic	r3, r3, #2097152
 3411              	.LVL274:
 540:/opt/XMClib/XMC_Peripheral_Library_v2.1.16/XMCLib/src/xmc_usbd.c ****   }
 3412              		.loc 1 540 3 is_stmt 1 view .LVU1143
 540:/opt/XMClib/XMC_Peripheral_Library_v2.1.16/XMCLib/src/xmc_usbd.c ****   }
 3413              		.loc 1 540 48 is_stmt 0 view .LVU1144
 3414 0138 0B60     		str	r3, [r1]
 535:/opt/XMClib/XMC_Peripheral_Library_v2.1.16/XMCLib/src/xmc_usbd.c ****   {
 3415              		.loc 1 535 46 is_stmt 1 discriminator 3 view .LVU1145
 535:/opt/XMClib/XMC_Peripheral_Library_v2.1.16/XMCLib/src/xmc_usbd.c ****   {
 3416              		.loc 1 535 17 discriminator 1 view .LVU1146
 3417 013a 8242     		cmp	r2, r0
 3418 013c F5D1     		bne	.L250
 545:/opt/XMClib/XMC_Peripheral_Library_v2.1.16/XMCLib/src/xmc_usbd.c ****   /* Calculate the size of the tx fifo for ep 0 */  
 3419              		.loc 1 545 3 view .LVU1147
 545:/opt/XMClib/XMC_Peripheral_Library_v2.1.16/XMCLib/src/xmc_usbd.c ****   /* Calculate the size of the tx fifo for ep 0 */  
 3420              		.loc 1 545 13 is_stmt 0 view .LVU1148
 3421 013e 474E     		ldr	r6, .L300
 3422 0140 D6F8A031 		ldr	r3, [r6, #416]
 3423              	.LVL275:
 545:/opt/XMClib/XMC_Peripheral_Library_v2.1.16/XMCLib/src/xmc_usbd.c ****   /* Calculate the size of the tx fifo for ep 0 */  
 3424              		.loc 1 545 39 view .LVU1149
 3425 0144 4022     		movs	r2, #64
 3426 0146 5A62     		str	r2, [r3, #36]
 547:/opt/XMClib/XMC_Peripheral_Library_v2.1.16/XMCLib/src/xmc_usbd.c ****   gnptxfsiz.b.depth = 16U;
 3427              		.loc 1 547 3 is_stmt 1 view .LVU1150
 548:/opt/XMClib/XMC_Peripheral_Library_v2.1.16/XMCLib/src/xmc_usbd.c ****   gnptxfsiz.b.startaddr = 64U;
 3428              		.loc 1 548 3 view .LVU1151
 549:/opt/XMClib/XMC_Peripheral_Library_v2.1.16/XMCLib/src/xmc_usbd.c ****   xmc_device.global_register->gnptxfsiz = gnptxfsiz.d32;
 3429              		.loc 1 549 3 view .LVU1152
 550:/opt/XMClib/XMC_Peripheral_Library_v2.1.16/XMCLib/src/xmc_usbd.c ****   /* calculate the size for the rest */
 3430              		.loc 1 550 3 view .LVU1153
 550:/opt/XMClib/XMC_Peripheral_Library_v2.1.16/XMCLib/src/xmc_usbd.c ****   /* calculate the size for the rest */
 3431              		.loc 1 550 13 is_stmt 0 view .LVU1154
 3432 0148 D6F8A031 		ldr	r3, [r6, #416]
 550:/opt/XMClib/XMC_Peripheral_Library_v2.1.16/XMCLib/src/xmc_usbd.c ****   /* calculate the size for the rest */
 3433              		.loc 1 550 41 view .LVU1155
 3434 014c 02F58012 		add	r2, r2, #1048576
 3435 0150 9A62     		str	r2, [r3, #40]
 552:/opt/XMClib/XMC_Peripheral_Library_v2.1.16/XMCLib/src/xmc_usbd.c ****   {
 3436              		.loc 1 552 3 is_stmt 1 view .LVU1156
 3437              	.LVL276:
 552:/opt/XMClib/XMC_Peripheral_Library_v2.1.16/XMCLib/src/xmc_usbd.c ****   {
 3438              		.loc 1 552 17 discriminator 1 view .LVU1157
 554:/opt/XMClib/XMC_Peripheral_Library_v2.1.16/XMCLib/src/xmc_usbd.c ****   }
 3439              		.loc 1 554 5 view .LVU1158
 554:/opt/XMClib/XMC_Peripheral_Library_v2.1.16/XMCLib/src/xmc_usbd.c ****   }
 3440              		.loc 1 554 15 is_stmt 0 view .LVU1159
 3441 0152 D6F8A031 		ldr	r3, [r6, #416]
 554:/opt/XMClib/XMC_Peripheral_Library_v2.1.16/XMCLib/src/xmc_usbd.c ****   }
 3442              		.loc 1 554 48 view .LVU1160
 3443 0156 1032     		adds	r2, r2, #16
 3444 0158 C3F80421 		str	r2, [r3, #260]
 552:/opt/XMClib/XMC_Peripheral_Library_v2.1.16/XMCLib/src/xmc_usbd.c ****   {
 3445              		.loc 1 552 51 is_stmt 1 discriminator 3 view .LVU1161
 3446              	.LVL277:
 552:/opt/XMClib/XMC_Peripheral_Library_v2.1.16/XMCLib/src/xmc_usbd.c ****   {
 3447              		.loc 1 552 17 discriminator 1 view .LVU1162
 554:/opt/XMClib/XMC_Peripheral_Library_v2.1.16/XMCLib/src/xmc_usbd.c ****   }
 3448              		.loc 1 554 5 view .LVU1163
 554:/opt/XMClib/XMC_Peripheral_Library_v2.1.16/XMCLib/src/xmc_usbd.c ****   }
 3449              		.loc 1 554 15 is_stmt 0 view .LVU1164
 3450 015c D6F8A031 		ldr	r3, [r6, #416]
 554:/opt/XMClib/XMC_Peripheral_Library_v2.1.16/XMCLib/src/xmc_usbd.c ****   }
 3451              		.loc 1 554 48 view .LVU1165
 3452 0160 1032     		adds	r2, r2, #16
 3453 0162 C3F80821 		str	r2, [r3, #264]
 552:/opt/XMClib/XMC_Peripheral_Library_v2.1.16/XMCLib/src/xmc_usbd.c ****   {
 3454              		.loc 1 552 51 is_stmt 1 discriminator 3 view .LVU1166
 3455              	.LVL278:
 552:/opt/XMClib/XMC_Peripheral_Library_v2.1.16/XMCLib/src/xmc_usbd.c ****   {
 3456              		.loc 1 552 17 discriminator 1 view .LVU1167
 554:/opt/XMClib/XMC_Peripheral_Library_v2.1.16/XMCLib/src/xmc_usbd.c ****   }
 3457              		.loc 1 554 5 view .LVU1168
 554:/opt/XMClib/XMC_Peripheral_Library_v2.1.16/XMCLib/src/xmc_usbd.c ****   }
 3458              		.loc 1 554 15 is_stmt 0 view .LVU1169
 3459 0166 D6F8A031 		ldr	r3, [r6, #416]
 554:/opt/XMClib/XMC_Peripheral_Library_v2.1.16/XMCLib/src/xmc_usbd.c ****   }
 3460              		.loc 1 554 48 view .LVU1170
 3461 016a 1032     		adds	r2, r2, #16
 3462 016c C3F80C21 		str	r2, [r3, #268]
 552:/opt/XMClib/XMC_Peripheral_Library_v2.1.16/XMCLib/src/xmc_usbd.c ****   {
 3463              		.loc 1 552 51 is_stmt 1 discriminator 3 view .LVU1171
 3464              	.LVL279:
 552:/opt/XMClib/XMC_Peripheral_Library_v2.1.16/XMCLib/src/xmc_usbd.c ****   {
 3465              		.loc 1 552 17 discriminator 1 view .LVU1172
 554:/opt/XMClib/XMC_Peripheral_Library_v2.1.16/XMCLib/src/xmc_usbd.c ****   }
 3466              		.loc 1 554 5 view .LVU1173
 554:/opt/XMClib/XMC_Peripheral_Library_v2.1.16/XMCLib/src/xmc_usbd.c ****   }
 3467              		.loc 1 554 15 is_stmt 0 view .LVU1174
 3468 0170 D6F8A031 		ldr	r3, [r6, #416]
 554:/opt/XMClib/XMC_Peripheral_Library_v2.1.16/XMCLib/src/xmc_usbd.c ****   }
 3469              		.loc 1 554 48 view .LVU1175
 3470 0174 1032     		adds	r2, r2, #16
 3471 0176 C3F81021 		str	r2, [r3, #272]
 552:/opt/XMClib/XMC_Peripheral_Library_v2.1.16/XMCLib/src/xmc_usbd.c ****   {
 3472              		.loc 1 552 51 is_stmt 1 discriminator 3 view .LVU1176
 3473              	.LVL280:
 552:/opt/XMClib/XMC_Peripheral_Library_v2.1.16/XMCLib/src/xmc_usbd.c ****   {
 3474              		.loc 1 552 17 discriminator 1 view .LVU1177
 554:/opt/XMClib/XMC_Peripheral_Library_v2.1.16/XMCLib/src/xmc_usbd.c ****   }
 3475              		.loc 1 554 5 view .LVU1178
 554:/opt/XMClib/XMC_Peripheral_Library_v2.1.16/XMCLib/src/xmc_usbd.c ****   }
 3476              		.loc 1 554 15 is_stmt 0 view .LVU1179
 3477 017a D6F8A031 		ldr	r3, [r6, #416]
 554:/opt/XMClib/XMC_Peripheral_Library_v2.1.16/XMCLib/src/xmc_usbd.c ****   }
 3478              		.loc 1 554 48 view .LVU1180
 3479 017e 1032     		adds	r2, r2, #16
 3480 0180 C3F81421 		str	r2, [r3, #276]
 552:/opt/XMClib/XMC_Peripheral_Library_v2.1.16/XMCLib/src/xmc_usbd.c ****   {
 3481              		.loc 1 552 51 is_stmt 1 discriminator 3 view .LVU1181
 3482              	.LVL281:
 552:/opt/XMClib/XMC_Peripheral_Library_v2.1.16/XMCLib/src/xmc_usbd.c ****   {
 3483              		.loc 1 552 17 discriminator 1 view .LVU1182
 554:/opt/XMClib/XMC_Peripheral_Library_v2.1.16/XMCLib/src/xmc_usbd.c ****   }
 3484              		.loc 1 554 5 view .LVU1183
 554:/opt/XMClib/XMC_Peripheral_Library_v2.1.16/XMCLib/src/xmc_usbd.c ****   }
 3485              		.loc 1 554 15 is_stmt 0 view .LVU1184
 3486 0184 D6F8A031 		ldr	r3, [r6, #416]
 554:/opt/XMClib/XMC_Peripheral_Library_v2.1.16/XMCLib/src/xmc_usbd.c ****   }
 3487              		.loc 1 554 48 view .LVU1185
 3488 0188 1032     		adds	r2, r2, #16
 3489 018a C3F81821 		str	r2, [r3, #280]
 552:/opt/XMClib/XMC_Peripheral_Library_v2.1.16/XMCLib/src/xmc_usbd.c ****   {
 3490              		.loc 1 552 51 is_stmt 1 discriminator 3 view .LVU1186
 3491              	.LVL282:
 552:/opt/XMClib/XMC_Peripheral_Library_v2.1.16/XMCLib/src/xmc_usbd.c ****   {
 3492              		.loc 1 552 17 discriminator 1 view .LVU1187
 558:/opt/XMClib/XMC_Peripheral_Library_v2.1.16/XMCLib/src/xmc_usbd.c ****   XMC_USBD_lFlushTXFifo(0x0U);
 3493              		.loc 1 558 3 view .LVU1188
 3494 018e 1020     		movs	r0, #16
 3495 0190 FFF7FEFF 		bl	XMC_USBD_lFlushTXFifo
 3496              	.LVL283:
 559:/opt/XMClib/XMC_Peripheral_Library_v2.1.16/XMCLib/src/xmc_usbd.c ****   XMC_USBD_lFlushRXFifo();
 3497              		.loc 1 559 3 view .LVU1189
 3498 0194 0020     		movs	r0, #0
 3499 0196 FFF7FEFF 		bl	XMC_USBD_lFlushTXFifo
 3500              	.LVL284:
 560:/opt/XMClib/XMC_Peripheral_Library_v2.1.16/XMCLib/src/xmc_usbd.c ****   /* Flush learning queue not needed due to fifo config */
 3501              		.loc 1 560 3 view .LVU1190
 3502 019a FFF7FEFF 		bl	XMC_USBD_lFlushRXFifo
 3503              	.LVL285:
 563:/opt/XMClib/XMC_Peripheral_Library_v2.1.16/XMCLib/src/xmc_usbd.c ****   daint.b.inep0 = 1U;
 3504              		.loc 1 563 3 view .LVU1191
 564:/opt/XMClib/XMC_Peripheral_Library_v2.1.16/XMCLib/src/xmc_usbd.c ****   daint.b.outep0 = 1U;
 3505              		.loc 1 564 3 view .LVU1192
 565:/opt/XMClib/XMC_Peripheral_Library_v2.1.16/XMCLib/src/xmc_usbd.c ****   xmc_device.device_register->daintmsk = daint.d32;
 3506              		.loc 1 565 3 view .LVU1193
 566:/opt/XMClib/XMC_Peripheral_Library_v2.1.16/XMCLib/src/xmc_usbd.c **** 
 3507              		.loc 1 566 3 view .LVU1194
 566:/opt/XMClib/XMC_Peripheral_Library_v2.1.16/XMCLib/src/xmc_usbd.c **** 
 3508              		.loc 1 566 13 is_stmt 0 view .LVU1195
 3509 019e D6F8A431 		ldr	r3, [r6, #420]
 566:/opt/XMClib/XMC_Peripheral_Library_v2.1.16/XMCLib/src/xmc_usbd.c **** 
 3510              		.loc 1 566 40 view .LVU1196
 3511 01a2 4FF00112 		mov	r2, #65537
 3512 01a6 DA61     		str	r2, [r3, #28]
 570:/opt/XMClib/XMC_Peripheral_Library_v2.1.16/XMCLib/src/xmc_usbd.c **** 		  	  	  	  	  	  (uint32_t)XMC_USBD_EVENT_OUT_EP_SETUP | (uint32_t)XMC_USBD_EVENT_OUT_EP_AHB_ERRO
 3513              		.loc 1 570 3 is_stmt 1 view .LVU1197
 3514 01a8 0F20     		movs	r0, #15
 3515 01aa FFF7FEFF 		bl	XMC_USBD_EnableEventOUTEP
 3516              	.LVL286:
 574:/opt/XMClib/XMC_Peripheral_Library_v2.1.16/XMCLib/src/xmc_usbd.c **** 		  (uint32_t)XMC_USBD_EVENT_IN_EP_AHB_ERROR | (uint32_t)XMC_USBD_EVENT_IN_EP_TIMEOUT));
 3517              		.loc 1 574 3 view .LVU1198
 3518 01ae 0F20     		movs	r0, #15
 3519 01b0 FFF7FEFF 		bl	XMC_USBD_EnableEventINEP
 3520              	.LVL287:
 579:/opt/XMClib/XMC_Peripheral_Library_v2.1.16/XMCLib/src/xmc_usbd.c ****   dcfg.b.devaddr = 0U;
 3521              		.loc 1 579 3 view .LVU1199
 579:/opt/XMClib/XMC_Peripheral_Library_v2.1.16/XMCLib/src/xmc_usbd.c ****   dcfg.b.devaddr = 0U;
 3522              		.loc 1 579 24 is_stmt 0 view .LVU1200
 3523 01b4 D6F8A421 		ldr	r2, [r6, #420]
 579:/opt/XMClib/XMC_Peripheral_Library_v2.1.16/XMCLib/src/xmc_usbd.c ****   dcfg.b.devaddr = 0U;
 3524              		.loc 1 579 40 view .LVU1201
 3525 01b8 1368     		ldr	r3, [r2]
 580:/opt/XMClib/XMC_Peripheral_Library_v2.1.16/XMCLib/src/xmc_usbd.c ****   xmc_device.device_register->dcfg = dcfg.d32;
 3526              		.loc 1 580 3 is_stmt 1 view .LVU1202
 3527              	.LVL288:
 580:/opt/XMClib/XMC_Peripheral_Library_v2.1.16/XMCLib/src/xmc_usbd.c ****   xmc_device.device_register->dcfg = dcfg.d32;
 3528              		.loc 1 580 18 is_stmt 0 view .LVU1203
 3529 01ba 23F4FE63 		bic	r3, r3, #2032
 3530              	.LVL289:
 581:/opt/XMClib/XMC_Peripheral_Library_v2.1.16/XMCLib/src/xmc_usbd.c **** 
 3531              		.loc 1 581 3 is_stmt 1 view .LVU1204
 581:/opt/XMClib/XMC_Peripheral_Library_v2.1.16/XMCLib/src/xmc_usbd.c **** 
 3532              		.loc 1 581 36 is_stmt 0 view .LVU1205
 3533 01be 1360     		str	r3, [r2]
 583:/opt/XMClib/XMC_Peripheral_Library_v2.1.16/XMCLib/src/xmc_usbd.c ****   {
 3534              		.loc 1 583 3 is_stmt 1 view .LVU1206
 583:/opt/XMClib/XMC_Peripheral_Library_v2.1.16/XMCLib/src/xmc_usbd.c ****   {
 3535              		.loc 1 583 5 is_stmt 0 view .LVU1207
 3536 01c0 9BF80D30 		ldrb	r3, [fp, #13]	@ zero_extendqisi2
 3537              	.LVL290:
 583:/opt/XMClib/XMC_Peripheral_Library_v2.1.16/XMCLib/src/xmc_usbd.c ****   {
 3538              		.loc 1 583 5 view .LVU1208
 3539 01c4 012B     		cmp	r3, #1
 3540 01c6 10D0     		beq	.L294
 3541              	.L251:
 589:/opt/XMClib/XMC_Peripheral_Library_v2.1.16/XMCLib/src/xmc_usbd.c ****   xmc_device.ep[0U].inInUse = 0U;
 3542              		.loc 1 589 3 is_stmt 1 view .LVU1209
 589:/opt/XMClib/XMC_Peripheral_Library_v2.1.16/XMCLib/src/xmc_usbd.c ****   xmc_device.ep[0U].inInUse = 0U;
 3543              		.loc 1 589 30 is_stmt 0 view .LVU1210
 3544 01c8 244B     		ldr	r3, .L300
 3545 01ca 5A68     		ldr	r2, [r3, #4]
 3546 01cc 22F01002 		bic	r2, r2, #16
 3547 01d0 5A60     		str	r2, [r3, #4]
 590:/opt/XMClib/XMC_Peripheral_Library_v2.1.16/XMCLib/src/xmc_usbd.c **** 
 3548              		.loc 1 590 3 is_stmt 1 view .LVU1211
 590:/opt/XMClib/XMC_Peripheral_Library_v2.1.16/XMCLib/src/xmc_usbd.c **** 
 3549              		.loc 1 590 29 is_stmt 0 view .LVU1212
 3550 01d2 5A68     		ldr	r2, [r3, #4]
 3551 01d4 22F00802 		bic	r2, r2, #8
 3552 01d8 5A60     		str	r2, [r3, #4]
 592:/opt/XMClib/XMC_Peripheral_Library_v2.1.16/XMCLib/src/xmc_usbd.c **** 
 3553              		.loc 1 592 3 is_stmt 1 view .LVU1213
 3554 01da D3F80032 		ldr	r3, [r3, #512]
 3555 01de 0420     		movs	r0, #4
 3556 01e0 9847     		blx	r3
 3557              	.LVL291:
 595:/opt/XMClib/XMC_Peripheral_Library_v2.1.16/XMCLib/src/xmc_usbd.c **** }
 3558              		.loc 1 595 3 view .LVU1214
 3559 01e2 0420     		movs	r0, #4
 3560 01e4 FFF7FEFF 		bl	XMC_USBD_ClearEvent
 3561              	.LVL292:
 596:/opt/XMClib/XMC_Peripheral_Library_v2.1.16/XMCLib/src/xmc_usbd.c **** 
 3562              		.loc 1 596 1 is_stmt 0 view .LVU1215
 3563 01e8 4CE7     		b	.L249
 3564              	.LVL293:
 3565              	.L294:
 586:/opt/XMClib/XMC_Peripheral_Library_v2.1.16/XMCLib/src/xmc_usbd.c ****   }
 3566              		.loc 1 586 5 is_stmt 1 view .LVU1216
 586:/opt/XMClib/XMC_Peripheral_Library_v2.1.16/XMCLib/src/xmc_usbd.c ****   }
 3567              		.loc 1 586 15 is_stmt 0 view .LVU1217
 3568 01ea D6F8A431 		ldr	r3, [r6, #420]
 586:/opt/XMClib/XMC_Peripheral_Library_v2.1.16/XMCLib/src/xmc_usbd.c ****   }
 3569              		.loc 1 586 54 view .LVU1218
 3570 01ee 0022     		movs	r2, #0
 3571 01f0 5A63     		str	r2, [r3, #52]
 3572 01f2 E9E7     		b	.L251
 3573              	.LVL294:
 3574              	.L290:
 586:/opt/XMClib/XMC_Peripheral_Library_v2.1.16/XMCLib/src/xmc_usbd.c ****   }
 3575              		.loc 1 586 54 view .LVU1219
 3576              	.LBE51:
 3577              	.LBE50:
 917:/opt/XMClib/XMC_Peripheral_Library_v2.1.16/XMCLib/src/xmc_usbd.c ****   }
 3578              		.loc 1 917 5 is_stmt 1 view .LVU1220
 3579              	.LBB52:
 3580              	.LBI52:
 621:/opt/XMClib/XMC_Peripheral_Library_v2.1.16/XMCLib/src/xmc_usbd.c **** {
 3581              		.loc 1 621 13 view .LVU1221
 3582              	.LBB53:
 625:/opt/XMClib/XMC_Peripheral_Library_v2.1.16/XMCLib/src/xmc_usbd.c ****   gusbcfg_data_t gusbcfg;
 3583              		.loc 1 625 3 view .LVU1222
 626:/opt/XMClib/XMC_Peripheral_Library_v2.1.16/XMCLib/src/xmc_usbd.c **** 	
 3584              		.loc 1 626 3 view .LVU1223
 628:/opt/XMClib/XMC_Peripheral_Library_v2.1.16/XMCLib/src/xmc_usbd.c ****   epctl.b.mps = 0x00U; /* 64 Byte, this is also automatically set for out ep */
 3585              		.loc 1 628 3 view .LVU1224
 628:/opt/XMClib/XMC_Peripheral_Library_v2.1.16/XMCLib/src/xmc_usbd.c ****   epctl.b.mps = 0x00U; /* 64 Byte, this is also automatically set for out ep */
 3586              		.loc 1 628 44 is_stmt 0 view .LVU1225
 3587 01f4 194D     		ldr	r5, .L300
 3588 01f6 D5F8A821 		ldr	r2, [r5, #424]
 628:/opt/XMClib/XMC_Peripheral_Library_v2.1.16/XMCLib/src/xmc_usbd.c ****   epctl.b.mps = 0x00U; /* 64 Byte, this is also automatically set for out ep */
 3589              		.loc 1 628 48 view .LVU1226
 3590 01fa 1368     		ldr	r3, [r2]
 629:/opt/XMClib/XMC_Peripheral_Library_v2.1.16/XMCLib/src/xmc_usbd.c ****   xmc_device.endpoint_in_register[0U]->diepctl = epctl.d32;
 3591              		.loc 1 629 3 is_stmt 1 view .LVU1227
 3592              	.LVL295:
 629:/opt/XMClib/XMC_Peripheral_Library_v2.1.16/XMCLib/src/xmc_usbd.c ****   xmc_device.endpoint_in_register[0U]->diepctl = epctl.d32;
 3593              		.loc 1 629 15 is_stmt 0 view .LVU1228
 3594 01fc 6FF30A03 		bfc	r3, #0, #11
 3595              	.LVL296:
 630:/opt/XMClib/XMC_Peripheral_Library_v2.1.16/XMCLib/src/xmc_usbd.c **** 
 3596              		.loc 1 630 3 is_stmt 1 view .LVU1229
 630:/opt/XMClib/XMC_Peripheral_Library_v2.1.16/XMCLib/src/xmc_usbd.c **** 
 3597              		.loc 1 630 48 is_stmt 0 view .LVU1230
 3598 0200 1360     		str	r3, [r2]
 633:/opt/XMClib/XMC_Peripheral_Library_v2.1.16/XMCLib/src/xmc_usbd.c ****   xmc_device.IsPowered = 1U;
 3599              		.loc 1 633 3 is_stmt 1 view .LVU1231
 633:/opt/XMClib/XMC_Peripheral_Library_v2.1.16/XMCLib/src/xmc_usbd.c ****   xmc_device.IsPowered = 1U;
 3600              		.loc 1 633 26 is_stmt 0 view .LVU1232
 3601 0202 95F8FE31 		ldrb	r3, [r5, #510]	@ zero_extendqisi2
 3602              	.LVL297:
 634:/opt/XMClib/XMC_Peripheral_Library_v2.1.16/XMCLib/src/xmc_usbd.c **** 
 3603              		.loc 1 634 3 is_stmt 1 view .LVU1233
 634:/opt/XMClib/XMC_Peripheral_Library_v2.1.16/XMCLib/src/xmc_usbd.c **** 
 3604              		.loc 1 634 24 is_stmt 0 view .LVU1234
 3605 0206 43F00503 		orr	r3, r3, #5
 3606 020a 85F8FE31 		strb	r3, [r5, #510]
 636:/opt/XMClib/XMC_Peripheral_Library_v2.1.16/XMCLib/src/xmc_usbd.c **** 
 3607              		.loc 1 636 3 is_stmt 1 view .LVU1235
 3608 020e D5F80032 		ldr	r3, [r5, #512]
 3609 0212 0220     		movs	r0, #2
 3610              	.LVL298:
 636:/opt/XMClib/XMC_Peripheral_Library_v2.1.16/XMCLib/src/xmc_usbd.c **** 
 3611              		.loc 1 636 3 is_stmt 0 view .LVU1236
 3612 0214 9847     		blx	r3
 3613              	.LVL299:
 639:/opt/XMClib/XMC_Peripheral_Library_v2.1.16/XMCLib/src/xmc_usbd.c ****   gusbcfg.b.usbtrdtim = 9U; /* default value for LS/FS */
 3614              		.loc 1 639 3 is_stmt 1 view .LVU1237
 639:/opt/XMClib/XMC_Peripheral_Library_v2.1.16/XMCLib/src/xmc_usbd.c ****   gusbcfg.b.usbtrdtim = 9U; /* default value for LS/FS */
 3615              		.loc 1 639 27 is_stmt 0 view .LVU1238
 3616 0216 D5F8A021 		ldr	r2, [r5, #416]
 639:/opt/XMClib/XMC_Peripheral_Library_v2.1.16/XMCLib/src/xmc_usbd.c ****   gusbcfg.b.usbtrdtim = 9U; /* default value for LS/FS */
 3617              		.loc 1 639 43 view .LVU1239
 3618 021a D368     		ldr	r3, [r2, #12]
 640:/opt/XMClib/XMC_Peripheral_Library_v2.1.16/XMCLib/src/xmc_usbd.c ****   xmc_device.global_register->gusbcfg = gusbcfg.d32;
 3619              		.loc 1 640 3 is_stmt 1 view .LVU1240
 640:/opt/XMClib/XMC_Peripheral_Library_v2.1.16/XMCLib/src/xmc_usbd.c ****   xmc_device.global_register->gusbcfg = gusbcfg.d32;
 3620              		.loc 1 640 23 is_stmt 0 view .LVU1241
 3621 021c 0921     		movs	r1, #9
 3622 021e 61F38D23 		bfi	r3, r1, #10, #4
 3623              	.LVL300:
 641:/opt/XMClib/XMC_Peripheral_Library_v2.1.16/XMCLib/src/xmc_usbd.c **** 
 3624              		.loc 1 641 3 is_stmt 1 view .LVU1242
 641:/opt/XMClib/XMC_Peripheral_Library_v2.1.16/XMCLib/src/xmc_usbd.c **** 
 3625              		.loc 1 641 39 is_stmt 0 view .LVU1243
 3626 0222 D360     		str	r3, [r2, #12]
 644:/opt/XMClib/XMC_Peripheral_Library_v2.1.16/XMCLib/src/xmc_usbd.c **** }
 3627              		.loc 1 644 3 is_stmt 1 view .LVU1244
 3628 0224 0B20     		movs	r0, #11
 3629 0226 FFF7FEFF 		bl	XMC_USBD_ClearEvent
 3630              	.LVL301:
 645:/opt/XMClib/XMC_Peripheral_Library_v2.1.16/XMCLib/src/xmc_usbd.c **** 
 3631              		.loc 1 645 1 is_stmt 0 view .LVU1245
 3632 022a 2FE7     		b	.L252
 3633              	.LVL302:
 3634              	.L291:
 645:/opt/XMClib/XMC_Peripheral_Library_v2.1.16/XMCLib/src/xmc_usbd.c **** 
 3635              		.loc 1 645 1 view .LVU1246
 3636              	.LBE53:
 3637              	.LBE52:
 921:/opt/XMClib/XMC_Peripheral_Library_v2.1.16/XMCLib/src/xmc_usbd.c ****   }
 3638              		.loc 1 921 5 is_stmt 1 view .LVU1247
 3639              	.LBB54:
 3640              	.LBI54:
 746:/opt/XMClib/XMC_Peripheral_Library_v2.1.16/XMCLib/src/xmc_usbd.c **** {
 3641              		.loc 1 746 13 view .LVU1248
 3642              	.LBB55:
 748:/opt/XMClib/XMC_Peripheral_Library_v2.1.16/XMCLib/src/xmc_usbd.c ****   daint_data_t daint;
 3643              		.loc 1 748 3 view .LVU1249
 749:/opt/XMClib/XMC_Peripheral_Library_v2.1.16/XMCLib/src/xmc_usbd.c ****   diepmsk_data_t diepmsk;
 3644              		.loc 1 749 3 view .LVU1250
 750:/opt/XMClib/XMC_Peripheral_Library_v2.1.16/XMCLib/src/xmc_usbd.c ****   diepint_data_t diepint;
 3645              		.loc 1 750 3 view .LVU1251
 751:/opt/XMClib/XMC_Peripheral_Library_v2.1.16/XMCLib/src/xmc_usbd.c ****   deptsiz_data_t dieptsiz;
 3646              		.loc 1 751 3 view .LVU1252
 752:/opt/XMClib/XMC_Peripheral_Library_v2.1.16/XMCLib/src/xmc_usbd.c ****   uint16_t temp;
 3647              		.loc 1 752 3 view .LVU1253
 753:/opt/XMClib/XMC_Peripheral_Library_v2.1.16/XMCLib/src/xmc_usbd.c ****   uint16_t temp1;
 3648              		.loc 1 753 3 view .LVU1254
 754:/opt/XMClib/XMC_Peripheral_Library_v2.1.16/XMCLib/src/xmc_usbd.c ****   uint16_t mask;
 3649              		.loc 1 754 3 view .LVU1255
 755:/opt/XMClib/XMC_Peripheral_Library_v2.1.16/XMCLib/src/xmc_usbd.c ****   uint8_t ep_num;
 3650              		.loc 1 755 3 view .LVU1256
 756:/opt/XMClib/XMC_Peripheral_Library_v2.1.16/XMCLib/src/xmc_usbd.c ****   uint32_t inepint;
 3651              		.loc 1 756 3 view .LVU1257
 757:/opt/XMClib/XMC_Peripheral_Library_v2.1.16/XMCLib/src/xmc_usbd.c **** 	
 3652              		.loc 1 757 3 view .LVU1258
 759:/opt/XMClib/XMC_Peripheral_Library_v2.1.16/XMCLib/src/xmc_usbd.c ****   
 3653              		.loc 1 759 3 view .LVU1259
 759:/opt/XMClib/XMC_Peripheral_Library_v2.1.16/XMCLib/src/xmc_usbd.c ****   
 3654              		.loc 1 759 25 is_stmt 0 view .LVU1260
 3655 022c 0B4B     		ldr	r3, .L300
 3656 022e D3F8A431 		ldr	r3, [r3, #420]
 759:/opt/XMClib/XMC_Peripheral_Library_v2.1.16/XMCLib/src/xmc_usbd.c ****   
 3657              		.loc 1 759 41 view .LVU1261
 3658 0232 9A69     		ldr	r2, [r3, #24]
 761:/opt/XMClib/XMC_Peripheral_Library_v2.1.16/XMCLib/src/xmc_usbd.c ****   
 3659              		.loc 1 761 3 is_stmt 1 view .LVU1262
 761:/opt/XMClib/XMC_Peripheral_Library_v2.1.16/XMCLib/src/xmc_usbd.c ****   
 3660              		.loc 1 761 43 is_stmt 0 view .LVU1263
 3661 0234 1969     		ldr	r1, [r3, #16]
 3662              	.LVL303:
 763:/opt/XMClib/XMC_Peripheral_Library_v2.1.16/XMCLib/src/xmc_usbd.c ****   mask = daint.ep.in;
 3663              		.loc 1 763 3 is_stmt 1 view .LVU1264
 764:/opt/XMClib/XMC_Peripheral_Library_v2.1.16/XMCLib/src/xmc_usbd.c ****   ep_num = 0U;
 3664              		.loc 1 764 3 view .LVU1265
 765:/opt/XMClib/XMC_Peripheral_Library_v2.1.16/XMCLib/src/xmc_usbd.c ****   
 3665              		.loc 1 765 3 view .LVU1266
 767:/opt/XMClib/XMC_Peripheral_Library_v2.1.16/XMCLib/src/xmc_usbd.c ****   {
 3666              		.loc 1 767 3 view .LVU1267
 767:/opt/XMClib/XMC_Peripheral_Library_v2.1.16/XMCLib/src/xmc_usbd.c ****   {
 3667              		.loc 1 767 10 view .LVU1268
 3668 0236 1FFA82F8 		uxth	r8, r2
 3669 023a B8F1000F 		cmp	r8, #0
 3670 023e 00F0B980 		beq	.L254
 767:/opt/XMClib/XMC_Peripheral_Library_v2.1.16/XMCLib/src/xmc_usbd.c ****   {
 3671              		.loc 1 767 25 is_stmt 0 view .LVU1269
 3672 0242 4346     		mov	r3, r8
 763:/opt/XMClib/XMC_Peripheral_Library_v2.1.16/XMCLib/src/xmc_usbd.c ****   mask = daint.ep.in;
 3673              		.loc 1 763 16 view .LVU1270
 3674 0244 0022     		movs	r2, #0
 3675              	.LVL304:
 763:/opt/XMClib/XMC_Peripheral_Library_v2.1.16/XMCLib/src/xmc_usbd.c ****   mask = daint.ep.in;
 3676              		.loc 1 763 16 view .LVU1271
 3677 0246 0192     		str	r2, [sp, #4]
 765:/opt/XMClib/XMC_Peripheral_Library_v2.1.16/XMCLib/src/xmc_usbd.c ****   
 3678              		.loc 1 765 10 view .LVU1272
 3679 0248 1446     		mov	r4, r2
 3680              	.LVL305:
 774:/opt/XMClib/XMC_Peripheral_Library_v2.1.16/XMCLib/src/xmc_usbd.c ****       diepint.d32 = inepint &
 3681              		.loc 1 774 55 view .LVU1273
 3682 024a 044F     		ldr	r7, .L300
 776:/opt/XMClib/XMC_Peripheral_Library_v2.1.16/XMCLib/src/xmc_usbd.c ****                      0x1U) << 7U) | (uint32_t)diepmsk.d32);
 3683              		.loc 1 776 107 view .LVU1274
 3684 024c 4FF03409 		mov	r9, #52
 813:/opt/XMClib/XMC_Peripheral_Library_v2.1.16/XMCLib/src/xmc_usbd.c ****         }
 3685              		.loc 1 813 11 view .LVU1275
 3686 0250 CDF808A0 		str	r10, [sp, #8]
 3687 0254 0395     		str	r5, [sp, #12]
 3688 0256 0D46     		mov	r5, r1
 3689 0258 9246     		mov	r10, r2
 3690 025a 2CE0     		b	.L267
 3691              	.L301:
 3692              		.align	2
 3693              	.L300:
 3694 025c 00000000 		.word	.LANCHOR0
 3695              	.LVL306:
 3696              	.L256:
 782:/opt/XMClib/XMC_Peripheral_Library_v2.1.16/XMCLib/src/xmc_usbd.c ****       {
 3697              		.loc 1 782 7 is_stmt 1 view .LVU1276
 782:/opt/XMClib/XMC_Peripheral_Library_v2.1.16/XMCLib/src/xmc_usbd.c ****       {
 3698              		.loc 1 782 9 is_stmt 0 view .LVU1277
 3699 0260 0129     		cmp	r1, #1
 3700 0262 40F05A81 		bne	.L259
 784:/opt/XMClib/XMC_Peripheral_Library_v2.1.16/XMCLib/src/xmc_usbd.c ****         {
 3701              		.loc 1 784 9 is_stmt 1 view .LVU1278
 784:/opt/XMClib/XMC_Peripheral_Library_v2.1.16/XMCLib/src/xmc_usbd.c ****         {
 3702              		.loc 1 784 12 is_stmt 0 view .LVU1279
 3703 0266 16F0800F 		tst	r6, #128
 3704 026a 52D1     		bne	.L295
 792:/opt/XMClib/XMC_Peripheral_Library_v2.1.16/XMCLib/src/xmc_usbd.c ****       {
 3705              		.loc 1 792 7 is_stmt 1 view .LVU1280
 792:/opt/XMClib/XMC_Peripheral_Library_v2.1.16/XMCLib/src/xmc_usbd.c ****       {
 3706              		.loc 1 792 10 is_stmt 0 view .LVU1281
 3707 026c 16F0010F 		tst	r6, #1
 3708 0270 16D0     		beq	.L258
 3709              	.L264:
 804:/opt/XMClib/XMC_Peripheral_Library_v2.1.16/XMCLib/src/xmc_usbd.c ****         {
 3710              		.loc 1 804 9 is_stmt 1 view .LVU1282
 804:/opt/XMClib/XMC_Peripheral_Library_v2.1.16/XMCLib/src/xmc_usbd.c ****         {
 3711              		.loc 1 804 15 is_stmt 0 view .LVU1283
 3712 0272 09FB0A73 		mla	r3, r9, r10, r7
 804:/opt/XMClib/XMC_Peripheral_Library_v2.1.16/XMCLib/src/xmc_usbd.c ****         {
 3713              		.loc 1 804 12 view .LVU1284
 3714 0276 1A6B     		ldr	r2, [r3, #48]
 3715 0278 9B6A     		ldr	r3, [r3, #40]
 3716 027a 9A42     		cmp	r2, r3
 3717 027c 40F09280 		bne	.L265
 806:/opt/XMClib/XMC_Peripheral_Library_v2.1.16/XMCLib/src/xmc_usbd.c ****           if(obj->usbd_transfer_mode == XMC_USBD_USE_FIFO)
 3718              		.loc 1 806 11 is_stmt 1 view .LVU1285
 806:/opt/XMClib/XMC_Peripheral_Library_v2.1.16/XMCLib/src/xmc_usbd.c ****           if(obj->usbd_transfer_mode == XMC_USBD_USE_FIFO)
 3719              		.loc 1 806 23 is_stmt 0 view .LVU1286
 3720 0280 09FB0A72 		mla	r2, r9, r10, r7
 3721 0284 5368     		ldr	r3, [r2, #4]
 3722 0286 23F00803 		bic	r3, r3, #8
 3723 028a 5360     		str	r3, [r2, #4]
 3724              	.LVL307:
 807:/opt/XMClib/XMC_Peripheral_Library_v2.1.16/XMCLib/src/xmc_usbd.c ****           {
 3725              		.loc 1 807 11 is_stmt 1 view .LVU1287
 807:/opt/XMClib/XMC_Peripheral_Library_v2.1.16/XMCLib/src/xmc_usbd.c ****           {
 3726              		.loc 1 807 13 is_stmt 0 view .LVU1288
 3727 028c 9BF80D30 		ldrb	r3, [fp, #13]	@ zero_extendqisi2
 3728 0290 012B     		cmp	r3, #1
 3729 0292 7CD0     		beq	.L296
 3730              	.L266:
 813:/opt/XMClib/XMC_Peripheral_Library_v2.1.16/XMCLib/src/xmc_usbd.c ****         }
 3731              		.loc 1 813 11 is_stmt 1 view .LVU1289
 3732 0294 D7F80432 		ldr	r3, [r7, #516]
 3733 0298 0221     		movs	r1, #2
 3734 029a 44F08000 		orr	r0, r4, #128
 3735              	.LVL308:
 813:/opt/XMClib/XMC_Peripheral_Library_v2.1.16/XMCLib/src/xmc_usbd.c ****         }
 3736              		.loc 1 813 11 is_stmt 0 view .LVU1290
 3737 029e 9847     		blx	r3
 3738              	.LVL309:
 3739              	.L258:
 823:/opt/XMClib/XMC_Peripheral_Library_v2.1.16/XMCLib/src/xmc_usbd.c ****     }
 3740              		.loc 1 823 7 is_stmt 1 view .LVU1291
 3741              	.LBB56:
 3742              	.LBI56:
1019:/opt/XMClib/XMC_Peripheral_Library_v2.1.16/XMCLib/src/xmc_usbd.c **** {
 3743              		.loc 1 1019 6 view .LVU1292
 3744              	.LBB57:
1021:/opt/XMClib/XMC_Peripheral_Library_v2.1.16/XMCLib/src/xmc_usbd.c ****   clear.d32 = event;
 3745              		.loc 1 1021 3 view .LVU1293
1022:/opt/XMClib/XMC_Peripheral_Library_v2.1.16/XMCLib/src/xmc_usbd.c ****   xmc_device.endpoint_in_register[ep_num]->diepint = clear.d32;
 3746              		.loc 1 1022 3 view .LVU1294
1023:/opt/XMClib/XMC_Peripheral_Library_v2.1.16/XMCLib/src/xmc_usbd.c **** }
 3747              		.loc 1 1023 3 view .LVU1295
1023:/opt/XMClib/XMC_Peripheral_Library_v2.1.16/XMCLib/src/xmc_usbd.c **** }
 3748              		.loc 1 1023 34 is_stmt 0 view .LVU1296
 3749 02a0 0AF16A0A 		add	r10, r10, #106
 3750              	.LVL310:
1023:/opt/XMClib/XMC_Peripheral_Library_v2.1.16/XMCLib/src/xmc_usbd.c **** }
 3751              		.loc 1 1023 34 view .LVU1297
 3752 02a4 57F82A30 		ldr	r3, [r7, r10, lsl #2]
1023:/opt/XMClib/XMC_Peripheral_Library_v2.1.16/XMCLib/src/xmc_usbd.c **** }
 3753              		.loc 1 1023 52 view .LVU1298
 3754 02a8 9E60     		str	r6, [r3, #8]
 3755              	.LVL311:
 3756              	.L255:
1023:/opt/XMClib/XMC_Peripheral_Library_v2.1.16/XMCLib/src/xmc_usbd.c **** }
 3757              		.loc 1 1023 52 view .LVU1299
 3758              	.LBE57:
 3759              	.LBE56:
 825:/opt/XMClib/XMC_Peripheral_Library_v2.1.16/XMCLib/src/xmc_usbd.c ****   }
 3760              		.loc 1 825 5 is_stmt 1 view .LVU1300
 825:/opt/XMClib/XMC_Peripheral_Library_v2.1.16/XMCLib/src/xmc_usbd.c ****   }
 3761              		.loc 1 825 11 is_stmt 0 view .LVU1301
 3762 02aa 0134     		adds	r4, r4, #1
 3763              	.LVL312:
 825:/opt/XMClib/XMC_Peripheral_Library_v2.1.16/XMCLib/src/xmc_usbd.c ****   }
 3764              		.loc 1 825 11 view .LVU1302
 3765 02ac E4B2     		uxtb	r4, r4
 3766              	.LVL313:
 767:/opt/XMClib/XMC_Peripheral_Library_v2.1.16/XMCLib/src/xmc_usbd.c ****   {
 3767              		.loc 1 767 10 is_stmt 1 view .LVU1303
 767:/opt/XMClib/XMC_Peripheral_Library_v2.1.16/XMCLib/src/xmc_usbd.c ****   {
 3768              		.loc 1 767 25 is_stmt 0 view .LVU1304
 3769 02ae A246     		mov	r10, r4
 767:/opt/XMClib/XMC_Peripheral_Library_v2.1.16/XMCLib/src/xmc_usbd.c ****   {
 3770              		.loc 1 767 10 view .LVU1305
 3771 02b0 58FA04F3 		asrs	r3, r8, r4
 3772 02b4 7BD0     		beq	.L297
 3773              	.LVL314:
 3774              	.L267:
 769:/opt/XMClib/XMC_Peripheral_Library_v2.1.16/XMCLib/src/xmc_usbd.c ****     temp = (uint16_t)temp1 & (uint16_t)0x1U;
 3775              		.loc 1 769 5 is_stmt 1 view .LVU1306
 770:/opt/XMClib/XMC_Peripheral_Library_v2.1.16/XMCLib/src/xmc_usbd.c ****     if ((uint16_t)temp)
 3776              		.loc 1 770 5 view .LVU1307
 771:/opt/XMClib/XMC_Peripheral_Library_v2.1.16/XMCLib/src/xmc_usbd.c ****     {
 3777              		.loc 1 771 5 view .LVU1308
 771:/opt/XMClib/XMC_Peripheral_Library_v2.1.16/XMCLib/src/xmc_usbd.c ****     {
 3778              		.loc 1 771 8 is_stmt 0 view .LVU1309
 3779 02b6 13F0010F 		tst	r3, #1
 3780 02ba F6D0     		beq	.L255
 773:/opt/XMClib/XMC_Peripheral_Library_v2.1.16/XMCLib/src/xmc_usbd.c **** 			inepint = (uint32_t)xmc_device.endpoint_in_register[ep_num]->diepint;
 3781              		.loc 1 773 7 is_stmt 1 view .LVU1310
 3782              	.LVL315:
 774:/opt/XMClib/XMC_Peripheral_Library_v2.1.16/XMCLib/src/xmc_usbd.c ****       diepint.d32 = inepint &
 3783              		.loc 1 774 4 view .LVU1311
 774:/opt/XMClib/XMC_Peripheral_Library_v2.1.16/XMCLib/src/xmc_usbd.c ****       diepint.d32 = inepint &
 3784              		.loc 1 774 55 is_stmt 0 view .LVU1312
 3785 02bc 0AF16A03 		add	r3, r10, #106
 3786              	.LVL316:
 774:/opt/XMClib/XMC_Peripheral_Library_v2.1.16/XMCLib/src/xmc_usbd.c ****       diepint.d32 = inepint &
 3787              		.loc 1 774 55 view .LVU1313
 3788 02c0 57F82320 		ldr	r2, [r7, r3, lsl #2]
 774:/opt/XMClib/XMC_Peripheral_Library_v2.1.16/XMCLib/src/xmc_usbd.c ****       diepint.d32 = inepint &
 3789              		.loc 1 774 12 view .LVU1314
 3790 02c4 9168     		ldr	r1, [r2, #8]
 3791              	.LVL317:
 775:/opt/XMClib/XMC_Peripheral_Library_v2.1.16/XMCLib/src/xmc_usbd.c ****       ((((uint32_t)((uint32_t)xmc_device.device_register->dtknqr4_fifoemptymsk >> ep->address_u.add
 3792              		.loc 1 775 7 is_stmt 1 view .LVU1315
 776:/opt/XMClib/XMC_Peripheral_Library_v2.1.16/XMCLib/src/xmc_usbd.c ****                      0x1U) << 7U) | (uint32_t)diepmsk.d32);
 3793              		.loc 1 776 41 is_stmt 0 view .LVU1316
 3794 02c6 D7F8A431 		ldr	r3, [r7, #420]
 776:/opt/XMClib/XMC_Peripheral_Library_v2.1.16/XMCLib/src/xmc_usbd.c ****                      0x1U) << 7U) | (uint32_t)diepmsk.d32);
 3795              		.loc 1 776 57 view .LVU1317
 3796 02ca 5E6B     		ldr	r6, [r3, #52]
 776:/opt/XMClib/XMC_Peripheral_Library_v2.1.16/XMCLib/src/xmc_usbd.c ****                      0x1U) << 7U) | (uint32_t)diepmsk.d32);
 3797              		.loc 1 776 107 view .LVU1318
 3798 02cc 09FB0AF3 		mul	r3, r9, r10
 3799 02d0 FB5C     		ldrb	r3, [r7, r3]	@ zero_extendqisi2
 3800 02d2 03F00F03 		and	r3, r3, #15
 776:/opt/XMClib/XMC_Peripheral_Library_v2.1.16/XMCLib/src/xmc_usbd.c ****                      0x1U) << 7U) | (uint32_t)diepmsk.d32);
 3801              		.loc 1 776 10 view .LVU1319
 3802 02d6 DE40     		lsrs	r6, r6, r3
 777:/opt/XMClib/XMC_Peripheral_Library_v2.1.16/XMCLib/src/xmc_usbd.c ****       if(obj->usbd_transfer_mode == XMC_USBD_USE_DMA)
 3803              		.loc 1 777 28 view .LVU1320
 3804 02d8 F601     		lsls	r6, r6, #7
 3805 02da F6B2     		uxtb	r6, r6
 777:/opt/XMClib/XMC_Peripheral_Library_v2.1.16/XMCLib/src/xmc_usbd.c ****       if(obj->usbd_transfer_mode == XMC_USBD_USE_DMA)
 3806              		.loc 1 777 35 view .LVU1321
 3807 02dc 2E43     		orrs	r6, r6, r5
 775:/opt/XMClib/XMC_Peripheral_Library_v2.1.16/XMCLib/src/xmc_usbd.c ****       ((((uint32_t)((uint32_t)xmc_device.device_register->dtknqr4_fifoemptymsk >> ep->address_u.add
 3808              		.loc 1 775 29 view .LVU1322
 3809 02de 0E40     		ands	r6, r6, r1
 3810              	.LVL318:
 778:/opt/XMClib/XMC_Peripheral_Library_v2.1.16/XMCLib/src/xmc_usbd.c ****       {
 3811              		.loc 1 778 7 is_stmt 1 view .LVU1323
 778:/opt/XMClib/XMC_Peripheral_Library_v2.1.16/XMCLib/src/xmc_usbd.c ****       {
 3812              		.loc 1 778 13 is_stmt 0 view .LVU1324
 3813 02e0 9BF80D10 		ldrb	r1, [fp, #13]	@ zero_extendqisi2
 3814              	.LVL319:
 778:/opt/XMClib/XMC_Peripheral_Library_v2.1.16/XMCLib/src/xmc_usbd.c ****       {
 3815              		.loc 1 778 9 view .LVU1325
 3816 02e4 0029     		cmp	r1, #0
 3817 02e6 BBD1     		bne	.L256
 780:/opt/XMClib/XMC_Peripheral_Library_v2.1.16/XMCLib/src/xmc_usbd.c ****       }
 3818              		.loc 1 780 9 is_stmt 1 view .LVU1326
 780:/opt/XMClib/XMC_Peripheral_Library_v2.1.16/XMCLib/src/xmc_usbd.c ****       }
 3819              		.loc 1 780 63 is_stmt 0 view .LVU1327
 3820 02e8 1369     		ldr	r3, [r2, #16]
 3821              	.LVL320:
 780:/opt/XMClib/XMC_Peripheral_Library_v2.1.16/XMCLib/src/xmc_usbd.c ****       }
 3822              		.loc 1 780 63 view .LVU1328
 3823 02ea 0193     		str	r3, [sp, #4]
 3824              	.LVL321:
 782:/opt/XMClib/XMC_Peripheral_Library_v2.1.16/XMCLib/src/xmc_usbd.c ****       {
 3825              		.loc 1 782 7 is_stmt 1 view .LVU1329
 792:/opt/XMClib/XMC_Peripheral_Library_v2.1.16/XMCLib/src/xmc_usbd.c ****       {
 3826              		.loc 1 792 7 view .LVU1330
 792:/opt/XMClib/XMC_Peripheral_Library_v2.1.16/XMCLib/src/xmc_usbd.c ****       {
 3827              		.loc 1 792 10 is_stmt 0 view .LVU1331
 3828 02ec 16F0010F 		tst	r6, #1
 3829 02f0 D6D0     		beq	.L258
 3830              	.LVL322:
 3831              	.L257:
 797:/opt/XMClib/XMC_Peripheral_Library_v2.1.16/XMCLib/src/xmc_usbd.c ****           {
 3832              		.loc 1 797 11 is_stmt 1 view .LVU1332
 797:/opt/XMClib/XMC_Peripheral_Library_v2.1.16/XMCLib/src/xmc_usbd.c ****           {
 3833              		.loc 1 797 14 is_stmt 0 view .LVU1333
 3834 02f2 019B     		ldr	r3, [sp, #4]
 3835 02f4 33F06043 		bics	r3, r3, #-536870912
 3836 02f8 BBD1     		bne	.L264
 3837              	.LBB58:
 799:/opt/XMClib/XMC_Peripheral_Library_v2.1.16/XMCLib/src/xmc_usbd.c ****             ep->xferCount += Bytes;
 3838              		.loc 1 799 13 is_stmt 1 view .LVU1334
 799:/opt/XMClib/XMC_Peripheral_Library_v2.1.16/XMCLib/src/xmc_usbd.c ****             ep->xferCount += Bytes;
 3839              		.loc 1 799 32 is_stmt 0 view .LVU1335
 3840 02fa 8A4B     		ldr	r3, .L302
 3841 02fc 3422     		movs	r2, #52
 3842 02fe 02FB0A33 		mla	r3, r2, r10, r3
 3843 0302 986A     		ldr	r0, [r3, #40]
 3844              	.LVL323:
 799:/opt/XMClib/XMC_Peripheral_Library_v2.1.16/XMCLib/src/xmc_usbd.c ****             ep->xferCount += Bytes;
 3845              		.loc 1 799 22 view .LVU1336
 3846 0304 DA6A     		ldr	r2, [r3, #44]
 3847 0306 811A     		subs	r1, r0, r2
 3848              	.LVL324:
 800:/opt/XMClib/XMC_Peripheral_Library_v2.1.16/XMCLib/src/xmc_usbd.c ****             ep->xferBuffer += Bytes;
 3849              		.loc 1 800 13 is_stmt 1 view .LVU1337
 800:/opt/XMClib/XMC_Peripheral_Library_v2.1.16/XMCLib/src/xmc_usbd.c ****             ep->xferBuffer += Bytes;
 3850              		.loc 1 800 27 is_stmt 0 view .LVU1338
 3851 0308 D862     		str	r0, [r3, #44]
 801:/opt/XMClib/XMC_Peripheral_Library_v2.1.16/XMCLib/src/xmc_usbd.c ****           }
 3852              		.loc 1 801 13 is_stmt 1 view .LVU1339
 801:/opt/XMClib/XMC_Peripheral_Library_v2.1.16/XMCLib/src/xmc_usbd.c ****           }
 3853              		.loc 1 801 28 is_stmt 0 view .LVU1340
 3854 030a 5A6A     		ldr	r2, [r3, #36]
 3855 030c 0A44     		add	r2, r2, r1
 3856 030e 5A62     		str	r2, [r3, #36]
 3857 0310 AFE7     		b	.L264
 3858              	.LVL325:
 3859              	.L295:
 801:/opt/XMClib/XMC_Peripheral_Library_v2.1.16/XMCLib/src/xmc_usbd.c ****           }
 3860              		.loc 1 801 28 view .LVU1341
 3861              	.LBE58:
 3862              	.LBB59:
 786:/opt/XMClib/XMC_Peripheral_Library_v2.1.16/XMCLib/src/xmc_usbd.c ****           bytes = XMC_USBD_lWriteFifo(ep);
 3863              		.loc 1 786 11 is_stmt 1 view .LVU1342
 787:/opt/XMClib/XMC_Peripheral_Library_v2.1.16/XMCLib/src/xmc_usbd.c ****           ep->xferCount += bytes;
 3864              		.loc 1 787 11 view .LVU1343
 3865              	.LBB60:
 3866              	.LBI60:
 258:/opt/XMClib/XMC_Peripheral_Library_v2.1.16/XMCLib/src/xmc_usbd.c **** {
 3867              		.loc 1 258 17 view .LVU1344
 3868              	.LBB61:
 260:/opt/XMClib/XMC_Peripheral_Library_v2.1.16/XMCLib/src/xmc_usbd.c ****   volatile uint32_t *fifo;
 3869              		.loc 1 260 3 view .LVU1345
 261:/opt/XMClib/XMC_Peripheral_Library_v2.1.16/XMCLib/src/xmc_usbd.c ****   uint32_t byte_count;
 3870              		.loc 1 261 3 view .LVU1346
 262:/opt/XMClib/XMC_Peripheral_Library_v2.1.16/XMCLib/src/xmc_usbd.c ****   uint32_t word_count;
 3871              		.loc 1 262 3 view .LVU1347
 263:/opt/XMClib/XMC_Peripheral_Library_v2.1.16/XMCLib/src/xmc_usbd.c ****   uint32_t result;
 3872              		.loc 1 263 3 view .LVU1348
 264:/opt/XMClib/XMC_Peripheral_Library_v2.1.16/XMCLib/src/xmc_usbd.c ****   uint32_t i;
 3873              		.loc 1 264 3 view .LVU1349
 265:/opt/XMClib/XMC_Peripheral_Library_v2.1.16/XMCLib/src/xmc_usbd.c ****   fifo = xmc_device.fifo[ep->address_u.address_st.number]; /* fifo */
 3874              		.loc 1 265 3 view .LVU1350
 266:/opt/XMClib/XMC_Peripheral_Library_v2.1.16/XMCLib/src/xmc_usbd.c ****   freeSpace.d32 = xmc_device.endpoint_in_register[ep->address_u.address_st.number]->dtxfsts;
 3875              		.loc 1 266 3 view .LVU1351
 267:/opt/XMClib/XMC_Peripheral_Library_v2.1.16/XMCLib/src/xmc_usbd.c ****   /* calculate the length and the amount of dwords to copy based on the fifo status */
 3876              		.loc 1 267 3 view .LVU1352
 267:/opt/XMClib/XMC_Peripheral_Library_v2.1.16/XMCLib/src/xmc_usbd.c ****   /* calculate the length and the amount of dwords to copy based on the fifo status */
 3877              		.loc 1 267 50 is_stmt 0 view .LVU1353
 3878 0312 844A     		ldr	r2, .L302
 3879 0314 03F16A01 		add	r1, r3, #106
 3880 0318 52F82110 		ldr	r1, [r2, r1, lsl #2]
 267:/opt/XMClib/XMC_Peripheral_Library_v2.1.16/XMCLib/src/xmc_usbd.c ****   /* calculate the length and the amount of dwords to copy based on the fifo status */
 3881              		.loc 1 267 83 view .LVU1354
 3882 031c 8969     		ldr	r1, [r1, #24]
 269:/opt/XMClib/XMC_Peripheral_Library_v2.1.16/XMCLib/src/xmc_usbd.c ****   if (!byte_count)
 3883              		.loc 1 269 3 is_stmt 1 view .LVU1355
 269:/opt/XMClib/XMC_Peripheral_Library_v2.1.16/XMCLib/src/xmc_usbd.c ****   if (!byte_count)
 3884              		.loc 1 269 18 is_stmt 0 view .LVU1356
 3885 031e 3420     		movs	r0, #52
 3886              	.LVL326:
 269:/opt/XMClib/XMC_Peripheral_Library_v2.1.16/XMCLib/src/xmc_usbd.c ****   if (!byte_count)
 3887              		.loc 1 269 18 view .LVU1357
 3888 0320 00FB0A22 		mla	r2, r0, r10, r2
 269:/opt/XMClib/XMC_Peripheral_Library_v2.1.16/XMCLib/src/xmc_usbd.c ****   if (!byte_count)
 3889              		.loc 1 269 14 view .LVU1358
 3890 0324 906A     		ldr	r0, [r2, #40]
 3891 0326 D26A     		ldr	r2, [r2, #44]
 3892              	.LVL327:
 270:/opt/XMClib/XMC_Peripheral_Library_v2.1.16/XMCLib/src/xmc_usbd.c ****   {
 3893              		.loc 1 270 3 is_stmt 1 view .LVU1359
 270:/opt/XMClib/XMC_Peripheral_Library_v2.1.16/XMCLib/src/xmc_usbd.c ****   {
 3894              		.loc 1 270 6 is_stmt 0 view .LVU1360
 3895 0328 B0EB020E 		subs	lr, r0, r2
 3896              	.LVL328:
 270:/opt/XMClib/XMC_Peripheral_Library_v2.1.16/XMCLib/src/xmc_usbd.c ****   {
 3897              		.loc 1 270 6 view .LVU1361
 3898 032c 1CD0     		beq	.L261
 277:/opt/XMClib/XMC_Peripheral_Library_v2.1.16/XMCLib/src/xmc_usbd.c ****     if (word_count > (uint32_t)freeSpace.b.txfspcavail )
 3899              		.loc 1 277 5 is_stmt 1 view .LVU1362
 277:/opt/XMClib/XMC_Peripheral_Library_v2.1.16/XMCLib/src/xmc_usbd.c ****     if (word_count > (uint32_t)freeSpace.b.txfspcavail )
 3900              		.loc 1 277 40 is_stmt 0 view .LVU1363
 3901 032e 0EF10302 		add	r2, lr, #3
 277:/opt/XMClib/XMC_Peripheral_Library_v2.1.16/XMCLib/src/xmc_usbd.c ****     if (word_count > (uint32_t)freeSpace.b.txfspcavail )
 3902              		.loc 1 277 16 view .LVU1364
 3903 0332 9008     		lsrs	r0, r2, #2
 3904              	.LVL329:
 278:/opt/XMClib/XMC_Peripheral_Library_v2.1.16/XMCLib/src/xmc_usbd.c ****     {
 3905              		.loc 1 278 5 is_stmt 1 view .LVU1365
 3906 0334 89B2     		uxth	r1, r1
 278:/opt/XMClib/XMC_Peripheral_Library_v2.1.16/XMCLib/src/xmc_usbd.c ****     {
 3907              		.loc 1 278 8 is_stmt 0 view .LVU1366
 3908 0336 B1EB920F 		cmp	r1, r2, lsr #2
 280:/opt/XMClib/XMC_Peripheral_Library_v2.1.16/XMCLib/src/xmc_usbd.c ****       byte_count = (uint32_t)word_count << (uint32_t)2U;
 3909              		.loc 1 280 7 is_stmt 1 view .LVU1367
 3910              	.LVL330:
 281:/opt/XMClib/XMC_Peripheral_Library_v2.1.16/XMCLib/src/xmc_usbd.c ****     }
 3911              		.loc 1 281 7 view .LVU1368
 281:/opt/XMClib/XMC_Peripheral_Library_v2.1.16/XMCLib/src/xmc_usbd.c ****     }
 3912              		.loc 1 281 18 is_stmt 0 view .LVU1369
 3913 033a 3CBF     		itt	cc
 3914 033c 4FEA810E 		lslcc	lr, r1, #2
 3915              	.LVL331:
 280:/opt/XMClib/XMC_Peripheral_Library_v2.1.16/XMCLib/src/xmc_usbd.c ****       byte_count = (uint32_t)word_count << (uint32_t)2U;
 3916              		.loc 1 280 18 view .LVU1370
 3917 0340 0846     		movcc	r0, r1
 3918              	.LVL332:
 285:/opt/XMClib/XMC_Peripheral_Library_v2.1.16/XMCLib/src/xmc_usbd.c ****     {
 3919              		.loc 1 285 5 is_stmt 1 view .LVU1371
 285:/opt/XMClib/XMC_Peripheral_Library_v2.1.16/XMCLib/src/xmc_usbd.c ****     {
 3920              		.loc 1 285 20 discriminator 1 view .LVU1372
 3921 0342 88B1     		cbz	r0, .L261
 266:/opt/XMClib/XMC_Peripheral_Library_v2.1.16/XMCLib/src/xmc_usbd.c ****   freeSpace.d32 = xmc_device.endpoint_in_register[ep->address_u.address_st.number]->dtxfsts;
 3922              		.loc 1 266 8 is_stmt 0 view .LVU1373
 3923 0344 7833     		adds	r3, r3, #120
 3924              	.LVL333:
 266:/opt/XMClib/XMC_Peripheral_Library_v2.1.16/XMCLib/src/xmc_usbd.c ****   freeSpace.d32 = xmc_device.endpoint_in_register[ep->address_u.address_st.number]->dtxfsts;
 3925              		.loc 1 266 8 view .LVU1374
 3926 0346 774A     		ldr	r2, .L302
 3927 0348 52F823C0 		ldr	ip, [r2, r3, lsl #2]
 285:/opt/XMClib/XMC_Peripheral_Library_v2.1.16/XMCLib/src/xmc_usbd.c ****     {
 3928              		.loc 1 285 12 view .LVU1375
 3929 034c 0021     		movs	r1, #0
 287:/opt/XMClib/XMC_Peripheral_Library_v2.1.16/XMCLib/src/xmc_usbd.c ****       i++;
 3930              		.loc 1 287 29 view .LVU1376
 3931 034e 3423     		movs	r3, #52
 3932 0350 03FB0A22 		mla	r2, r3, r10, r2
 3933              	.LVL334:
 3934              	.L263:
 287:/opt/XMClib/XMC_Peripheral_Library_v2.1.16/XMCLib/src/xmc_usbd.c ****       i++;
 3935              		.loc 1 287 7 is_stmt 1 view .LVU1377
 287:/opt/XMClib/XMC_Peripheral_Library_v2.1.16/XMCLib/src/xmc_usbd.c ****       i++;
 3936              		.loc 1 287 15 is_stmt 0 view .LVU1378
 3937 0354 536A     		ldr	r3, [r2, #36]
 3938 0356 1B68     		ldr	r3, [r3]
 287:/opt/XMClib/XMC_Peripheral_Library_v2.1.16/XMCLib/src/xmc_usbd.c ****       i++;
 3939              		.loc 1 287 13 view .LVU1379
 3940 0358 CCF80030 		str	r3, [ip]
 288:/opt/XMClib/XMC_Peripheral_Library_v2.1.16/XMCLib/src/xmc_usbd.c ****     }
 3941              		.loc 1 288 7 is_stmt 1 view .LVU1380
 288:/opt/XMClib/XMC_Peripheral_Library_v2.1.16/XMCLib/src/xmc_usbd.c ****     }
 3942              		.loc 1 288 8 is_stmt 0 view .LVU1381
 3943 035c 0131     		adds	r1, r1, #1
 3944              	.LVL335:
 285:/opt/XMClib/XMC_Peripheral_Library_v2.1.16/XMCLib/src/xmc_usbd.c ****     {
 3945              		.loc 1 285 47 is_stmt 1 discriminator 3 view .LVU1382
 3946 035e 536A     		ldr	r3, [r2, #36]
 3947 0360 0433     		adds	r3, r3, #4
 3948 0362 5362     		str	r3, [r2, #36]
 285:/opt/XMClib/XMC_Peripheral_Library_v2.1.16/XMCLib/src/xmc_usbd.c ****     {
 3949              		.loc 1 285 20 discriminator 1 view .LVU1383
 3950 0364 8142     		cmp	r1, r0
 3951 0366 F5D1     		bne	.L263
 3952              	.LVL336:
 3953              	.L261:
 292:/opt/XMClib/XMC_Peripheral_Library_v2.1.16/XMCLib/src/xmc_usbd.c **** }
 3954              		.loc 1 292 3 view .LVU1384
 292:/opt/XMClib/XMC_Peripheral_Library_v2.1.16/XMCLib/src/xmc_usbd.c **** }
 3955              		.loc 1 292 3 is_stmt 0 view .LVU1385
 3956              	.LBE61:
 3957              	.LBE60:
 788:/opt/XMClib/XMC_Peripheral_Library_v2.1.16/XMCLib/src/xmc_usbd.c ****           ep->xferBuffer += bytes;
 3958              		.loc 1 788 11 is_stmt 1 view .LVU1386
 788:/opt/XMClib/XMC_Peripheral_Library_v2.1.16/XMCLib/src/xmc_usbd.c ****           ep->xferBuffer += bytes;
 3959              		.loc 1 788 25 is_stmt 0 view .LVU1387
 3960 0368 6E4B     		ldr	r3, .L302
 3961 036a 3422     		movs	r2, #52
 3962 036c 02FB0A33 		mla	r3, r2, r10, r3
 3963 0370 DA6A     		ldr	r2, [r3, #44]
 3964 0372 7244     		add	r2, r2, lr
 3965 0374 DA62     		str	r2, [r3, #44]
 789:/opt/XMClib/XMC_Peripheral_Library_v2.1.16/XMCLib/src/xmc_usbd.c ****         }
 3966              		.loc 1 789 11 is_stmt 1 view .LVU1388
 789:/opt/XMClib/XMC_Peripheral_Library_v2.1.16/XMCLib/src/xmc_usbd.c ****         }
 3967              		.loc 1 789 26 is_stmt 0 view .LVU1389
 3968 0376 5A6A     		ldr	r2, [r3, #36]
 3969 0378 7244     		add	r2, r2, lr
 3970 037a 5A62     		str	r2, [r3, #36]
 3971              	.LBE59:
 792:/opt/XMClib/XMC_Peripheral_Library_v2.1.16/XMCLib/src/xmc_usbd.c ****       {
 3972              		.loc 1 792 7 is_stmt 1 view .LVU1390
 792:/opt/XMClib/XMC_Peripheral_Library_v2.1.16/XMCLib/src/xmc_usbd.c ****       {
 3973              		.loc 1 792 10 is_stmt 0 view .LVU1391
 3974 037c 16F0010F 		tst	r6, #1
 3975 0380 8ED0     		beq	.L258
 794:/opt/XMClib/XMC_Peripheral_Library_v2.1.16/XMCLib/src/xmc_usbd.c ****         {
 3976              		.loc 1 794 9 is_stmt 1 view .LVU1392
 794:/opt/XMClib/XMC_Peripheral_Library_v2.1.16/XMCLib/src/xmc_usbd.c ****         {
 3977              		.loc 1 794 11 is_stmt 0 view .LVU1393
 3978 0382 9BF80D30 		ldrb	r3, [fp, #13]	@ zero_extendqisi2
 3979 0386 002B     		cmp	r3, #0
 3980 0388 7FF473AF 		bne	.L264
 3981 038c B1E7     		b	.L257
 3982              	.LVL337:
 3983              	.L296:
 810:/opt/XMClib/XMC_Peripheral_Library_v2.1.16/XMCLib/src/xmc_usbd.c ****             (uint32_t)(xmc_device.device_register->dtknqr4_fifoemptymsk & ~(((uint32_t)1U << ep_num
 3984              		.loc 1 810 13 is_stmt 1 view .LVU1394
 811:/opt/XMClib/XMC_Peripheral_Library_v2.1.16/XMCLib/src/xmc_usbd.c ****           }
 3985              		.loc 1 811 34 is_stmt 0 view .LVU1395
 3986 038e 654B     		ldr	r3, .L302
 3987 0390 D3F8A411 		ldr	r1, [r3, #420]
 811:/opt/XMClib/XMC_Peripheral_Library_v2.1.16/XMCLib/src/xmc_usbd.c ****           }
 3988              		.loc 1 811 50 view .LVU1396
 3989 0394 4B6B     		ldr	r3, [r1, #52]
 811:/opt/XMClib/XMC_Peripheral_Library_v2.1.16/XMCLib/src/xmc_usbd.c ****           }
 3990              		.loc 1 811 91 view .LVU1397
 3991 0396 0122     		movs	r2, #1
 3992 0398 02FA0AF2 		lsl	r2, r2, r10
 811:/opt/XMClib/XMC_Peripheral_Library_v2.1.16/XMCLib/src/xmc_usbd.c ****           }
 3993              		.loc 1 811 13 view .LVU1398
 3994 039c 23EA0203 		bic	r3, r3, r2
 810:/opt/XMClib/XMC_Peripheral_Library_v2.1.16/XMCLib/src/xmc_usbd.c ****             (uint32_t)(xmc_device.device_register->dtknqr4_fifoemptymsk & ~(((uint32_t)1U << ep_num
 3995              		.loc 1 810 62 view .LVU1399
 3996 03a0 4B63     		str	r3, [r1, #52]
 3997 03a2 77E7     		b	.L266
 3998              	.LVL338:
 3999              	.L265:
 818:/opt/XMClib/XMC_Peripheral_Library_v2.1.16/XMCLib/src/xmc_usbd.c ****         }
 4000              		.loc 1 818 11 is_stmt 1 view .LVU1400
 4001 03a4 09FB0A70 		mla	r0, r9, r10, r7
 4002              	.LVL339:
 818:/opt/XMClib/XMC_Peripheral_Library_v2.1.16/XMCLib/src/xmc_usbd.c ****         }
 4003              		.loc 1 818 11 is_stmt 0 view .LVU1401
 4004 03a8 FFF7FEFF 		bl	XMC_USBD_lStartWriteXfer
 4005              	.LVL340:
 4006 03ac 78E7     		b	.L258
 4007              	.LVL341:
 4008              	.L297:
 818:/opt/XMClib/XMC_Peripheral_Library_v2.1.16/XMCLib/src/xmc_usbd.c ****         }
 4009              		.loc 1 818 11 view .LVU1402
 4010 03ae DDF808A0 		ldr	r10, [sp, #8]
 4011 03b2 039D     		ldr	r5, [sp, #12]
 4012              	.LVL342:
 4013              	.L254:
 827:/opt/XMClib/XMC_Peripheral_Library_v2.1.16/XMCLib/src/xmc_usbd.c **** }
 4014              		.loc 1 827 3 is_stmt 1 view .LVU1403
 4015 03b4 0E20     		movs	r0, #14
 4016              	.LVL343:
 827:/opt/XMClib/XMC_Peripheral_Library_v2.1.16/XMCLib/src/xmc_usbd.c **** }
 4017              		.loc 1 827 3 is_stmt 0 view .LVU1404
 4018 03b6 FFF7FEFF 		bl	XMC_USBD_ClearEvent
 4019              	.LVL344:
 828:/opt/XMClib/XMC_Peripheral_Library_v2.1.16/XMCLib/src/xmc_usbd.c **** 
 4020              		.loc 1 828 1 view .LVU1405
 4021 03ba 6DE6     		b	.L253
 4022              	.LVL345:
 4023              	.L292:
 828:/opt/XMClib/XMC_Peripheral_Library_v2.1.16/XMCLib/src/xmc_usbd.c **** 
 4024              		.loc 1 828 1 view .LVU1406
 4025              	.LBE55:
 4026              	.LBE54:
 925:/opt/XMClib/XMC_Peripheral_Library_v2.1.16/XMCLib/src/xmc_usbd.c ****   }
 4027              		.loc 1 925 3 is_stmt 1 view .LVU1407
 4028              	.LBB63:
 4029              	.LBI63:
 654:/opt/XMClib/XMC_Peripheral_Library_v2.1.16/XMCLib/src/xmc_usbd.c **** {
 4030              		.loc 1 654 13 view .LVU1408
 4031              	.LBB64:
 656:/opt/XMClib/XMC_Peripheral_Library_v2.1.16/XMCLib/src/xmc_usbd.c ****   daint_data_t daintmsk;
 4032              		.loc 1 656 3 view .LVU1409
 657:/opt/XMClib/XMC_Peripheral_Library_v2.1.16/XMCLib/src/xmc_usbd.c ****   doepmsk_data_t doepmsk;
 4033              		.loc 1 657 3 view .LVU1410
 658:/opt/XMClib/XMC_Peripheral_Library_v2.1.16/XMCLib/src/xmc_usbd.c ****   doepint_data_t doepint;
 4034              		.loc 1 658 3 view .LVU1411
 659:/opt/XMClib/XMC_Peripheral_Library_v2.1.16/XMCLib/src/xmc_usbd.c ****   deptsiz_data_t doeptsiz;
 4035              		.loc 1 659 3 view .LVU1412
 660:/opt/XMClib/XMC_Peripheral_Library_v2.1.16/XMCLib/src/xmc_usbd.c ****   XMC_USBD_EP_t *ep;
 4036              		.loc 1 660 3 view .LVU1413
 661:/opt/XMClib/XMC_Peripheral_Library_v2.1.16/XMCLib/src/xmc_usbd.c ****   uint16_t temp;
 4037              		.loc 1 661 3 view .LVU1414
 662:/opt/XMClib/XMC_Peripheral_Library_v2.1.16/XMCLib/src/xmc_usbd.c ****   uint16_t temp1;
 4038              		.loc 1 662 3 view .LVU1415
 663:/opt/XMClib/XMC_Peripheral_Library_v2.1.16/XMCLib/src/xmc_usbd.c ****   uint16_t mask;
 4039              		.loc 1 663 3 view .LVU1416
 664:/opt/XMClib/XMC_Peripheral_Library_v2.1.16/XMCLib/src/xmc_usbd.c ****   uint8_t ep_num;
 4040              		.loc 1 664 3 view .LVU1417
 665:/opt/XMClib/XMC_Peripheral_Library_v2.1.16/XMCLib/src/xmc_usbd.c **** 	
 4041              		.loc 1 665 3 view .LVU1418
 667:/opt/XMClib/XMC_Peripheral_Library_v2.1.16/XMCLib/src/xmc_usbd.c ****   
 4042              		.loc 1 667 3 view .LVU1419
 667:/opt/XMClib/XMC_Peripheral_Library_v2.1.16/XMCLib/src/xmc_usbd.c ****   
 4043              		.loc 1 667 25 is_stmt 0 view .LVU1420
 4044 03bc 594B     		ldr	r3, .L302
 4045 03be D3F8A421 		ldr	r2, [r3, #420]
 667:/opt/XMClib/XMC_Peripheral_Library_v2.1.16/XMCLib/src/xmc_usbd.c ****   
 4046              		.loc 1 667 41 view .LVU1421
 4047 03c2 9169     		ldr	r1, [r2, #24]
 669:/opt/XMClib/XMC_Peripheral_Library_v2.1.16/XMCLib/src/xmc_usbd.c ****   
 4048              		.loc 1 669 3 is_stmt 1 view .LVU1422
 669:/opt/XMClib/XMC_Peripheral_Library_v2.1.16/XMCLib/src/xmc_usbd.c ****   
 4049              		.loc 1 669 44 is_stmt 0 view .LVU1423
 4050 03c4 D369     		ldr	r3, [r2, #28]
 671:/opt/XMClib/XMC_Peripheral_Library_v2.1.16/XMCLib/src/xmc_usbd.c ****   
 4051              		.loc 1 671 3 is_stmt 1 view .LVU1424
 671:/opt/XMClib/XMC_Peripheral_Library_v2.1.16/XMCLib/src/xmc_usbd.c ****   
 4052              		.loc 1 671 43 is_stmt 0 view .LVU1425
 4053 03c6 5269     		ldr	r2, [r2, #20]
 4054              	.LVL346:
 673:/opt/XMClib/XMC_Peripheral_Library_v2.1.16/XMCLib/src/xmc_usbd.c ****   ep_num = 0U;
 4055              		.loc 1 673 3 is_stmt 1 view .LVU1426
 674:/opt/XMClib/XMC_Peripheral_Library_v2.1.16/XMCLib/src/xmc_usbd.c ****   doeptsiz.d32 = 0U;
 4056              		.loc 1 674 3 view .LVU1427
 675:/opt/XMClib/XMC_Peripheral_Library_v2.1.16/XMCLib/src/xmc_usbd.c ****  
 4057              		.loc 1 675 3 view .LVU1428
 675:/opt/XMClib/XMC_Peripheral_Library_v2.1.16/XMCLib/src/xmc_usbd.c ****  
 4058              		.loc 1 675 16 is_stmt 0 view .LVU1429
 4059 03c8 0020     		movs	r0, #0
 4060              	.LVL347:
 675:/opt/XMClib/XMC_Peripheral_Library_v2.1.16/XMCLib/src/xmc_usbd.c ****  
 4061              		.loc 1 675 16 view .LVU1430
 4062 03ca 0190     		str	r0, [sp, #4]
 677:/opt/XMClib/XMC_Peripheral_Library_v2.1.16/XMCLib/src/xmc_usbd.c ****   {
 4063              		.loc 1 677 3 is_stmt 1 view .LVU1431
 677:/opt/XMClib/XMC_Peripheral_Library_v2.1.16/XMCLib/src/xmc_usbd.c ****   {
 4064              		.loc 1 677 10 view .LVU1432
 673:/opt/XMClib/XMC_Peripheral_Library_v2.1.16/XMCLib/src/xmc_usbd.c ****   ep_num = 0U;
 4065              		.loc 1 673 8 is_stmt 0 view .LVU1433
 4066 03cc C3F30F48 		ubfx	r8, r3, #16, #16
 677:/opt/XMClib/XMC_Peripheral_Library_v2.1.16/XMCLib/src/xmc_usbd.c ****   {
 4067              		.loc 1 677 10 view .LVU1434
 4068 03d0 18EA1148 		ands	r8, r8, r1, lsr #16
 4069 03d4 00F08680 		beq	.L269
 677:/opt/XMClib/XMC_Peripheral_Library_v2.1.16/XMCLib/src/xmc_usbd.c ****   {
 4070              		.loc 1 677 25 view .LVU1435
 4071 03d8 4346     		mov	r3, r8
 4072              	.LVL348:
 674:/opt/XMClib/XMC_Peripheral_Library_v2.1.16/XMCLib/src/xmc_usbd.c ****   doeptsiz.d32 = 0U;
 4073              		.loc 1 674 10 view .LVU1436
 4074 03da 0446     		mov	r4, r0
 677:/opt/XMClib/XMC_Peripheral_Library_v2.1.16/XMCLib/src/xmc_usbd.c ****   {
 4075              		.loc 1 677 25 view .LVU1437
 4076 03dc 0546     		mov	r5, r0
 685:/opt/XMClib/XMC_Peripheral_Library_v2.1.16/XMCLib/src/xmc_usbd.c ****       if(obj->usbd_transfer_mode == XMC_USBD_USE_DMA)
 4077              		.loc 1 685 53 view .LVU1438
 4078 03de 514F     		ldr	r7, .L302
 718:/opt/XMClib/XMC_Peripheral_Library_v2.1.16/XMCLib/src/xmc_usbd.c ****         {
 4079              		.loc 1 718 15 view .LVU1439
 4080 03e0 4FF03409 		mov	r9, #52
 722:/opt/XMClib/XMC_Peripheral_Library_v2.1.16/XMCLib/src/xmc_usbd.c ****         }
 4081              		.loc 1 722 11 view .LVU1440
 4082 03e4 CDF80CA0 		str	r10, [sp, #12]
 4083 03e8 0292     		str	r2, [sp, #8]
 4084 03ea 26E0     		b	.L278
 4085              	.LVL349:
 4086              	.L299:
 703:/opt/XMClib/XMC_Peripheral_Library_v2.1.16/XMCLib/src/xmc_usbd.c **** 		}
 4087              		.loc 1 703 4 is_stmt 1 view .LVU1441
 703:/opt/XMClib/XMC_Peripheral_Library_v2.1.16/XMCLib/src/xmc_usbd.c **** 		}
 4088              		.loc 1 703 26 is_stmt 0 view .LVU1442
 4089 03ec 4D4B     		ldr	r3, .L302
 4090 03ee 3422     		movs	r2, #52
 4091 03f0 02FB0533 		mla	r3, r2, r5, r3
 4092 03f4 1A69     		ldr	r2, [r3, #16]
 4093 03f6 D96A     		ldr	r1, [r3, #44]
 4094 03f8 0A44     		add	r2, r2, r1
 4095 03fa 1A61     		str	r2, [r3, #16]
 4096 03fc 45E0     		b	.L274
 4097              	.L276:
 718:/opt/XMClib/XMC_Peripheral_Library_v2.1.16/XMCLib/src/xmc_usbd.c ****         {
 4098              		.loc 1 718 9 is_stmt 1 view .LVU1443
 718:/opt/XMClib/XMC_Peripheral_Library_v2.1.16/XMCLib/src/xmc_usbd.c ****         {
 4099              		.loc 1 718 15 is_stmt 0 view .LVU1444
 4100 03fe 09FB0573 		mla	r3, r9, r5, r7
 718:/opt/XMClib/XMC_Peripheral_Library_v2.1.16/XMCLib/src/xmc_usbd.c ****         {
 4101              		.loc 1 718 12 view .LVU1445
 4102 0402 1A6B     		ldr	r2, [r3, #48]
 4103 0404 9B6A     		ldr	r3, [r3, #40]
 4104 0406 9A42     		cmp	r2, r3
 4105 0408 65D1     		bne	.L277
 720:/opt/XMClib/XMC_Peripheral_Library_v2.1.16/XMCLib/src/xmc_usbd.c ****           ep->outInUse = 0U;
 4106              		.loc 1 720 11 is_stmt 1 view .LVU1446
 720:/opt/XMClib/XMC_Peripheral_Library_v2.1.16/XMCLib/src/xmc_usbd.c ****           ep->outInUse = 0U;
 4107              		.loc 1 720 33 is_stmt 0 view .LVU1447
 4108 040a 09FB0573 		mla	r3, r9, r5, r7
 4109 040e DA6A     		ldr	r2, [r3, #44]
 4110 0410 1A61     		str	r2, [r3, #16]
 721:/opt/XMClib/XMC_Peripheral_Library_v2.1.16/XMCLib/src/xmc_usbd.c ****           xmc_device.EndpointEvent_cb(ep_num,XMC_USBD_EP_EVENT_OUT);
 4111              		.loc 1 721 11 is_stmt 1 view .LVU1448
 721:/opt/XMClib/XMC_Peripheral_Library_v2.1.16/XMCLib/src/xmc_usbd.c ****           xmc_device.EndpointEvent_cb(ep_num,XMC_USBD_EP_EVENT_OUT);
 4112              		.loc 1 721 24 is_stmt 0 view .LVU1449
 4113 0412 5A68     		ldr	r2, [r3, #4]
 4114 0414 22F01002 		bic	r2, r2, #16
 4115 0418 5A60     		str	r2, [r3, #4]
 722:/opt/XMClib/XMC_Peripheral_Library_v2.1.16/XMCLib/src/xmc_usbd.c ****         }
 4116              		.loc 1 722 11 is_stmt 1 view .LVU1450
 4117 041a D7F80432 		ldr	r3, [r7, #516]
 4118 041e 0121     		movs	r1, #1
 4119 0420 2046     		mov	r0, r4
 4120              	.LVL350:
 722:/opt/XMClib/XMC_Peripheral_Library_v2.1.16/XMCLib/src/xmc_usbd.c ****         }
 4121              		.loc 1 722 11 is_stmt 0 view .LVU1451
 4122 0422 9847     		blx	r3
 4123              	.LVL351:
 4124              	.L275:
 731:/opt/XMClib/XMC_Peripheral_Library_v2.1.16/XMCLib/src/xmc_usbd.c ****     }
 4125              		.loc 1 731 7 is_stmt 1 view .LVU1452
 4126              	.LBB65:
 4127              	.LBI65:
1029:/opt/XMClib/XMC_Peripheral_Library_v2.1.16/XMCLib/src/xmc_usbd.c **** {
 4128              		.loc 1 1029 6 view .LVU1453
 4129              	.LBB66:
1031:/opt/XMClib/XMC_Peripheral_Library_v2.1.16/XMCLib/src/xmc_usbd.c ****   clear.d32 = event;
 4130              		.loc 1 1031 3 view .LVU1454
1032:/opt/XMClib/XMC_Peripheral_Library_v2.1.16/XMCLib/src/xmc_usbd.c ****   xmc_device.endpoint_out_register[ep_num]->doepint = clear.d32;
 4131              		.loc 1 1032 3 view .LVU1455
1033:/opt/XMClib/XMC_Peripheral_Library_v2.1.16/XMCLib/src/xmc_usbd.c **** }
 4132              		.loc 1 1033 3 view .LVU1456
1033:/opt/XMClib/XMC_Peripheral_Library_v2.1.16/XMCLib/src/xmc_usbd.c **** }
 4133              		.loc 1 1033 35 is_stmt 0 view .LVU1457
 4134 0424 07EB8505 		add	r5, r7, r5, lsl #2
 4135              	.LVL352:
1033:/opt/XMClib/XMC_Peripheral_Library_v2.1.16/XMCLib/src/xmc_usbd.c **** }
 4136              		.loc 1 1033 35 view .LVU1458
 4137 0428 D5F8C431 		ldr	r3, [r5, #452]
 4138              	.LVL353:
1033:/opt/XMClib/XMC_Peripheral_Library_v2.1.16/XMCLib/src/xmc_usbd.c **** }
 4139              		.loc 1 1033 53 view .LVU1459
 4140 042c 9E60     		str	r6, [r3, #8]
 4141              	.LVL354:
 4142              	.L270:
1033:/opt/XMClib/XMC_Peripheral_Library_v2.1.16/XMCLib/src/xmc_usbd.c **** }
 4143              		.loc 1 1033 53 view .LVU1460
 4144              	.LBE66:
 4145              	.LBE65:
 733:/opt/XMClib/XMC_Peripheral_Library_v2.1.16/XMCLib/src/xmc_usbd.c ****   }
 4146              		.loc 1 733 5 is_stmt 1 view .LVU1461
 733:/opt/XMClib/XMC_Peripheral_Library_v2.1.16/XMCLib/src/xmc_usbd.c ****   }
 4147              		.loc 1 733 11 is_stmt 0 view .LVU1462
 4148 042e 0134     		adds	r4, r4, #1
 4149              	.LVL355:
 733:/opt/XMClib/XMC_Peripheral_Library_v2.1.16/XMCLib/src/xmc_usbd.c ****   }
 4150              		.loc 1 733 11 view .LVU1463
 4151 0430 E4B2     		uxtb	r4, r4
 4152              	.LVL356:
 677:/opt/XMClib/XMC_Peripheral_Library_v2.1.16/XMCLib/src/xmc_usbd.c ****   {
 4153              		.loc 1 677 10 is_stmt 1 view .LVU1464
 677:/opt/XMClib/XMC_Peripheral_Library_v2.1.16/XMCLib/src/xmc_usbd.c ****   {
 4154              		.loc 1 677 25 is_stmt 0 view .LVU1465
 4155 0432 2546     		mov	r5, r4
 677:/opt/XMClib/XMC_Peripheral_Library_v2.1.16/XMCLib/src/xmc_usbd.c ****   {
 4156              		.loc 1 677 10 view .LVU1466
 4157 0434 58FA04F3 		asrs	r3, r8, r4
 4158 0438 52D0     		beq	.L298
 4159              	.LVL357:
 4160              	.L278:
 679:/opt/XMClib/XMC_Peripheral_Library_v2.1.16/XMCLib/src/xmc_usbd.c ****     temp = temp1 & 0x1U;
 4161              		.loc 1 679 5 is_stmt 1 view .LVU1467
 680:/opt/XMClib/XMC_Peripheral_Library_v2.1.16/XMCLib/src/xmc_usbd.c ****     if (temp)
 4162              		.loc 1 680 5 view .LVU1468
 681:/opt/XMClib/XMC_Peripheral_Library_v2.1.16/XMCLib/src/xmc_usbd.c ****     {
 4163              		.loc 1 681 5 view .LVU1469
 681:/opt/XMClib/XMC_Peripheral_Library_v2.1.16/XMCLib/src/xmc_usbd.c ****     {
 4164              		.loc 1 681 8 is_stmt 0 view .LVU1470
 4165 043a 13F0010F 		tst	r3, #1
 4166 043e F6D0     		beq	.L270
 684:/opt/XMClib/XMC_Peripheral_Library_v2.1.16/XMCLib/src/xmc_usbd.c ****       doepint.d32 = xmc_device.endpoint_out_register[ep_num]->doepint & doepmsk.d32;
 4167              		.loc 1 684 7 is_stmt 1 view .LVU1471
 4168              	.LVL358:
 685:/opt/XMClib/XMC_Peripheral_Library_v2.1.16/XMCLib/src/xmc_usbd.c ****       if(obj->usbd_transfer_mode == XMC_USBD_USE_DMA)
 4169              		.loc 1 685 7 view .LVU1472
 685:/opt/XMClib/XMC_Peripheral_Library_v2.1.16/XMCLib/src/xmc_usbd.c ****       if(obj->usbd_transfer_mode == XMC_USBD_USE_DMA)
 4170              		.loc 1 685 53 is_stmt 0 view .LVU1473
 4171 0440 07EB8503 		add	r3, r7, r5, lsl #2
 4172              	.LVL359:
 685:/opt/XMClib/XMC_Peripheral_Library_v2.1.16/XMCLib/src/xmc_usbd.c ****       if(obj->usbd_transfer_mode == XMC_USBD_USE_DMA)
 4173              		.loc 1 685 53 view .LVU1474
 4174 0444 D3F8C431 		ldr	r3, [r3, #452]
 685:/opt/XMClib/XMC_Peripheral_Library_v2.1.16/XMCLib/src/xmc_usbd.c ****       if(obj->usbd_transfer_mode == XMC_USBD_USE_DMA)
 4175              		.loc 1 685 61 view .LVU1475
 4176 0448 9E68     		ldr	r6, [r3, #8]
 685:/opt/XMClib/XMC_Peripheral_Library_v2.1.16/XMCLib/src/xmc_usbd.c ****       if(obj->usbd_transfer_mode == XMC_USBD_USE_DMA)
 4177              		.loc 1 685 71 view .LVU1476
 4178 044a 029A     		ldr	r2, [sp, #8]
 4179 044c 1640     		ands	r6, r6, r2
 4180              	.LVL360:
 686:/opt/XMClib/XMC_Peripheral_Library_v2.1.16/XMCLib/src/xmc_usbd.c ****       {
 4181              		.loc 1 686 7 is_stmt 1 view .LVU1477
 686:/opt/XMClib/XMC_Peripheral_Library_v2.1.16/XMCLib/src/xmc_usbd.c ****       {
 4182              		.loc 1 686 9 is_stmt 0 view .LVU1478
 4183 044e 9BF80D20 		ldrb	r2, [fp, #13]	@ zero_extendqisi2
 4184 0452 0AB9     		cbnz	r2, .L271
 688:/opt/XMClib/XMC_Peripheral_Library_v2.1.16/XMCLib/src/xmc_usbd.c ****       }
 4185              		.loc 1 688 9 is_stmt 1 view .LVU1479
 688:/opt/XMClib/XMC_Peripheral_Library_v2.1.16/XMCLib/src/xmc_usbd.c ****       }
 4186              		.loc 1 688 64 is_stmt 0 view .LVU1480
 4187 0454 1B69     		ldr	r3, [r3, #16]
 4188              	.LVL361:
 688:/opt/XMClib/XMC_Peripheral_Library_v2.1.16/XMCLib/src/xmc_usbd.c ****       }
 4189              		.loc 1 688 64 view .LVU1481
 4190 0456 0193     		str	r3, [sp, #4]
 4191              	.L271:
 691:/opt/XMClib/XMC_Peripheral_Library_v2.1.16/XMCLib/src/xmc_usbd.c ****       {
 4192              		.loc 1 691 7 is_stmt 1 view .LVU1482
 691:/opt/XMClib/XMC_Peripheral_Library_v2.1.16/XMCLib/src/xmc_usbd.c ****       {
 4193              		.loc 1 691 11 is_stmt 0 view .LVU1483
 4194 0458 5FFA86FA 		uxtb	r10, r6
 691:/opt/XMClib/XMC_Peripheral_Library_v2.1.16/XMCLib/src/xmc_usbd.c ****       {
 4195              		.loc 1 691 10 view .LVU1484
 4196 045c 16F0080F 		tst	r6, #8
 4197 0460 24D0     		beq	.L272
 694:/opt/XMClib/XMC_Peripheral_Library_v2.1.16/XMCLib/src/xmc_usbd.c ****         if(obj->usbd_transfer_mode == XMC_USBD_USE_DMA)
 4198              		.loc 1 694 9 is_stmt 1 view .LVU1485
 694:/opt/XMClib/XMC_Peripheral_Library_v2.1.16/XMCLib/src/xmc_usbd.c ****         if(obj->usbd_transfer_mode == XMC_USBD_USE_DMA)
 4199              		.loc 1 694 23 is_stmt 0 view .LVU1486
 4200 0462 09FB0572 		mla	r2, r9, r5, r7
 4201 0466 1379     		ldrb	r3, [r2, #4]	@ zero_extendqisi2
 4202              	.LVL362:
 694:/opt/XMClib/XMC_Peripheral_Library_v2.1.16/XMCLib/src/xmc_usbd.c ****         if(obj->usbd_transfer_mode == XMC_USBD_USE_DMA)
 4203              		.loc 1 694 23 view .LVU1487
 4204 0468 23F02003 		bic	r3, r3, #32
 4205 046c 1371     		strb	r3, [r2, #4]
 695:/opt/XMClib/XMC_Peripheral_Library_v2.1.16/XMCLib/src/xmc_usbd.c ****         {
 4206              		.loc 1 695 9 is_stmt 1 view .LVU1488
 695:/opt/XMClib/XMC_Peripheral_Library_v2.1.16/XMCLib/src/xmc_usbd.c ****         {
 4207              		.loc 1 695 11 is_stmt 0 view .LVU1489
 4208 046e 9BF80D30 		ldrb	r3, [fp, #13]	@ zero_extendqisi2
 4209 0472 33B9     		cbnz	r3, .L273
 698:/opt/XMClib/XMC_Peripheral_Library_v2.1.16/XMCLib/src/xmc_usbd.c **** 		  (uint32_t)((deptsiz0_data_t*)&doeptsiz)->b.supcnt)*(uint32_t)XMC_USBD_SETUP_SIZE);
 4210              		.loc 1 698 5 is_stmt 1 view .LVU1490
 699:/opt/XMClib/XMC_Peripheral_Library_v2.1.16/XMCLib/src/xmc_usbd.c ****         }
 4211              		.loc 1 699 5 is_stmt 0 view .LVU1491
 4212 0474 019B     		ldr	r3, [sp, #4]
 4213              	.LVL363:
 699:/opt/XMClib/XMC_Peripheral_Library_v2.1.16/XMCLib/src/xmc_usbd.c ****         }
 4214              		.loc 1 699 5 view .LVU1492
 4215 0476 C3F34173 		ubfx	r3, r3, #29, #2
 4216              	.LVL364:
 698:/opt/XMClib/XMC_Peripheral_Library_v2.1.16/XMCLib/src/xmc_usbd.c **** 		  (uint32_t)((deptsiz0_data_t*)&doeptsiz)->b.supcnt)*(uint32_t)XMC_USBD_SETUP_SIZE);
 4217              		.loc 1 698 72 view .LVU1493
 4218 047a C3F10303 		rsb	r3, r3, #3
 698:/opt/XMClib/XMC_Peripheral_Library_v2.1.16/XMCLib/src/xmc_usbd.c **** 		  (uint32_t)((deptsiz0_data_t*)&doeptsiz)->b.supcnt)*(uint32_t)XMC_USBD_SETUP_SIZE);
 4219              		.loc 1 698 29 view .LVU1494
 4220 047e DB00     		lsls	r3, r3, #3
 698:/opt/XMClib/XMC_Peripheral_Library_v2.1.16/XMCLib/src/xmc_usbd.c **** 		  (uint32_t)((deptsiz0_data_t*)&doeptsiz)->b.supcnt)*(uint32_t)XMC_USBD_SETUP_SIZE);
 4221              		.loc 1 698 27 view .LVU1495
 4222 0480 1361     		str	r3, [r2, #16]
 4223              	.LVL365:
 4224              	.L273:
 701:/opt/XMClib/XMC_Peripheral_Library_v2.1.16/XMCLib/src/xmc_usbd.c **** 		{
 4225              		.loc 1 701 3 is_stmt 1 view .LVU1496
 701:/opt/XMClib/XMC_Peripheral_Library_v2.1.16/XMCLib/src/xmc_usbd.c **** 		{
 4226              		.loc 1 701 5 is_stmt 0 view .LVU1497
 4227 0482 9BF80D30 		ldrb	r3, [fp, #13]	@ zero_extendqisi2
 4228 0486 012B     		cmp	r3, #1
 4229 0488 B0D0     		beq	.L299
 4230              	.L274:
 705:/opt/XMClib/XMC_Peripheral_Library_v2.1.16/XMCLib/src/xmc_usbd.c **** 		xmc_device.EndpointEvent_cb(0U,XMC_USBD_EP_EVENT_SETUP); /* signal endpoint event */
 4231              		.loc 1 705 3 is_stmt 1 view .LVU1498
 705:/opt/XMClib/XMC_Peripheral_Library_v2.1.16/XMCLib/src/xmc_usbd.c **** 		xmc_device.EndpointEvent_cb(0U,XMC_USBD_EP_EVENT_SETUP); /* signal endpoint event */
 4232              		.loc 1 705 16 is_stmt 0 view .LVU1499
 4233 048a 09FB0572 		mla	r2, r9, r5, r7
 4234 048e 5368     		ldr	r3, [r2, #4]
 4235 0490 23F01003 		bic	r3, r3, #16
 4236 0494 5360     		str	r3, [r2, #4]
 706:/opt/XMClib/XMC_Peripheral_Library_v2.1.16/XMCLib/src/xmc_usbd.c **** 				/* clear the interrupt */
 4237              		.loc 1 706 3 is_stmt 1 view .LVU1500
 4238 0496 D7F80432 		ldr	r3, [r7, #516]
 4239 049a 0021     		movs	r1, #0
 4240 049c 0846     		mov	r0, r1
 4241              	.LVL366:
 706:/opt/XMClib/XMC_Peripheral_Library_v2.1.16/XMCLib/src/xmc_usbd.c **** 				/* clear the interrupt */
 4242              		.loc 1 706 3 is_stmt 0 view .LVU1501
 4243 049e 9847     		blx	r3
 4244              	.LVL367:
 708:/opt/XMClib/XMC_Peripheral_Library_v2.1.16/XMCLib/src/xmc_usbd.c ****       }
 4245              		.loc 1 708 3 is_stmt 1 view .LVU1502
 4246              	.LBB67:
 4247              	.LBI67:
1029:/opt/XMClib/XMC_Peripheral_Library_v2.1.16/XMCLib/src/xmc_usbd.c **** {
 4248              		.loc 1 1029 6 view .LVU1503
 4249              	.LBB68:
1031:/opt/XMClib/XMC_Peripheral_Library_v2.1.16/XMCLib/src/xmc_usbd.c ****   clear.d32 = event;
 4250              		.loc 1 1031 3 view .LVU1504
1032:/opt/XMClib/XMC_Peripheral_Library_v2.1.16/XMCLib/src/xmc_usbd.c ****   xmc_device.endpoint_out_register[ep_num]->doepint = clear.d32;
 4251              		.loc 1 1032 3 view .LVU1505
1033:/opt/XMClib/XMC_Peripheral_Library_v2.1.16/XMCLib/src/xmc_usbd.c **** }
 4252              		.loc 1 1033 3 view .LVU1506
1033:/opt/XMClib/XMC_Peripheral_Library_v2.1.16/XMCLib/src/xmc_usbd.c **** }
 4253              		.loc 1 1033 35 is_stmt 0 view .LVU1507
 4254 04a0 07EB8503 		add	r3, r7, r5, lsl #2
 4255 04a4 D3F8C431 		ldr	r3, [r3, #452]
1033:/opt/XMClib/XMC_Peripheral_Library_v2.1.16/XMCLib/src/xmc_usbd.c **** }
 4256              		.loc 1 1033 53 view .LVU1508
 4257 04a8 0822     		movs	r2, #8
 4258 04aa 9A60     		str	r2, [r3, #8]
 4259              	.LVL368:
 4260              	.L272:
1033:/opt/XMClib/XMC_Peripheral_Library_v2.1.16/XMCLib/src/xmc_usbd.c **** }
 4261              		.loc 1 1033 53 view .LVU1509
 4262              	.LBE68:
 4263              	.LBE67:
 710:/opt/XMClib/XMC_Peripheral_Library_v2.1.16/XMCLib/src/xmc_usbd.c ****       {
 4264              		.loc 1 710 7 is_stmt 1 view .LVU1510
 710:/opt/XMClib/XMC_Peripheral_Library_v2.1.16/XMCLib/src/xmc_usbd.c ****       {
 4265              		.loc 1 710 10 is_stmt 0 view .LVU1511
 4266 04ac 1AF0010F 		tst	r10, #1
 4267 04b0 B8D0     		beq	.L275
 712:/opt/XMClib/XMC_Peripheral_Library_v2.1.16/XMCLib/src/xmc_usbd.c ****         {
 4268              		.loc 1 712 9 is_stmt 1 view .LVU1512
 712:/opt/XMClib/XMC_Peripheral_Library_v2.1.16/XMCLib/src/xmc_usbd.c ****         {
 4269              		.loc 1 712 11 is_stmt 0 view .LVU1513
 4270 04b2 9BF80D30 		ldrb	r3, [fp, #13]	@ zero_extendqisi2
 4271              	.LVL369:
 712:/opt/XMClib/XMC_Peripheral_Library_v2.1.16/XMCLib/src/xmc_usbd.c ****         {
 4272              		.loc 1 712 11 view .LVU1514
 4273 04b6 002B     		cmp	r3, #0
 4274 04b8 A1D1     		bne	.L276
 4275              	.LBB69:
 714:/opt/XMClib/XMC_Peripheral_Library_v2.1.16/XMCLib/src/xmc_usbd.c ****           ep->xferCount += bytes;
 4276              		.loc 1 714 11 is_stmt 1 view .LVU1515
 714:/opt/XMClib/XMC_Peripheral_Library_v2.1.16/XMCLib/src/xmc_usbd.c ****           ep->xferCount += bytes;
 4277              		.loc 1 714 31 is_stmt 0 view .LVU1516
 4278 04ba 09FB0573 		mla	r3, r9, r5, r7
 714:/opt/XMClib/XMC_Peripheral_Library_v2.1.16/XMCLib/src/xmc_usbd.c ****           ep->xferCount += bytes;
 4279              		.loc 1 714 73 view .LVU1517
 4280 04be 019A     		ldr	r2, [sp, #4]
 4281              	.LVL370:
 714:/opt/XMClib/XMC_Peripheral_Library_v2.1.16/XMCLib/src/xmc_usbd.c ****           ep->xferCount += bytes;
 4282              		.loc 1 714 73 view .LVU1518
 4283 04c0 C2F31201 		ubfx	r1, r2, #0, #19
 4284 04c4 9A6A     		ldr	r2, [r3, #40]
 4285              	.LVL371:
 714:/opt/XMClib/XMC_Peripheral_Library_v2.1.16/XMCLib/src/xmc_usbd.c ****           ep->xferCount += bytes;
 4286              		.loc 1 714 73 view .LVU1519
 4287 04c6 521A     		subs	r2, r2, r1
 714:/opt/XMClib/XMC_Peripheral_Library_v2.1.16/XMCLib/src/xmc_usbd.c ****           ep->xferCount += bytes;
 4288              		.loc 1 714 20 view .LVU1520
 4289 04c8 D96A     		ldr	r1, [r3, #44]
 4290 04ca 511A     		subs	r1, r2, r1
 4291              	.LVL372:
 715:/opt/XMClib/XMC_Peripheral_Library_v2.1.16/XMCLib/src/xmc_usbd.c ****           ep->xferBuffer += bytes;
 4292              		.loc 1 715 11 is_stmt 1 view .LVU1521
 715:/opt/XMClib/XMC_Peripheral_Library_v2.1.16/XMCLib/src/xmc_usbd.c ****           ep->xferBuffer += bytes;
 4293              		.loc 1 715 25 is_stmt 0 view .LVU1522
 4294 04cc DA62     		str	r2, [r3, #44]
 716:/opt/XMClib/XMC_Peripheral_Library_v2.1.16/XMCLib/src/xmc_usbd.c **** 				}
 4295              		.loc 1 716 11 is_stmt 1 view .LVU1523
 716:/opt/XMClib/XMC_Peripheral_Library_v2.1.16/XMCLib/src/xmc_usbd.c **** 				}
 4296              		.loc 1 716 26 is_stmt 0 view .LVU1524
 4297 04ce 5A6A     		ldr	r2, [r3, #36]
 4298 04d0 0A44     		add	r2, r2, r1
 4299 04d2 5A62     		str	r2, [r3, #36]
 4300 04d4 93E7     		b	.L276
 4301              	.LVL373:
 4302              	.L277:
 716:/opt/XMClib/XMC_Peripheral_Library_v2.1.16/XMCLib/src/xmc_usbd.c **** 				}
 4303              		.loc 1 716 26 view .LVU1525
 4304              	.LBE69:
 726:/opt/XMClib/XMC_Peripheral_Library_v2.1.16/XMCLib/src/xmc_usbd.c ****         }
 4305              		.loc 1 726 11 is_stmt 1 view .LVU1526
 4306 04d6 09FB0570 		mla	r0, r9, r5, r7
 4307              	.LVL374:
 726:/opt/XMClib/XMC_Peripheral_Library_v2.1.16/XMCLib/src/xmc_usbd.c ****         }
 4308              		.loc 1 726 11 is_stmt 0 view .LVU1527
 4309 04da FFF7FEFF 		bl	XMC_USBD_lStartReadXfer
 4310              	.LVL375:
 4311 04de A1E7     		b	.L275
 4312              	.LVL376:
 4313              	.L298:
 726:/opt/XMClib/XMC_Peripheral_Library_v2.1.16/XMCLib/src/xmc_usbd.c ****         }
 4314              		.loc 1 726 11 view .LVU1528
 4315 04e0 DDF80CA0 		ldr	r10, [sp, #12]
 4316              	.LVL377:
 4317              	.L269:
 737:/opt/XMClib/XMC_Peripheral_Library_v2.1.16/XMCLib/src/xmc_usbd.c **** }
 4318              		.loc 1 737 3 is_stmt 1 view .LVU1529
 4319 04e4 0D20     		movs	r0, #13
 4320              	.LVL378:
 737:/opt/XMClib/XMC_Peripheral_Library_v2.1.16/XMCLib/src/xmc_usbd.c **** }
 4321              		.loc 1 737 3 is_stmt 0 view .LVU1530
 4322 04e6 FFF7FEFF 		bl	XMC_USBD_ClearEvent
 4323              	.LVL379:
 738:/opt/XMClib/XMC_Peripheral_Library_v2.1.16/XMCLib/src/xmc_usbd.c **** 
 4324              		.loc 1 738 1 view .LVU1531
 4325 04ea D9E5     		b	.L268
 4326              	.LVL380:
 4327              	.L293:
 738:/opt/XMClib/XMC_Peripheral_Library_v2.1.16/XMCLib/src/xmc_usbd.c **** 
 4328              		.loc 1 738 1 view .LVU1532
 4329              	.LBE64:
 4330              	.LBE63:
 929:/opt/XMClib/XMC_Peripheral_Library_v2.1.16/XMCLib/src/xmc_usbd.c ****   }
 4331              		.loc 1 929 4 is_stmt 1 view .LVU1533
 4332              	.LBB70:
 4333              	.LBI70:
 603:/opt/XMClib/XMC_Peripheral_Library_v2.1.16/XMCLib/src/xmc_usbd.c **** {
 4334              		.loc 1 603 13 view .LVU1534
 4335              	.LBB71:
 605:/opt/XMClib/XMC_Peripheral_Library_v2.1.16/XMCLib/src/xmc_usbd.c ****   data.d32 = xmc_device.global_register->gotgint;
 4336              		.loc 1 605 3 view .LVU1535
 606:/opt/XMClib/XMC_Peripheral_Library_v2.1.16/XMCLib/src/xmc_usbd.c ****   if (data.b.sesenddet)
 4337              		.loc 1 606 3 view .LVU1536
 606:/opt/XMClib/XMC_Peripheral_Library_v2.1.16/XMCLib/src/xmc_usbd.c ****   if (data.b.sesenddet)
 4338              		.loc 1 606 24 is_stmt 0 view .LVU1537
 4339 04ec 0D4B     		ldr	r3, .L302
 4340 04ee D3F8A031 		ldr	r3, [r3, #416]
 606:/opt/XMClib/XMC_Peripheral_Library_v2.1.16/XMCLib/src/xmc_usbd.c ****   if (data.b.sesenddet)
 4341              		.loc 1 606 40 view .LVU1538
 4342 04f2 5C68     		ldr	r4, [r3, #4]
 4343              	.LVL381:
 607:/opt/XMClib/XMC_Peripheral_Library_v2.1.16/XMCLib/src/xmc_usbd.c ****   {
 4344              		.loc 1 607 3 is_stmt 1 view .LVU1539
 607:/opt/XMClib/XMC_Peripheral_Library_v2.1.16/XMCLib/src/xmc_usbd.c ****   {
 4345              		.loc 1 607 6 is_stmt 0 view .LVU1540
 4346 04f4 14F0040F 		tst	r4, #4
 4347 04f8 0AD0     		beq	.L280
 609:/opt/XMClib/XMC_Peripheral_Library_v2.1.16/XMCLib/src/xmc_usbd.c **** 		xmc_device.DeviceEvent_cb(XMC_USBD_EVENT_POWER_OFF);
 4348              		.loc 1 609 3 is_stmt 1 view .LVU1541
 609:/opt/XMClib/XMC_Peripheral_Library_v2.1.16/XMCLib/src/xmc_usbd.c **** 		xmc_device.DeviceEvent_cb(XMC_USBD_EVENT_POWER_OFF);
 4349              		.loc 1 609 24 is_stmt 0 view .LVU1542
 4350 04fa 0A4B     		ldr	r3, .L302
 4351 04fc 93F8FE21 		ldrb	r2, [r3, #510]	@ zero_extendqisi2
 4352 0500 22F00402 		bic	r2, r2, #4
 4353 0504 83F8FE21 		strb	r2, [r3, #510]
 610:/opt/XMClib/XMC_Peripheral_Library_v2.1.16/XMCLib/src/xmc_usbd.c ****   }
 4354              		.loc 1 610 3 is_stmt 1 view .LVU1543
 4355 0508 D3F80032 		ldr	r3, [r3, #512]
 4356 050c 0120     		movs	r0, #1
 4357              	.LVL382:
 610:/opt/XMClib/XMC_Peripheral_Library_v2.1.16/XMCLib/src/xmc_usbd.c ****   }
 4358              		.loc 1 610 3 is_stmt 0 view .LVU1544
 4359 050e 9847     		blx	r3
 4360              	.LVL383:
 4361              	.L280:
 612:/opt/XMClib/XMC_Peripheral_Library_v2.1.16/XMCLib/src/xmc_usbd.c **** 
 4362              		.loc 1 612 3 is_stmt 1 view .LVU1545
 4363              	.LBB72:
 4364              	.LBI72:
1009:/opt/XMClib/XMC_Peripheral_Library_v2.1.16/XMCLib/src/xmc_usbd.c **** {
 4365              		.loc 1 1009 13 view .LVU1546
 4366              	.LBB73:
1011:/opt/XMClib/XMC_Peripheral_Library_v2.1.16/XMCLib/src/xmc_usbd.c ****   clear.d32 = event;
 4367              		.loc 1 1011 3 view .LVU1547
1012:/opt/XMClib/XMC_Peripheral_Library_v2.1.16/XMCLib/src/xmc_usbd.c ****   xmc_device.global_register->gotgint = clear.d32;
 4368              		.loc 1 1012 3 view .LVU1548
1013:/opt/XMClib/XMC_Peripheral_Library_v2.1.16/XMCLib/src/xmc_usbd.c **** }
 4369              		.loc 1 1013 3 view .LVU1549
1013:/opt/XMClib/XMC_Peripheral_Library_v2.1.16/XMCLib/src/xmc_usbd.c **** }
 4370              		.loc 1 1013 13 is_stmt 0 view .LVU1550
 4371 0510 044B     		ldr	r3, .L302
 4372 0512 D3F8A031 		ldr	r3, [r3, #416]
1013:/opt/XMClib/XMC_Peripheral_Library_v2.1.16/XMCLib/src/xmc_usbd.c **** }
 4373              		.loc 1 1013 39 view .LVU1551
 4374 0516 5C60     		str	r4, [r3, #4]
 4375              	.LVL384:
1013:/opt/XMClib/XMC_Peripheral_Library_v2.1.16/XMCLib/src/xmc_usbd.c **** }
 4376              		.loc 1 1013 39 view .LVU1552
 4377              	.LBE73:
 4378              	.LBE72:
 4379              	.LBE71:
 4380              	.LBE70:
 932:/opt/XMClib/XMC_Peripheral_Library_v2.1.16/XMCLib/src/xmc_usbd.c **** 
 4381              		.loc 1 932 1 view .LVU1553
 4382 0518 C6E5     		b	.L239
 4383              	.LVL385:
 4384              	.L259:
 4385              	.LBB74:
 4386              	.LBB62:
 792:/opt/XMClib/XMC_Peripheral_Library_v2.1.16/XMCLib/src/xmc_usbd.c ****       {
 4387              		.loc 1 792 7 is_stmt 1 view .LVU1554
 792:/opt/XMClib/XMC_Peripheral_Library_v2.1.16/XMCLib/src/xmc_usbd.c ****       {
 4388              		.loc 1 792 10 is_stmt 0 view .LVU1555
 4389 051a 16F0010F 		tst	r6, #1
 4390 051e 7FF4A8AE 		bne	.L264
 4391 0522 BDE6     		b	.L258
 4392              	.L303:
 4393              		.align	2
 4394              	.L302:
 4395 0524 00000000 		.word	.LANCHOR0
 4396              	.LBE62:
 4397              	.LBE74:
 4398              		.cfi_endproc
 4399              	.LFE177:
 4401              		.global	Driver_USBD0
 4402              		.global	usbd_init
 4403              		.global	xmc_device
 4404              		.global	XMC_USBD_EP_IN_BUFFERSIZE
 4405              		.global	XMC_USBD_EP_OUT_BUFFERSIZE
 4406              		.section	.rodata
 4407              		.align	2
 4410              	Driver_USBD0:
 4411 0000 00000000 		.word	XMC_USBD_GetCapabilities
 4412 0004 00000000 		.word	XMC_USBD_Init
 4413 0008 00000000 		.word	XMC_USBD_Uninitialize
 4414 000c 00000000 		.word	XMC_USBD_DeviceConnect
 4415 0010 00000000 		.word	XMC_USBD_DeviceDisconnect
 4416 0014 00000000 		.word	XMC_USBD_DeviceGetState
 4417 0018 00000000 		.word	XMC_USBD_DeviceSetAddress
 4418 001c 00000000 		.word	XMC_USBD_EndpointConfigure
 4419 0020 00000000 		.word	XMC_USBD_EndpointUnconfigure
 4420 0024 00000000 		.word	XMC_USBD_EndpointStall
 4421 0028 00000000 		.word	XMC_USBD_EndpointReadStart
 4422 002c 00000000 		.word	XMC_USBD_EndpointRead
 4423 0030 00000000 		.word	XMC_USBD_EndpointWrite
 4424 0034 00000000 		.word	XMC_USBD_EndpointAbort
 4425 0038 00000000 		.word	XMC_USBD_GetFrameNumber
 4426 003c 00000000 		.word	XMC_USBD_IsEnumDone
 4427              		.bss
 4428              		.align	2
 4429              		.set	.LANCHOR0,. + 0
 4432              	xmc_device:
 4433 0000 00000000 		.space	520
 4433      00000000 
 4433      00000000 
 4433      00000000 
 4433      00000000 
 4436              	usbd_init:
 4437 0208 00000000 		.space	4
 4440              	XMC_USBD_EP_IN_BUFFERSIZE:
 4441 020c 00000000 		.space	28
 4441      00000000 
 4441      00000000 
 4441      00000000 
 4441      00000000 
 4444              	XMC_USBD_EP_OUT_BUFFERSIZE:
 4445 0228 00000000 		.space	28
 4445      00000000 
 4445      00000000 
 4445      00000000 
 4445      00000000 
 4446              		.section	USB_RAM,"aw"
 4447              		.align	2
 4448              		.set	.LANCHOR1,. + 0
 4451              	XMC_USBD_EP_IN_BUFFER:
 4452 0000 00000000 		.space	1792
 4452      00000000 
 4452      00000000 
 4452      00000000 
 4452      00000000 
 4455              	XMC_USBD_EP_OUT_BUFFER:
 4456 0700 00000000 		.space	1792
 4456      00000000 
 4456      00000000 
 4456      00000000 
 4456      00000000 
 4457              		.text
 4458              	.Letext0:
 4459              		.file 2 "/usr/lib/gcc/arm-none-eabi/13.2.1/include/stddef.h"
 4460              		.file 3 "/usr/lib/gcc/arm-none-eabi/13.2.1/include/stdint.h"
 4461              		.file 4 "/opt/XMClib/XMC_Peripheral_Library_v2.1.16/CMSIS/Infineon/XMC4500_series/Include/XMC4500.
 4462              		.file 5 "/opt/XMClib/XMC_Peripheral_Library_v2.1.16/XMCLib/inc/xmc_usbd_regs.h"
 4463              		.file 6 "/opt/XMClib/XMC_Peripheral_Library_v2.1.16/XMCLib/inc/xmc4_scu.h"
 4464              		.file 7 "/opt/XMClib/XMC_Peripheral_Library_v2.1.16/XMCLib/inc/xmc_usbd.h"
 4465              		.file 8 "/usr/include/newlib/string.h"
 4466              		.file 9 "<built-in>"
DEFINED SYMBOLS
                            *ABS*:00000000 xmc_usbd.c
     /tmp/cchjtHB2.s:20     .text.XMC_USBD_lReadFifo:00000000 $t
     /tmp/cchjtHB2.s:25     .text.XMC_USBD_lReadFifo:00000000 XMC_USBD_lReadFifo
     /tmp/cchjtHB2.s:187    .text.XMC_USBD_lReadFifo:000000b0 $d
     /tmp/cchjtHB2.s:192    .text.XMC_USBD_lFlushTXFifo:00000000 $t
     /tmp/cchjtHB2.s:197    .text.XMC_USBD_lFlushTXFifo:00000000 XMC_USBD_lFlushTXFifo
     /tmp/cchjtHB2.s:284    .text.XMC_USBD_lFlushTXFifo:00000048 $d
     /tmp/cchjtHB2.s:289    .text.XMC_USBD_lFlushRXFifo:00000000 $t
     /tmp/cchjtHB2.s:294    .text.XMC_USBD_lFlushRXFifo:00000000 XMC_USBD_lFlushRXFifo
     /tmp/cchjtHB2.s:372    .text.XMC_USBD_lFlushRXFifo:0000003c $d
     /tmp/cchjtHB2.s:377    .text.XMC_USBD_lStartReadXfer:00000000 $t
     /tmp/cchjtHB2.s:382    .text.XMC_USBD_lStartReadXfer:00000000 XMC_USBD_lStartReadXfer
     /tmp/cchjtHB2.s:539    .text.XMC_USBD_lStartReadXfer:000000a4 $d
     /tmp/cchjtHB2.s:544    .text.XMC_USBD_lStartWriteXfer:00000000 $t
     /tmp/cchjtHB2.s:549    .text.XMC_USBD_lStartWriteXfer:00000000 XMC_USBD_lStartWriteXfer
     /tmp/cchjtHB2.s:735    .text.XMC_USBD_lStartWriteXfer:000000c8 $d
     /tmp/cchjtHB2.s:740    .text.XMC_USBD_GetCapabilities:00000000 $t
     /tmp/cchjtHB2.s:746    .text.XMC_USBD_GetCapabilities:00000000 XMC_USBD_GetCapabilities
     /tmp/cchjtHB2.s:773    .text.XMC_USBD_DeviceConnect:00000000 $t
     /tmp/cchjtHB2.s:779    .text.XMC_USBD_DeviceConnect:00000000 XMC_USBD_DeviceConnect
     /tmp/cchjtHB2.s:808    .text.XMC_USBD_DeviceConnect:00000014 $d
     /tmp/cchjtHB2.s:813    .text.XMC_USBD_DeviceDisconnect:00000000 $t
     /tmp/cchjtHB2.s:819    .text.XMC_USBD_DeviceDisconnect:00000000 XMC_USBD_DeviceDisconnect
     /tmp/cchjtHB2.s:847    .text.XMC_USBD_DeviceDisconnect:00000014 $d
     /tmp/cchjtHB2.s:852    .text.XMC_USBD_EndpointReadStart:00000000 $t
     /tmp/cchjtHB2.s:858    .text.XMC_USBD_EndpointReadStart:00000000 XMC_USBD_EndpointReadStart
     /tmp/cchjtHB2.s:953    .text.XMC_USBD_EndpointReadStart:00000058 $d
     /tmp/cchjtHB2.s:958    .text.XMC_USBD_DeviceSetAddress:00000000 $t
     /tmp/cchjtHB2.s:964    .text.XMC_USBD_DeviceSetAddress:00000000 XMC_USBD_DeviceSetAddress
     /tmp/cchjtHB2.s:999    .text.XMC_USBD_DeviceSetAddress:00000014 $d
     /tmp/cchjtHB2.s:1004   .text.XMC_USBD_EndpointStall:00000000 $t
     /tmp/cchjtHB2.s:1010   .text.XMC_USBD_EndpointStall:00000000 XMC_USBD_EndpointStall
     /tmp/cchjtHB2.s:1161   .text.XMC_USBD_EndpointStall:000000ac $d
     /tmp/cchjtHB2.s:1166   .text.XMC_USBD_EndpointAbort:00000000 $t
     /tmp/cchjtHB2.s:1172   .text.XMC_USBD_EndpointAbort:00000000 XMC_USBD_EndpointAbort
     /tmp/cchjtHB2.s:1247   .text.XMC_USBD_EndpointAbort:00000054 $d
     /tmp/cchjtHB2.s:1252   .text.XMC_USBD_EndpointUnconfigure:00000000 $t
     /tmp/cchjtHB2.s:1258   .text.XMC_USBD_EndpointUnconfigure:00000000 XMC_USBD_EndpointUnconfigure
     /tmp/cchjtHB2.s:1478   .text.XMC_USBD_EndpointUnconfigure:00000108 $d
     /tmp/cchjtHB2.s:1483   .text.XMC_USBD_GetFrameNumber:00000000 $t
     /tmp/cchjtHB2.s:1489   .text.XMC_USBD_GetFrameNumber:00000000 XMC_USBD_GetFrameNumber
     /tmp/cchjtHB2.s:1515   .text.XMC_USBD_GetFrameNumber:00000010 $d
     /tmp/cchjtHB2.s:1520   .text.XMC_USBD_IsEnumDone:00000000 $t
     /tmp/cchjtHB2.s:1526   .text.XMC_USBD_IsEnumDone:00000000 XMC_USBD_IsEnumDone
     /tmp/cchjtHB2.s:1547   .text.XMC_USBD_IsEnumDone:00000014 $d
     /tmp/cchjtHB2.s:1552   .text.XMC_USBD_Uninitialize:00000000 $t
     /tmp/cchjtHB2.s:1558   .text.XMC_USBD_Uninitialize:00000000 XMC_USBD_Uninitialize
     /tmp/cchjtHB2.s:1595   .text.XMC_USBD_Uninitialize:00000020 $d
     /tmp/cchjtHB2.s:1600   .text.XMC_USBD_EndpointConfigure:00000000 $t
     /tmp/cchjtHB2.s:1606   .text.XMC_USBD_EndpointConfigure:00000000 XMC_USBD_EndpointConfigure
     /tmp/cchjtHB2.s:2154   .text.XMC_USBD_EndpointConfigure:00000270 $d
     /tmp/cchjtHB2.s:2161   .text.XMC_USBD_EndpointRead:00000000 $t
     /tmp/cchjtHB2.s:2167   .text.XMC_USBD_EndpointRead:00000000 XMC_USBD_EndpointRead
     /tmp/cchjtHB2.s:2236   .text.XMC_USBD_EndpointRead:0000003c $d
     /tmp/cchjtHB2.s:2241   .text.XMC_USBD_EndpointWrite:00000000 $t
     /tmp/cchjtHB2.s:2247   .text.XMC_USBD_EndpointWrite:00000000 XMC_USBD_EndpointWrite
     /tmp/cchjtHB2.s:2354   .text.XMC_USBD_EndpointWrite:00000064 $d
     /tmp/cchjtHB2.s:2359   .text.XMC_USBD_lDeviceActive:00000000 $t
     /tmp/cchjtHB2.s:2365   .text.XMC_USBD_lDeviceActive:00000000 XMC_USBD_lDeviceActive
     /tmp/cchjtHB2.s:2445   .text.XMC_USBD_lDeviceActive:00000040 $d
     /tmp/cchjtHB2.s:2450   .text.XMC_USBD_DeviceGetState:00000000 $t
     /tmp/cchjtHB2.s:2456   .text.XMC_USBD_DeviceGetState:00000000 XMC_USBD_DeviceGetState
     /tmp/cchjtHB2.s:2508   .text.XMC_USBD_DeviceGetState:00000030 $d
     /tmp/cchjtHB2.s:2513   .text.XMC_USBD_Enable:00000000 $t
     /tmp/cchjtHB2.s:2519   .text.XMC_USBD_Enable:00000000 XMC_USBD_Enable
     /tmp/cchjtHB2.s:2542   .text.XMC_USBD_Enable:00000010 $d
     /tmp/cchjtHB2.s:2547   .text.XMC_USBD_Init:00000000 $t
     /tmp/cchjtHB2.s:2553   .text.XMC_USBD_Init:00000000 XMC_USBD_Init
     /tmp/cchjtHB2.s:2803   .text.XMC_USBD_Init:0000010c $d
     /tmp/cchjtHB2.s:2811   .text.XMC_USBD_Disable:00000000 $t
     /tmp/cchjtHB2.s:2817   .text.XMC_USBD_Disable:00000000 XMC_USBD_Disable
     /tmp/cchjtHB2.s:2840   .text.XMC_USBD_Disable:00000010 $d
     /tmp/cchjtHB2.s:2845   .text.XMC_USBD_ClearEvent:00000000 $t
     /tmp/cchjtHB2.s:2851   .text.XMC_USBD_ClearEvent:00000000 XMC_USBD_ClearEvent
     /tmp/cchjtHB2.s:2869   .text.XMC_USBD_ClearEvent:0000000a $d
     /tmp/cchjtHB2.s:2883   .text.XMC_USBD_ClearEvent:00000018 $t
     /tmp/cchjtHB2.s:2951   .text.XMC_USBD_ClearEvent:00000054 $d
     /tmp/cchjtHB2.s:2956   .text.XMC_USBD_ClearEventINEP:00000000 $t
     /tmp/cchjtHB2.s:2962   .text.XMC_USBD_ClearEventINEP:00000000 XMC_USBD_ClearEventINEP
     /tmp/cchjtHB2.s:2987   .text.XMC_USBD_ClearEventINEP:0000000c $d
     /tmp/cchjtHB2.s:2992   .text.XMC_USBD_ClearEventOUTEP:00000000 $t
     /tmp/cchjtHB2.s:2998   .text.XMC_USBD_ClearEventOUTEP:00000000 XMC_USBD_ClearEventOUTEP
     /tmp/cchjtHB2.s:3021   .text.XMC_USBD_ClearEventOUTEP:00000010 $d
     /tmp/cchjtHB2.s:3026   .text.XMC_USBD_EnableEventOUTEP:00000000 $t
     /tmp/cchjtHB2.s:3032   .text.XMC_USBD_EnableEventOUTEP:00000000 XMC_USBD_EnableEventOUTEP
     /tmp/cchjtHB2.s:3057   .text.XMC_USBD_EnableEventOUTEP:00000010 $d
     /tmp/cchjtHB2.s:3062   .text.XMC_USBD_EnableEventINEP:00000000 $t
     /tmp/cchjtHB2.s:3068   .text.XMC_USBD_EnableEventINEP:00000000 XMC_USBD_EnableEventINEP
     /tmp/cchjtHB2.s:3093   .text.XMC_USBD_EnableEventINEP:00000010 $d
     /tmp/cchjtHB2.s:3098   .text.XMC_USBD_IRQHandler:00000000 $t
     /tmp/cchjtHB2.s:3104   .text.XMC_USBD_IRQHandler:00000000 XMC_USBD_IRQHandler
     /tmp/cchjtHB2.s:3694   .text.XMC_USBD_IRQHandler:0000025c $d
     /tmp/cchjtHB2.s:3699   .text.XMC_USBD_IRQHandler:00000260 $t
     /tmp/cchjtHB2.s:4395   .text.XMC_USBD_IRQHandler:00000524 $d
     /tmp/cchjtHB2.s:4410   .rodata:00000000 Driver_USBD0
     /tmp/cchjtHB2.s:4436   .bss:00000208 usbd_init
     /tmp/cchjtHB2.s:4432   .bss:00000000 xmc_device
     /tmp/cchjtHB2.s:4440   .bss:0000020c XMC_USBD_EP_IN_BUFFERSIZE
     /tmp/cchjtHB2.s:4444   .bss:00000228 XMC_USBD_EP_OUT_BUFFERSIZE
     /tmp/cchjtHB2.s:4407   .rodata:00000000 $d
     /tmp/cchjtHB2.s:4428   .bss:00000000 $d
     /tmp/cchjtHB2.s:4447   USB_RAM:00000000 $d
     /tmp/cchjtHB2.s:4451   USB_RAM:00000000 XMC_USBD_EP_IN_BUFFER
     /tmp/cchjtHB2.s:4455   USB_RAM:00000700 XMC_USBD_EP_OUT_BUFFER
                           .group:00000000 wm4.0.4be6372613153b6292d63d4df696c1e1
                           .group:00000000 wm4.stddef.h.39.38eb7ec030421799c657b13be5aa21c7
                           .group:00000000 wm4.stdint.h.29.6d480f4ba0f60596e88234283d42444f
                           .group:00000000 wm4.stdbool.h.29.c08aa3eec75cf5b9b5003883f43253f0
                           .group:00000000 wm4._newlib_version.h.4.411db44ea2338a62eca2f0777f81481b
                           .group:00000000 wm4.newlib.h.27.07bf1b8b16da454ae07478107717878b
                           .group:00000000 wm4.ieeefp.h.77.5ad60f72ea25fc152400b550ac118212
                           .group:00000000 wm4.features.h.22.c11ecc6cb8b914ead0c0895c00b4b4d5
                           .group:00000000 wm4.config.h.224.10ee1ad185d877c6e334e6581faab44d
                           .group:00000000 wm4._ansi.h.31.de524f58584151836e90d8620a16f8e8
                           .group:00000000 wm4._default_types.h.6.959254cf5f09734ea7516c89e8bb21bd
                           .group:00000000 wm4.cdefs.h.49.a0dc0a4a6c7d01e2e5d0aade9399215f
                           .group:00000000 wm4._types.h.20.dd0d04dca3800a0d2a6129b87f3adbb2
                           .group:00000000 wm4.stddef.h.158.6f8e08a347b1cff664332fa350bfceb3
                           .group:00000000 wm4._types.h.127.3bdfe3ff8ea2d0985b03d9cbe93480e3
                           .group:00000000 wm4.reent.h.18.25503cdc8b7e55dd0d6ea7b3e5af7a03
                           .group:00000000 wm4.lock.h.2.c0958401bd0ce484d507ee19aacab817
                           .group:00000000 wm4.reent.h.78.7f0775353a33c852a1479c008f68cd03
                           .group:00000000 wm4.string.h.15.dab3980bf35408a4c507182805e2de3a
                           .group:00000000 wm4.stddef.h.158.eec8bf00b5213f43d095cb984c5f22e3
                           .group:00000000 wm4.xmc_device.h.61.ba2d082e12f51240746cffdd60d42b81
                           .group:00000000 wm4.XMC4500.h.55.9aa45b9b5790506b2dcb963e4e7adeaf
                           .group:00000000 wm4.core_cm4.h.32.6c6eb1c8daeca23ce7ba79c8e8120d52
                           .group:00000000 wm4.cmsis_gcc.h.26.91b63349961c35637933e4fba51b867b
                           .group:00000000 wm4.core_cm4.h.172.fdd5a388a160bb6ff767b7d7ee212268
                           .group:00000000 wm4.system_XMC4500.h.42.99124977c10ca8844a71949adbeabd70
                           .group:00000000 wm4.XMC4500.h.208.b340195df97f067735c4c769ba59985a
                           .group:00000000 wm4.xmc_device.h.1460.8860499b404961ffcfbb8d1fefcb2146
                           .group:00000000 wm4.xmc_common.h.92.3f4336a80569affab05a81145b87c2fc
                           .group:00000000 wm4.stdlib.h.13.4ed386f5c1a80d71e72172885d946ef2
                           .group:00000000 wm4.alloca.h.8.dfc0c703c47ec3e69746825b17d9e66d
                           .group:00000000 wm4.stdlib.h.56.f4862cfbf4363a1db01842d5bdf72c18
                           .group:00000000 wm4.xmc_usbd_regs.h.80.57c6c85fa0ecbc9f8327ce445aebb9bc
                           .group:00000000 wm4.xmc4_scu.h.83.0449f5880ac071460ec1a8072311ea51
                           .group:00000000 wm4.xmc_usbd.h.122.ce57a9e6a9da48ee33ece02813c49593

UNDEFINED SYMBOLS
memset
memcpy
XMC_SCU_RESET_DeassertPeripheralReset
XMC_SCU_POWER_EnableUsb
XMC_SCU_RESET_AssertPeripheralReset
XMC_SCU_POWER_DisableUsb
