   1              		.cpu cortex-m4
   2              		.arch armv7e-m
   3              		.fpu fpv4-sp-d16
   4              		.eabi_attribute 27, 1
   5              		.eabi_attribute 20, 1
   6              		.eabi_attribute 21, 1
   7              		.eabi_attribute 23, 3
   8              		.eabi_attribute 24, 1
   9              		.eabi_attribute 25, 1
  10              		.eabi_attribute 26, 1
  11              		.eabi_attribute 30, 1
  12              		.eabi_attribute 34, 1
  13              		.eabi_attribute 18, 4
  14              		.file	"xmc_usbd.c"
  15              		.text
  16              	.Ltext0:
  17              		.cfi_sections	.debug_frame
  18              		.file 1 "/opt/XMClib/XMC_Peripheral_Library_v2.1.16/XMCLib/src/xmc_usbd.c"
  19              		.section	.text.XMC_USBD_lReadFifo,"ax",%progbits
  20              		.align	1
  21              		.syntax unified
  22              		.thumb
  23              		.thumb_func
  25              	XMC_USBD_lReadFifo:
  26              	.LVL0:
  27              	.LFB163:
   1:/opt/XMClib/XMC_Peripheral_Library_v2.1.16/XMCLib/src/xmc_usbd.c **** /**
   2:/opt/XMClib/XMC_Peripheral_Library_v2.1.16/XMCLib/src/xmc_usbd.c ****  * @file xmc_usbd.c
   3:/opt/XMClib/XMC_Peripheral_Library_v2.1.16/XMCLib/src/xmc_usbd.c ****  * @date 2015-06-20
   4:/opt/XMClib/XMC_Peripheral_Library_v2.1.16/XMCLib/src/xmc_usbd.c ****  *
   5:/opt/XMClib/XMC_Peripheral_Library_v2.1.16/XMCLib/src/xmc_usbd.c ****  * @cond
   6:/opt/XMClib/XMC_Peripheral_Library_v2.1.16/XMCLib/src/xmc_usbd.c ****  **********************************************************************************
   7:/opt/XMClib/XMC_Peripheral_Library_v2.1.16/XMCLib/src/xmc_usbd.c ****  * XMClib v2.1.16 - XMC Peripheral Driver Library 
   8:/opt/XMClib/XMC_Peripheral_Library_v2.1.16/XMCLib/src/xmc_usbd.c ****  *
   9:/opt/XMClib/XMC_Peripheral_Library_v2.1.16/XMCLib/src/xmc_usbd.c ****  * Copyright (c) 2015-2017, Infineon Technologies AG
  10:/opt/XMClib/XMC_Peripheral_Library_v2.1.16/XMCLib/src/xmc_usbd.c ****  * All rights reserved.                        
  11:/opt/XMClib/XMC_Peripheral_Library_v2.1.16/XMCLib/src/xmc_usbd.c ****  *                                             
  12:/opt/XMClib/XMC_Peripheral_Library_v2.1.16/XMCLib/src/xmc_usbd.c ****  * Redistribution and use in source and binary forms, with or without           
  13:/opt/XMClib/XMC_Peripheral_Library_v2.1.16/XMCLib/src/xmc_usbd.c ****  * modification,are permitted provided that the following conditions are met:   
  14:/opt/XMClib/XMC_Peripheral_Library_v2.1.16/XMCLib/src/xmc_usbd.c ****  *                                                                              
  15:/opt/XMClib/XMC_Peripheral_Library_v2.1.16/XMCLib/src/xmc_usbd.c ****  *   Redistributions of source code must retain the above copyright notice,      
  16:/opt/XMClib/XMC_Peripheral_Library_v2.1.16/XMCLib/src/xmc_usbd.c ****  *   this list of conditions and the following disclaimer.                        
  17:/opt/XMClib/XMC_Peripheral_Library_v2.1.16/XMCLib/src/xmc_usbd.c ****  * 
  18:/opt/XMClib/XMC_Peripheral_Library_v2.1.16/XMCLib/src/xmc_usbd.c ****  *   Redistributions in binary form must reproduce the above copyright notice,   
  19:/opt/XMClib/XMC_Peripheral_Library_v2.1.16/XMCLib/src/xmc_usbd.c ****  *   this list of conditions and the following disclaimer in the documentation    
  20:/opt/XMClib/XMC_Peripheral_Library_v2.1.16/XMCLib/src/xmc_usbd.c ****  *   and/or other materials provided with the distribution.                       
  21:/opt/XMClib/XMC_Peripheral_Library_v2.1.16/XMCLib/src/xmc_usbd.c ****  * 
  22:/opt/XMClib/XMC_Peripheral_Library_v2.1.16/XMCLib/src/xmc_usbd.c ****  *   Neither the name of the copyright holders nor the names of its contributors 
  23:/opt/XMClib/XMC_Peripheral_Library_v2.1.16/XMCLib/src/xmc_usbd.c ****  *   may be used to endorse or promote products derived from this software without
  24:/opt/XMClib/XMC_Peripheral_Library_v2.1.16/XMCLib/src/xmc_usbd.c ****  *   specific prior written permission.                                           
  25:/opt/XMClib/XMC_Peripheral_Library_v2.1.16/XMCLib/src/xmc_usbd.c ****  *                                                                              
  26:/opt/XMClib/XMC_Peripheral_Library_v2.1.16/XMCLib/src/xmc_usbd.c ****  * THIS SOFTWARE IS PROVIDED BY THE COPYRIGHT HOLDERS AND CONTRIBUTORS "AS IS"  
  27:/opt/XMClib/XMC_Peripheral_Library_v2.1.16/XMCLib/src/xmc_usbd.c ****  * AND ANY EXPRESS OR IMPLIED WARRANTIES, INCLUDING, BUT NOT LIMITED TO, THE    
  28:/opt/XMClib/XMC_Peripheral_Library_v2.1.16/XMCLib/src/xmc_usbd.c ****  * IMPLIED WARRANTIES OF MERCHANTABILITY AND FITNESS FOR A PARTICULAR PURPOSE   
  29:/opt/XMClib/XMC_Peripheral_Library_v2.1.16/XMCLib/src/xmc_usbd.c ****  * ARE  DISCLAIMED. IN NO EVENT SHALL THE COPYRIGHT HOLDER OR CONTRIBUTORS BE   
  30:/opt/XMClib/XMC_Peripheral_Library_v2.1.16/XMCLib/src/xmc_usbd.c ****  * LIABLE  FOR ANY DIRECT, INDIRECT, INCIDENTAL, SPECIAL, EXEMPLARY, OR         
  31:/opt/XMClib/XMC_Peripheral_Library_v2.1.16/XMCLib/src/xmc_usbd.c ****  * CONSEQUENTIAL DAMAGES (INCLUDING, BUT NOT LIMITED TO, PROCUREMENT OF         
  32:/opt/XMClib/XMC_Peripheral_Library_v2.1.16/XMCLib/src/xmc_usbd.c ****  * SUBSTITUTE GOODS OR  SERVICES; LOSS OF USE, DATA, OR PROFITS; OR BUSINESS    
  33:/opt/XMClib/XMC_Peripheral_Library_v2.1.16/XMCLib/src/xmc_usbd.c ****  * INTERRUPTION) HOWEVER CAUSED AND ON ANY THEORY OF LIABILITY, WHETHER IN      
  34:/opt/XMClib/XMC_Peripheral_Library_v2.1.16/XMCLib/src/xmc_usbd.c ****  * CONTRACT, STRICT LIABILITY,OR TORT (INCLUDING NEGLIGENCE OR OTHERWISE)       
  35:/opt/XMClib/XMC_Peripheral_Library_v2.1.16/XMCLib/src/xmc_usbd.c ****  * ARISING IN ANY WAY OUT OF THE USE OF THIS SOFTWARE, EVEN IF ADVISED OF THE   
  36:/opt/XMClib/XMC_Peripheral_Library_v2.1.16/XMCLib/src/xmc_usbd.c ****  * POSSIBILITY OF SUCH DAMAGE.                                                  
  37:/opt/XMClib/XMC_Peripheral_Library_v2.1.16/XMCLib/src/xmc_usbd.c ****  *                                                                              
  38:/opt/XMClib/XMC_Peripheral_Library_v2.1.16/XMCLib/src/xmc_usbd.c ****  * To improve the quality of the software, users are encouraged to share        
  39:/opt/XMClib/XMC_Peripheral_Library_v2.1.16/XMCLib/src/xmc_usbd.c ****  * modifications, enhancements or bug fixes with Infineon Technologies AG       
  40:/opt/XMClib/XMC_Peripheral_Library_v2.1.16/XMCLib/src/xmc_usbd.c ****  * dave@infineon.com).                                                          
  41:/opt/XMClib/XMC_Peripheral_Library_v2.1.16/XMCLib/src/xmc_usbd.c ****  **********************************************************************************
  42:/opt/XMClib/XMC_Peripheral_Library_v2.1.16/XMCLib/src/xmc_usbd.c ****  *
  43:/opt/XMClib/XMC_Peripheral_Library_v2.1.16/XMCLib/src/xmc_usbd.c ****  * Change History
  44:/opt/XMClib/XMC_Peripheral_Library_v2.1.16/XMCLib/src/xmc_usbd.c ****  * --------------
  45:/opt/XMClib/XMC_Peripheral_Library_v2.1.16/XMCLib/src/xmc_usbd.c ****  *
  46:/opt/XMClib/XMC_Peripheral_Library_v2.1.16/XMCLib/src/xmc_usbd.c ****  * 2015-02-16:
  47:/opt/XMClib/XMC_Peripheral_Library_v2.1.16/XMCLib/src/xmc_usbd.c ****  *     - Initial Version.<br>           
  48:/opt/XMClib/XMC_Peripheral_Library_v2.1.16/XMCLib/src/xmc_usbd.c ****  * 2015-03-18:
  49:/opt/XMClib/XMC_Peripheral_Library_v2.1.16/XMCLib/src/xmc_usbd.c ****  *     - Updated the XMC_USBD_EndpointStall() to fix issue on USB clear stall. <br>
  50:/opt/XMClib/XMC_Peripheral_Library_v2.1.16/XMCLib/src/xmc_usbd.c ****  *     - Updated the XMC_USBD_EndpointConfigure() to fix issue in EP0 configuration.<br>
  51:/opt/XMClib/XMC_Peripheral_Library_v2.1.16/XMCLib/src/xmc_usbd.c ****  *     - Updated the XMC_USBD_IRQHandler()(Removed the DAVE_CE check on SOF event).<br>
  52:/opt/XMClib/XMC_Peripheral_Library_v2.1.16/XMCLib/src/xmc_usbd.c ****  * 2015-06-20:
  53:/opt/XMClib/XMC_Peripheral_Library_v2.1.16/XMCLib/src/xmc_usbd.c ****  *     - Removed GetDriverVersion API.<br>
  54:/opt/XMClib/XMC_Peripheral_Library_v2.1.16/XMCLib/src/xmc_usbd.c ****  *     - Updated the XMC_USBD_IsEnumDone() API.<br>
  55:/opt/XMClib/XMC_Peripheral_Library_v2.1.16/XMCLib/src/xmc_usbd.c ****  *     - Updated the copy right in the file header.<br>
  56:/opt/XMClib/XMC_Peripheral_Library_v2.1.16/XMCLib/src/xmc_usbd.c ****  *     - Updated the XMC_USBD_Disable() API to gate the clock after programming the SCU registers.<
  57:/opt/XMClib/XMC_Peripheral_Library_v2.1.16/XMCLib/src/xmc_usbd.c ****  *
  58:/opt/XMClib/XMC_Peripheral_Library_v2.1.16/XMCLib/src/xmc_usbd.c ****  * @endcond 
  59:/opt/XMClib/XMC_Peripheral_Library_v2.1.16/XMCLib/src/xmc_usbd.c ****  *
  60:/opt/XMClib/XMC_Peripheral_Library_v2.1.16/XMCLib/src/xmc_usbd.c ****  */
  61:/opt/XMClib/XMC_Peripheral_Library_v2.1.16/XMCLib/src/xmc_usbd.c **** 
  62:/opt/XMClib/XMC_Peripheral_Library_v2.1.16/XMCLib/src/xmc_usbd.c **** 
  63:/opt/XMClib/XMC_Peripheral_Library_v2.1.16/XMCLib/src/xmc_usbd.c **** /*******************************************************************************
  64:/opt/XMClib/XMC_Peripheral_Library_v2.1.16/XMCLib/src/xmc_usbd.c ****  * HEADER FILES
  65:/opt/XMClib/XMC_Peripheral_Library_v2.1.16/XMCLib/src/xmc_usbd.c ****  *******************************************************************************/
  66:/opt/XMClib/XMC_Peripheral_Library_v2.1.16/XMCLib/src/xmc_usbd.c **** #include <xmc_usbd.h>
  67:/opt/XMClib/XMC_Peripheral_Library_v2.1.16/XMCLib/src/xmc_usbd.c **** 
  68:/opt/XMClib/XMC_Peripheral_Library_v2.1.16/XMCLib/src/xmc_usbd.c **** #if defined(USB0)
  69:/opt/XMClib/XMC_Peripheral_Library_v2.1.16/XMCLib/src/xmc_usbd.c **** 	
  70:/opt/XMClib/XMC_Peripheral_Library_v2.1.16/XMCLib/src/xmc_usbd.c **** /**< macro to check the maximum number of endpoints used*/
  71:/opt/XMClib/XMC_Peripheral_Library_v2.1.16/XMCLib/src/xmc_usbd.c **** #define XMC_USBD_CHECK_INPUT_MAX_NUM_EPS(usbd_max_num_eps) \
  72:/opt/XMClib/XMC_Peripheral_Library_v2.1.16/XMCLib/src/xmc_usbd.c ****   ((usbd_max_num_eps ==  XMC_USBD_MAX_NUM_EPS_1 ) || \
  73:/opt/XMClib/XMC_Peripheral_Library_v2.1.16/XMCLib/src/xmc_usbd.c ****    (usbd_max_num_eps ==  XMC_USBD_MAX_NUM_EPS_2 ) || \
  74:/opt/XMClib/XMC_Peripheral_Library_v2.1.16/XMCLib/src/xmc_usbd.c ****    (usbd_max_num_eps ==  XMC_USBD_MAX_NUM_EPS_3 ) || \
  75:/opt/XMClib/XMC_Peripheral_Library_v2.1.16/XMCLib/src/xmc_usbd.c ****    (usbd_max_num_eps ==  XMC_USBD_MAX_NUM_EPS_4 ) || \
  76:/opt/XMClib/XMC_Peripheral_Library_v2.1.16/XMCLib/src/xmc_usbd.c ****    (usbd_max_num_eps ==  XMC_USBD_MAX_NUM_EPS_5 ) || \
  77:/opt/XMClib/XMC_Peripheral_Library_v2.1.16/XMCLib/src/xmc_usbd.c ****    (usbd_max_num_eps ==  XMC_USBD_MAX_NUM_EPS_6 ) || \
  78:/opt/XMClib/XMC_Peripheral_Library_v2.1.16/XMCLib/src/xmc_usbd.c ****    (usbd_max_num_eps == XMC_USBD_MAX_NUM_EPS_7 ))
  79:/opt/XMClib/XMC_Peripheral_Library_v2.1.16/XMCLib/src/xmc_usbd.c **** 
  80:/opt/XMClib/XMC_Peripheral_Library_v2.1.16/XMCLib/src/xmc_usbd.c **** /*******************************************************************************
  81:/opt/XMClib/XMC_Peripheral_Library_v2.1.16/XMCLib/src/xmc_usbd.c ****  *GLOBAL DATA
  82:/opt/XMClib/XMC_Peripheral_Library_v2.1.16/XMCLib/src/xmc_usbd.c ****  *******************************************************************************/
  83:/opt/XMClib/XMC_Peripheral_Library_v2.1.16/XMCLib/src/xmc_usbd.c **** /*
  84:/opt/XMClib/XMC_Peripheral_Library_v2.1.16/XMCLib/src/xmc_usbd.c ****  * Endpoint Out Fifo Size
  85:/opt/XMClib/XMC_Peripheral_Library_v2.1.16/XMCLib/src/xmc_usbd.c ****  */
  86:/opt/XMClib/XMC_Peripheral_Library_v2.1.16/XMCLib/src/xmc_usbd.c **** uint32_t XMC_USBD_EP_OUT_BUFFERSIZE[7] = {0U,0U,0U,0U,0U,0U,0U};
  87:/opt/XMClib/XMC_Peripheral_Library_v2.1.16/XMCLib/src/xmc_usbd.c **** /*
  88:/opt/XMClib/XMC_Peripheral_Library_v2.1.16/XMCLib/src/xmc_usbd.c ****  * Endpoint In Fifo Size
  89:/opt/XMClib/XMC_Peripheral_Library_v2.1.16/XMCLib/src/xmc_usbd.c ****  */
  90:/opt/XMClib/XMC_Peripheral_Library_v2.1.16/XMCLib/src/xmc_usbd.c **** uint32_t XMC_USBD_EP_IN_BUFFERSIZE[7] = {0U,0U,0U,0U,0U,0U,0U};
  91:/opt/XMClib/XMC_Peripheral_Library_v2.1.16/XMCLib/src/xmc_usbd.c **** /*
  92:/opt/XMClib/XMC_Peripheral_Library_v2.1.16/XMCLib/src/xmc_usbd.c ****  * Device definition
  93:/opt/XMClib/XMC_Peripheral_Library_v2.1.16/XMCLib/src/xmc_usbd.c ****  */
  94:/opt/XMClib/XMC_Peripheral_Library_v2.1.16/XMCLib/src/xmc_usbd.c ****  XMC_USBD_DEVICE_t xmc_device;
  95:/opt/XMClib/XMC_Peripheral_Library_v2.1.16/XMCLib/src/xmc_usbd.c **** #ifdef __GNUC__															  /*GCC*/
  96:/opt/XMClib/XMC_Peripheral_Library_v2.1.16/XMCLib/src/xmc_usbd.c **** /*
  97:/opt/XMClib/XMC_Peripheral_Library_v2.1.16/XMCLib/src/xmc_usbd.c ****  * Endpoint Out Fifo
  98:/opt/XMClib/XMC_Peripheral_Library_v2.1.16/XMCLib/src/xmc_usbd.c ****  */
  99:/opt/XMClib/XMC_Peripheral_Library_v2.1.16/XMCLib/src/xmc_usbd.c **** static __attribute__((aligned(4))) uint8_t XMC_USBD_EP_OUT_BUFFER[7][256] __attribute__((section("U
 100:/opt/XMClib/XMC_Peripheral_Library_v2.1.16/XMCLib/src/xmc_usbd.c **** /*
 101:/opt/XMClib/XMC_Peripheral_Library_v2.1.16/XMCLib/src/xmc_usbd.c ****  * Endpoint In Fifo
 102:/opt/XMClib/XMC_Peripheral_Library_v2.1.16/XMCLib/src/xmc_usbd.c ****  */
 103:/opt/XMClib/XMC_Peripheral_Library_v2.1.16/XMCLib/src/xmc_usbd.c **** static __attribute__((aligned(4))) uint8_t XMC_USBD_EP_IN_BUFFER[7][256] __attribute__((section("US
 104:/opt/XMClib/XMC_Peripheral_Library_v2.1.16/XMCLib/src/xmc_usbd.c **** #endif
 105:/opt/XMClib/XMC_Peripheral_Library_v2.1.16/XMCLib/src/xmc_usbd.c **** #if defined(__ICCARM__)
 106:/opt/XMClib/XMC_Peripheral_Library_v2.1.16/XMCLib/src/xmc_usbd.c **** #pragma data_alignment=4
 107:/opt/XMClib/XMC_Peripheral_Library_v2.1.16/XMCLib/src/xmc_usbd.c **** /*
 108:/opt/XMClib/XMC_Peripheral_Library_v2.1.16/XMCLib/src/xmc_usbd.c ****  * Endpoint Out Fifo
 109:/opt/XMClib/XMC_Peripheral_Library_v2.1.16/XMCLib/src/xmc_usbd.c ****  */
 110:/opt/XMClib/XMC_Peripheral_Library_v2.1.16/XMCLib/src/xmc_usbd.c **** static uint8_t XMC_USBD_EP_OUT_BUFFER[7][256] @ ".dram";
 111:/opt/XMClib/XMC_Peripheral_Library_v2.1.16/XMCLib/src/xmc_usbd.c **** /*
 112:/opt/XMClib/XMC_Peripheral_Library_v2.1.16/XMCLib/src/xmc_usbd.c ****  * Endpoint In Fifo
 113:/opt/XMClib/XMC_Peripheral_Library_v2.1.16/XMCLib/src/xmc_usbd.c ****  */
 114:/opt/XMClib/XMC_Peripheral_Library_v2.1.16/XMCLib/src/xmc_usbd.c **** #pragma data_alignment=4
 115:/opt/XMClib/XMC_Peripheral_Library_v2.1.16/XMCLib/src/xmc_usbd.c **** static uint8_t XMC_USBD_EP_IN_BUFFER[7][256] @ ".dram";
 116:/opt/XMClib/XMC_Peripheral_Library_v2.1.16/XMCLib/src/xmc_usbd.c **** #endif
 117:/opt/XMClib/XMC_Peripheral_Library_v2.1.16/XMCLib/src/xmc_usbd.c **** #if defined(__CC_ARM)
 118:/opt/XMClib/XMC_Peripheral_Library_v2.1.16/XMCLib/src/xmc_usbd.c **** /*
 119:/opt/XMClib/XMC_Peripheral_Library_v2.1.16/XMCLib/src/xmc_usbd.c ****  * Endpoint Out Fifo
 120:/opt/XMClib/XMC_Peripheral_Library_v2.1.16/XMCLib/src/xmc_usbd.c ****  */
 121:/opt/XMClib/XMC_Peripheral_Library_v2.1.16/XMCLib/src/xmc_usbd.c **** static __attribute__((aligned(4))) uint8_t XMC_USBD_EP_OUT_BUFFER[7][256] __attribute__((section ("
 122:/opt/XMClib/XMC_Peripheral_Library_v2.1.16/XMCLib/src/xmc_usbd.c **** /*
 123:/opt/XMClib/XMC_Peripheral_Library_v2.1.16/XMCLib/src/xmc_usbd.c ****  * Endpoint In Fifo
 124:/opt/XMClib/XMC_Peripheral_Library_v2.1.16/XMCLib/src/xmc_usbd.c ****  */
 125:/opt/XMClib/XMC_Peripheral_Library_v2.1.16/XMCLib/src/xmc_usbd.c **** static __attribute__((aligned(4))) uint8_t XMC_USBD_EP_IN_BUFFER[7][256] __attribute__((section ("R
 126:/opt/XMClib/XMC_Peripheral_Library_v2.1.16/XMCLib/src/xmc_usbd.c **** #endif
 127:/opt/XMClib/XMC_Peripheral_Library_v2.1.16/XMCLib/src/xmc_usbd.c **** XMC_USBD_t *usbd_init;
 128:/opt/XMClib/XMC_Peripheral_Library_v2.1.16/XMCLib/src/xmc_usbd.c **** 
 129:/opt/XMClib/XMC_Peripheral_Library_v2.1.16/XMCLib/src/xmc_usbd.c **** /*******************************************************************************
 130:/opt/XMClib/XMC_Peripheral_Library_v2.1.16/XMCLib/src/xmc_usbd.c ****  *LOCAL ROUTINES
 131:/opt/XMClib/XMC_Peripheral_Library_v2.1.16/XMCLib/src/xmc_usbd.c ****  *******************************************************************************/
 132:/opt/XMClib/XMC_Peripheral_Library_v2.1.16/XMCLib/src/xmc_usbd.c **** /*Local routines prototypes*/
 133:/opt/XMClib/XMC_Peripheral_Library_v2.1.16/XMCLib/src/xmc_usbd.c **** uint8_t XMC_USBD_lDeviceActive(const XMC_USBD_t *const obj);
 134:/opt/XMClib/XMC_Peripheral_Library_v2.1.16/XMCLib/src/xmc_usbd.c **** static void XMC_USBD_lReadFifo(const uint32_t ep_num,const uint32_t byte_count);
 135:/opt/XMClib/XMC_Peripheral_Library_v2.1.16/XMCLib/src/xmc_usbd.c **** static uint32_t XMC_USBD_lWriteFifo(XMC_USBD_EP_t *ep);
 136:/opt/XMClib/XMC_Peripheral_Library_v2.1.16/XMCLib/src/xmc_usbd.c **** static void XMC_USBD_lFlushTXFifo(const uint8_t fifo_num);
 137:/opt/XMClib/XMC_Peripheral_Library_v2.1.16/XMCLib/src/xmc_usbd.c **** static void XMC_USBD_lFlushRXFifo(void);
 138:/opt/XMClib/XMC_Peripheral_Library_v2.1.16/XMCLib/src/xmc_usbd.c **** static uint8_t XMC_USBD_lAssignTXFifo(void);
 139:/opt/XMClib/XMC_Peripheral_Library_v2.1.16/XMCLib/src/xmc_usbd.c **** static void XMC_USBD_lStartReadXfer(XMC_USBD_EP_t *const ep);
 140:/opt/XMClib/XMC_Peripheral_Library_v2.1.16/XMCLib/src/xmc_usbd.c **** static void XMC_USBD_lStartWriteXfer(XMC_USBD_EP_t *const ep);
 141:/opt/XMClib/XMC_Peripheral_Library_v2.1.16/XMCLib/src/xmc_usbd.c **** static void XMC_USBD_lHandleEnumDone(void);
 142:/opt/XMClib/XMC_Peripheral_Library_v2.1.16/XMCLib/src/xmc_usbd.c **** static void XMC_USBD_lHandleOEPInt(const XMC_USBD_t *const obj);
 143:/opt/XMClib/XMC_Peripheral_Library_v2.1.16/XMCLib/src/xmc_usbd.c **** static void XMC_USBD_lHandleRxFLvl(void);
 144:/opt/XMClib/XMC_Peripheral_Library_v2.1.16/XMCLib/src/xmc_usbd.c **** static void XMC_USBD_lHandleIEPInt(const XMC_USBD_t *const obj);
 145:/opt/XMClib/XMC_Peripheral_Library_v2.1.16/XMCLib/src/xmc_usbd.c **** static void XMC_USBD_lUnassignFifo(const uint8_t fifo_nr);
 146:/opt/XMClib/XMC_Peripheral_Library_v2.1.16/XMCLib/src/xmc_usbd.c **** static void XMC_USBD_lHandleUSBReset(const XMC_USBD_t *const obj);
 147:/opt/XMClib/XMC_Peripheral_Library_v2.1.16/XMCLib/src/xmc_usbd.c **** static void XMC_USBD_lHandleOTGInt(void);
 148:/opt/XMClib/XMC_Peripheral_Library_v2.1.16/XMCLib/src/xmc_usbd.c **** static void XMC_USBD_lClearEventOTG(uint32_t event);
 149:/opt/XMClib/XMC_Peripheral_Library_v2.1.16/XMCLib/src/xmc_usbd.c **** 
 150:/opt/XMClib/XMC_Peripheral_Library_v2.1.16/XMCLib/src/xmc_usbd.c **** /**
 151:/opt/XMClib/XMC_Peripheral_Library_v2.1.16/XMCLib/src/xmc_usbd.c ****  *  The device driver
 152:/opt/XMClib/XMC_Peripheral_Library_v2.1.16/XMCLib/src/xmc_usbd.c ****  */
 153:/opt/XMClib/XMC_Peripheral_Library_v2.1.16/XMCLib/src/xmc_usbd.c **** const XMC_USBD_DRIVER_t Driver_USBD0 =
 154:/opt/XMClib/XMC_Peripheral_Library_v2.1.16/XMCLib/src/xmc_usbd.c **** {
 155:/opt/XMClib/XMC_Peripheral_Library_v2.1.16/XMCLib/src/xmc_usbd.c ****   .GetCapabilities = XMC_USBD_GetCapabilities,
 156:/opt/XMClib/XMC_Peripheral_Library_v2.1.16/XMCLib/src/xmc_usbd.c ****   .Initialize = XMC_USBD_Init,
 157:/opt/XMClib/XMC_Peripheral_Library_v2.1.16/XMCLib/src/xmc_usbd.c ****   .Uninitialize = XMC_USBD_Uninitialize,
 158:/opt/XMClib/XMC_Peripheral_Library_v2.1.16/XMCLib/src/xmc_usbd.c ****   .DeviceConnect = XMC_USBD_DeviceConnect,
 159:/opt/XMClib/XMC_Peripheral_Library_v2.1.16/XMCLib/src/xmc_usbd.c ****   .DeviceDisconnect = XMC_USBD_DeviceDisconnect,
 160:/opt/XMClib/XMC_Peripheral_Library_v2.1.16/XMCLib/src/xmc_usbd.c ****   .DeviceGetState = XMC_USBD_DeviceGetState,
 161:/opt/XMClib/XMC_Peripheral_Library_v2.1.16/XMCLib/src/xmc_usbd.c ****   .DeviceSetAddress = XMC_USBD_DeviceSetAddress,
 162:/opt/XMClib/XMC_Peripheral_Library_v2.1.16/XMCLib/src/xmc_usbd.c ****   .EndpointConfigure = XMC_USBD_EndpointConfigure,
 163:/opt/XMClib/XMC_Peripheral_Library_v2.1.16/XMCLib/src/xmc_usbd.c ****   .EndpointUnconfigure = XMC_USBD_EndpointUnconfigure,
 164:/opt/XMClib/XMC_Peripheral_Library_v2.1.16/XMCLib/src/xmc_usbd.c ****   .EndpointStall = XMC_USBD_EndpointStall,
 165:/opt/XMClib/XMC_Peripheral_Library_v2.1.16/XMCLib/src/xmc_usbd.c ****   .EndpointReadStart = XMC_USBD_EndpointReadStart,
 166:/opt/XMClib/XMC_Peripheral_Library_v2.1.16/XMCLib/src/xmc_usbd.c ****   .EndpointRead = XMC_USBD_EndpointRead,
 167:/opt/XMClib/XMC_Peripheral_Library_v2.1.16/XMCLib/src/xmc_usbd.c ****   .EndpointWrite = XMC_USBD_EndpointWrite,
 168:/opt/XMClib/XMC_Peripheral_Library_v2.1.16/XMCLib/src/xmc_usbd.c ****   .EndpointAbort = XMC_USBD_EndpointAbort,
 169:/opt/XMClib/XMC_Peripheral_Library_v2.1.16/XMCLib/src/xmc_usbd.c ****   .GetFrameNumber = XMC_USBD_GetFrameNumber,
 170:/opt/XMClib/XMC_Peripheral_Library_v2.1.16/XMCLib/src/xmc_usbd.c ****   .IsEnumDone = XMC_USBD_IsEnumDone
 171:/opt/XMClib/XMC_Peripheral_Library_v2.1.16/XMCLib/src/xmc_usbd.c **** };
 172:/opt/XMClib/XMC_Peripheral_Library_v2.1.16/XMCLib/src/xmc_usbd.c **** 
 173:/opt/XMClib/XMC_Peripheral_Library_v2.1.16/XMCLib/src/xmc_usbd.c **** /**
 174:/opt/XMClib/XMC_Peripheral_Library_v2.1.16/XMCLib/src/xmc_usbd.c ****  * @brief Checks if device is active
 175:/opt/XMClib/XMC_Peripheral_Library_v2.1.16/XMCLib/src/xmc_usbd.c ****  *
 176:/opt/XMClib/XMC_Peripheral_Library_v2.1.16/XMCLib/src/xmc_usbd.c ****  * Therefore the endpoint inInUse flag are checked and if one endpoint is in use, 1 is returned,
 177:/opt/XMClib/XMC_Peripheral_Library_v2.1.16/XMCLib/src/xmc_usbd.c ****  * else 0 is returned.
 178:/opt/XMClib/XMC_Peripheral_Library_v2.1.16/XMCLib/src/xmc_usbd.c ****  * @return 1 if an endpoint is active else 0
 179:/opt/XMClib/XMC_Peripheral_Library_v2.1.16/XMCLib/src/xmc_usbd.c ****  */
 180:/opt/XMClib/XMC_Peripheral_Library_v2.1.16/XMCLib/src/xmc_usbd.c **** uint8_t XMC_USBD_lDeviceActive(const XMC_USBD_t *const obj) 
 181:/opt/XMClib/XMC_Peripheral_Library_v2.1.16/XMCLib/src/xmc_usbd.c **** {
 182:/opt/XMClib/XMC_Peripheral_Library_v2.1.16/XMCLib/src/xmc_usbd.c ****   uint8_t i;
 183:/opt/XMClib/XMC_Peripheral_Library_v2.1.16/XMCLib/src/xmc_usbd.c ****   uint8_t result = 0U;
 184:/opt/XMClib/XMC_Peripheral_Library_v2.1.16/XMCLib/src/xmc_usbd.c ****   for (i = 0U; i < (uint8_t)obj->usbd_max_num_eps; i++)
 185:/opt/XMClib/XMC_Peripheral_Library_v2.1.16/XMCLib/src/xmc_usbd.c ****   {
 186:/opt/XMClib/XMC_Peripheral_Library_v2.1.16/XMCLib/src/xmc_usbd.c ****     if (xmc_device.ep[i].inInUse || xmc_device.ep[i].outInUse)
 187:/opt/XMClib/XMC_Peripheral_Library_v2.1.16/XMCLib/src/xmc_usbd.c ****     {
 188:/opt/XMClib/XMC_Peripheral_Library_v2.1.16/XMCLib/src/xmc_usbd.c ****       result = 1U;
 189:/opt/XMClib/XMC_Peripheral_Library_v2.1.16/XMCLib/src/xmc_usbd.c ****     }
 190:/opt/XMClib/XMC_Peripheral_Library_v2.1.16/XMCLib/src/xmc_usbd.c ****   }
 191:/opt/XMClib/XMC_Peripheral_Library_v2.1.16/XMCLib/src/xmc_usbd.c ****   return result;
 192:/opt/XMClib/XMC_Peripheral_Library_v2.1.16/XMCLib/src/xmc_usbd.c **** }
 193:/opt/XMClib/XMC_Peripheral_Library_v2.1.16/XMCLib/src/xmc_usbd.c **** 
 194:/opt/XMClib/XMC_Peripheral_Library_v2.1.16/XMCLib/src/xmc_usbd.c **** 
 195:/opt/XMClib/XMC_Peripheral_Library_v2.1.16/XMCLib/src/xmc_usbd.c **** /**
 196:/opt/XMClib/XMC_Peripheral_Library_v2.1.16/XMCLib/src/xmc_usbd.c ****  * @brief Read data from the rx fifo
 197:/opt/XMClib/XMC_Peripheral_Library_v2.1.16/XMCLib/src/xmc_usbd.c ****  *
 198:/opt/XMClib/XMC_Peripheral_Library_v2.1.16/XMCLib/src/xmc_usbd.c ****  * The data from the fifo is copied in to the buffer specified by @ref xfer_buffer and
 199:/opt/XMClib/XMC_Peripheral_Library_v2.1.16/XMCLib/src/xmc_usbd.c ****  * the transfer values get updated. If the endpoint is disabled or the buffer not existent
 200:/opt/XMClib/XMC_Peripheral_Library_v2.1.16/XMCLib/src/xmc_usbd.c ****  * the function exits.
 201:/opt/XMClib/XMC_Peripheral_Library_v2.1.16/XMCLib/src/xmc_usbd.c ****  *
 202:/opt/XMClib/XMC_Peripheral_Library_v2.1.16/XMCLib/src/xmc_usbd.c ****  * @arg ep_num the endpoint to read for
 203:/opt/XMClib/XMC_Peripheral_Library_v2.1.16/XMCLib/src/xmc_usbd.c ****  * @arg byte_count the byte count to read
 204:/opt/XMClib/XMC_Peripheral_Library_v2.1.16/XMCLib/src/xmc_usbd.c ****  */
 205:/opt/XMClib/XMC_Peripheral_Library_v2.1.16/XMCLib/src/xmc_usbd.c **** static void XMC_USBD_lReadFifo(const uint32_t ep_num,const uint32_t byte_count) 
 206:/opt/XMClib/XMC_Peripheral_Library_v2.1.16/XMCLib/src/xmc_usbd.c **** {
  28              		.loc 1 206 1 view -0
  29              		.cfi_startproc
  30              		@ args = 0, pretend = 0, frame = 0
  31              		@ frame_needed = 0, uses_anonymous_args = 0
 207:/opt/XMClib/XMC_Peripheral_Library_v2.1.16/XMCLib/src/xmc_usbd.c ****   XMC_USBD_EP_t * ep = &xmc_device.ep[ep_num];
  32              		.loc 1 207 3 view .LVU1
 208:/opt/XMClib/XMC_Peripheral_Library_v2.1.16/XMCLib/src/xmc_usbd.c ****   uint32_t word_count;
  33              		.loc 1 208 3 view .LVU2
 209:/opt/XMClib/XMC_Peripheral_Library_v2.1.16/XMCLib/src/xmc_usbd.c ****   uint32_t temp_data;
  34              		.loc 1 209 3 view .LVU3
 210:/opt/XMClib/XMC_Peripheral_Library_v2.1.16/XMCLib/src/xmc_usbd.c ****   uint32_t temp_word_count;
  35              		.loc 1 210 3 view .LVU4
 211:/opt/XMClib/XMC_Peripheral_Library_v2.1.16/XMCLib/src/xmc_usbd.c ****   volatile uint32_t *fifo = xmc_device.fifo[0U];
  36              		.loc 1 211 3 view .LVU5
 212:/opt/XMClib/XMC_Peripheral_Library_v2.1.16/XMCLib/src/xmc_usbd.c ****   uint32_t i;
  37              		.loc 1 212 3 view .LVU6
 213:/opt/XMClib/XMC_Peripheral_Library_v2.1.16/XMCLib/src/xmc_usbd.c ****   depctl_data_t data;
  38              		.loc 1 213 3 view .LVU7
 214:/opt/XMClib/XMC_Peripheral_Library_v2.1.16/XMCLib/src/xmc_usbd.c ****   data.d32 = xmc_device.endpoint_out_register[ep_num]->doepctl;
  39              		.loc 1 214 3 view .LVU8
  40              		.loc 1 214 46 is_stmt 0 view .LVU9
  41 0000 2B4B     		ldr	r3, .L16
  42 0002 03EB8003 		add	r3, r3, r0, lsl #2
  43 0006 D3F8C431 		ldr	r3, [r3, #452]
  44              		.loc 1 214 54 view .LVU10
  45 000a 1B68     		ldr	r3, [r3]
  46              	.LVL1:
 215:/opt/XMClib/XMC_Peripheral_Library_v2.1.16/XMCLib/src/xmc_usbd.c ****   word_count = (byte_count >> 2U );
  47              		.loc 1 215 3 is_stmt 1 view .LVU11
 216:/opt/XMClib/XMC_Peripheral_Library_v2.1.16/XMCLib/src/xmc_usbd.c ****   temp_word_count = (word_count << 2U);
  48              		.loc 1 216 3 view .LVU12
 217:/opt/XMClib/XMC_Peripheral_Library_v2.1.16/XMCLib/src/xmc_usbd.c ****   /* Check if ep is enabled and has buffer */
 218:/opt/XMClib/XMC_Peripheral_Library_v2.1.16/XMCLib/src/xmc_usbd.c ****   if (!data.b.usbactep)
  49              		.loc 1 218 3 view .LVU13
  50              		.loc 1 218 6 is_stmt 0 view .LVU14
  51 000c 13F4004F 		tst	r3, #32768
  52 0010 00D1     		bne	.L15
  53              	.LVL2:
  54              	.L12:
  55              		.loc 1 218 6 view .LVU15
  56 0012 7047     		bx	lr
  57              	.LVL3:
  58              	.L15:
 219:/opt/XMClib/XMC_Peripheral_Library_v2.1.16/XMCLib/src/xmc_usbd.c ****   {
 220:/opt/XMClib/XMC_Peripheral_Library_v2.1.16/XMCLib/src/xmc_usbd.c ****     /*Do Nothing*/
 221:/opt/XMClib/XMC_Peripheral_Library_v2.1.16/XMCLib/src/xmc_usbd.c ****   }
 222:/opt/XMClib/XMC_Peripheral_Library_v2.1.16/XMCLib/src/xmc_usbd.c ****   else if (ep->xferBuffer == NULL)
  59              		.loc 1 222 8 is_stmt 1 view .LVU16
  60              		.loc 1 222 14 is_stmt 0 view .LVU17
  61 0014 264B     		ldr	r3, .L16
  62              	.LVL4:
  63              		.loc 1 222 14 view .LVU18
  64 0016 3422     		movs	r2, #52
  65 0018 02FB0033 		mla	r3, r2, r0, r3
  66              		.loc 1 222 11 view .LVU19
  67 001c 5B6A     		ldr	r3, [r3, #36]
  68 001e 002B     		cmp	r3, #0
  69 0020 F7D0     		beq	.L12
 206:/opt/XMClib/XMC_Peripheral_Library_v2.1.16/XMCLib/src/xmc_usbd.c ****   XMC_USBD_EP_t * ep = &xmc_device.ep[ep_num];
  70              		.loc 1 206 1 view .LVU20
  71 0022 F0B5     		push	{r4, r5, r6, r7, lr}
  72              	.LCFI0:
  73              		.cfi_def_cfa_offset 20
  74              		.cfi_offset 4, -20
  75              		.cfi_offset 5, -16
  76              		.cfi_offset 6, -12
  77              		.cfi_offset 7, -8
  78              		.cfi_offset 14, -4
 211:/opt/XMClib/XMC_Peripheral_Library_v2.1.16/XMCLib/src/xmc_usbd.c ****   uint32_t i;
  79              		.loc 1 211 22 view .LVU21
  80 0024 224B     		ldr	r3, .L16
  81 0026 D3F8E051 		ldr	r5, [r3, #480]
  82              	.LVL5:
 223:/opt/XMClib/XMC_Peripheral_Library_v2.1.16/XMCLib/src/xmc_usbd.c ****   {
 224:/opt/XMClib/XMC_Peripheral_Library_v2.1.16/XMCLib/src/xmc_usbd.c **** 	/*Do Nothing*/
 225:/opt/XMClib/XMC_Peripheral_Library_v2.1.16/XMCLib/src/xmc_usbd.c ****   }
 226:/opt/XMClib/XMC_Peripheral_Library_v2.1.16/XMCLib/src/xmc_usbd.c ****   else
 227:/opt/XMClib/XMC_Peripheral_Library_v2.1.16/XMCLib/src/xmc_usbd.c ****   {
 228:/opt/XMClib/XMC_Peripheral_Library_v2.1.16/XMCLib/src/xmc_usbd.c ****     /* store the data */
 229:/opt/XMClib/XMC_Peripheral_Library_v2.1.16/XMCLib/src/xmc_usbd.c ****     for (i = 0U;i < word_count; i++)
  83              		.loc 1 229 19 is_stmt 1 discriminator 1 view .LVU22
  84 002a 8F08     		lsrs	r7, r1, #2
  85 002c 38D0     		beq	.L3
  86 002e 4FEA870E 		lsl	lr, r7, #2
  87 0032 0023     		movs	r3, #0
 230:/opt/XMClib/XMC_Peripheral_Library_v2.1.16/XMCLib/src/xmc_usbd.c ****     {
 231:/opt/XMClib/XMC_Peripheral_Library_v2.1.16/XMCLib/src/xmc_usbd.c ****       *(((uint32_t*)ep->xferBuffer)+i) = *fifo;
  88              		.loc 1 231 23 is_stmt 0 view .LVU23
  89 0034 1E4A     		ldr	r2, .L16
  90 0036 3424     		movs	r4, #52
  91 0038 04FB002C 		mla	ip, r4, r0, r2
  92              	.LVL6:
  93              	.L4:
  94              		.loc 1 231 7 is_stmt 1 view .LVU24
  95              		.loc 1 231 42 is_stmt 0 view .LVU25
  96 003c 2C68     		ldr	r4, [r5]
  97              		.loc 1 231 40 view .LVU26
  98 003e DCF82420 		ldr	r2, [ip, #36]
  99 0042 D450     		str	r4, [r2, r3]
 229:/opt/XMClib/XMC_Peripheral_Library_v2.1.16/XMCLib/src/xmc_usbd.c ****     {
 100              		.loc 1 229 34 is_stmt 1 discriminator 3 view .LVU27
 229:/opt/XMClib/XMC_Peripheral_Library_v2.1.16/XMCLib/src/xmc_usbd.c ****     {
 101              		.loc 1 229 19 discriminator 1 view .LVU28
 102 0044 0433     		adds	r3, r3, #4
 103 0046 7345     		cmp	r3, lr
 104 0048 F8D1     		bne	.L4
 232:/opt/XMClib/XMC_Peripheral_Library_v2.1.16/XMCLib/src/xmc_usbd.c ****     }
 233:/opt/XMClib/XMC_Peripheral_Library_v2.1.16/XMCLib/src/xmc_usbd.c ****     /* space is not devidable by 4 */
 234:/opt/XMClib/XMC_Peripheral_Library_v2.1.16/XMCLib/src/xmc_usbd.c ****     if (byte_count!=temp_word_count)
 105              		.loc 1 234 5 view .LVU29
 106              		.loc 1 234 8 is_stmt 0 view .LVU30
 107 004a 11F0030F 		tst	r1, #3
 108 004e 1CD0     		beq	.L5
 216:/opt/XMClib/XMC_Peripheral_Library_v2.1.16/XMCLib/src/xmc_usbd.c ****   /* Check if ep is enabled and has buffer */
 109              		.loc 1 216 19 view .LVU31
 110 0050 21F00303 		bic	r3, r1, #3
 235:/opt/XMClib/XMC_Peripheral_Library_v2.1.16/XMCLib/src/xmc_usbd.c ****     {
 236:/opt/XMClib/XMC_Peripheral_Library_v2.1.16/XMCLib/src/xmc_usbd.c ****       temp_data = *fifo;
 111              		.loc 1 236 7 is_stmt 1 view .LVU32
 112              		.loc 1 236 17 is_stmt 0 view .LVU33
 113 0054 2E68     		ldr	r6, [r5]
 114              	.LVL7:
 237:/opt/XMClib/XMC_Peripheral_Library_v2.1.16/XMCLib/src/xmc_usbd.c ****       for (i = 0U;(temp_word_count + i) < byte_count;i++)
 115              		.loc 1 237 7 is_stmt 1 view .LVU34
 116              		.loc 1 237 41 discriminator 1 view .LVU35
 117 0056 9942     		cmp	r1, r3
 118 0058 17D9     		bls	.L5
 119              	.L7:
 238:/opt/XMClib/XMC_Peripheral_Library_v2.1.16/XMCLib/src/xmc_usbd.c ****       {
 239:/opt/XMClib/XMC_Peripheral_Library_v2.1.16/XMCLib/src/xmc_usbd.c ****         ep->xferBuffer[(word_count << 2)+i] = (uint8_t)((temp_data & ((uint32_t)0xFFU << (i * 8U)))
 120              		.loc 1 239 36 is_stmt 0 view .LVU36
 121 005a 4FEA870C 		lsl	ip, r7, #2
 122 005e C3EB8705 		rsb	r5, r3, r7, lsl #2
 123 0062 0D44     		add	r5, r5, r1
 124 0064 0022     		movs	r2, #0
 125              		.loc 1 239 11 view .LVU37
 126 0066 124B     		ldr	r3, .L16
 127 0068 3424     		movs	r4, #52
 128 006a 04FB003E 		mla	lr, r4, r0, r3
 129              		.loc 1 239 87 view .LVU38
 130 006e FF27     		movs	r7, #255
 131              	.LVL8:
 132              	.L6:
 133              		.loc 1 239 9 is_stmt 1 view .LVU39
 134              		.loc 1 239 45 is_stmt 0 view .LVU40
 135 0070 DEF82440 		ldr	r4, [lr, #36]
 136              		.loc 1 239 87 view .LVU41
 137 0074 07FA02F3 		lsl	r3, r7, r2
 138              		.loc 1 239 68 view .LVU42
 139 0078 3340     		ands	r3, r3, r6
 140              		.loc 1 239 101 view .LVU43
 141 007a D340     		lsrs	r3, r3, r2
 142              		.loc 1 239 47 view .LVU44
 143 007c 04F80C30 		strb	r3, [r4, ip]
 237:/opt/XMClib/XMC_Peripheral_Library_v2.1.16/XMCLib/src/xmc_usbd.c ****       for (i = 0U;(temp_word_count + i) < byte_count;i++)
 144              		.loc 1 237 55 is_stmt 1 discriminator 3 view .LVU45
 145              	.LVL9:
 237:/opt/XMClib/XMC_Peripheral_Library_v2.1.16/XMCLib/src/xmc_usbd.c ****       for (i = 0U;(temp_word_count + i) < byte_count;i++)
 146              		.loc 1 237 41 discriminator 1 view .LVU46
 147 0080 0832     		adds	r2, r2, #8
 148 0082 0CF1010C 		add	ip, ip, #1
 149 0086 AC45     		cmp	ip, r5
 150 0088 F2D1     		bne	.L6
 151              	.LVL10:
 152              	.L5:
 240:/opt/XMClib/XMC_Peripheral_Library_v2.1.16/XMCLib/src/xmc_usbd.c ****       }
 241:/opt/XMClib/XMC_Peripheral_Library_v2.1.16/XMCLib/src/xmc_usbd.c ****     }
 242:/opt/XMClib/XMC_Peripheral_Library_v2.1.16/XMCLib/src/xmc_usbd.c **** 
 243:/opt/XMClib/XMC_Peripheral_Library_v2.1.16/XMCLib/src/xmc_usbd.c ****     /* save the amount of data */
 244:/opt/XMClib/XMC_Peripheral_Library_v2.1.16/XMCLib/src/xmc_usbd.c ****     ep->xferCount += byte_count;
 153              		.loc 1 244 5 view .LVU47
 154              		.loc 1 244 19 is_stmt 0 view .LVU48
 155 008a 094B     		ldr	r3, .L16
 156 008c 3422     		movs	r2, #52
 157 008e 02FB0033 		mla	r3, r2, r0, r3
 158 0092 DA6A     		ldr	r2, [r3, #44]
 159 0094 0A44     		add	r2, r2, r1
 160 0096 DA62     		str	r2, [r3, #44]
 245:/opt/XMClib/XMC_Peripheral_Library_v2.1.16/XMCLib/src/xmc_usbd.c ****     ep->xferBuffer += byte_count;
 161              		.loc 1 245 5 is_stmt 1 view .LVU49
 162              		.loc 1 245 20 is_stmt 0 view .LVU50
 163 0098 5A6A     		ldr	r2, [r3, #36]
 164 009a 0A44     		add	r2, r2, r1
 165 009c 5A62     		str	r2, [r3, #36]
 166              	.LVL11:
 246:/opt/XMClib/XMC_Peripheral_Library_v2.1.16/XMCLib/src/xmc_usbd.c ****   }
 247:/opt/XMClib/XMC_Peripheral_Library_v2.1.16/XMCLib/src/xmc_usbd.c **** }
 167              		.loc 1 247 1 view .LVU51
 168 009e F0BD     		pop	{r4, r5, r6, r7, pc}
 169              	.LVL12:
 170              	.L3:
 234:/opt/XMClib/XMC_Peripheral_Library_v2.1.16/XMCLib/src/xmc_usbd.c ****     {
 171              		.loc 1 234 5 is_stmt 1 view .LVU52
 234:/opt/XMClib/XMC_Peripheral_Library_v2.1.16/XMCLib/src/xmc_usbd.c ****     {
 172              		.loc 1 234 8 is_stmt 0 view .LVU53
 173 00a0 11F0030F 		tst	r1, #3
 174 00a4 F1D0     		beq	.L5
 216:/opt/XMClib/XMC_Peripheral_Library_v2.1.16/XMCLib/src/xmc_usbd.c ****   /* Check if ep is enabled and has buffer */
 175              		.loc 1 216 19 view .LVU54
 176 00a6 21F00303 		bic	r3, r1, #3
 236:/opt/XMClib/XMC_Peripheral_Library_v2.1.16/XMCLib/src/xmc_usbd.c ****       for (i = 0U;(temp_word_count + i) < byte_count;i++)
 177              		.loc 1 236 7 is_stmt 1 view .LVU55
 236:/opt/XMClib/XMC_Peripheral_Library_v2.1.16/XMCLib/src/xmc_usbd.c ****       for (i = 0U;(temp_word_count + i) < byte_count;i++)
 178              		.loc 1 236 17 is_stmt 0 view .LVU56
 179 00aa 2E68     		ldr	r6, [r5]
 180              	.LVL13:
 237:/opt/XMClib/XMC_Peripheral_Library_v2.1.16/XMCLib/src/xmc_usbd.c ****       {
 181              		.loc 1 237 7 is_stmt 1 view .LVU57
 237:/opt/XMClib/XMC_Peripheral_Library_v2.1.16/XMCLib/src/xmc_usbd.c ****       {
 182              		.loc 1 237 41 discriminator 1 view .LVU58
 183 00ac D5E7     		b	.L7
 184              	.L17:
 185 00ae 00BF     		.align	2
 186              	.L16:
 187 00b0 00000000 		.word	.LANCHOR0
 188              		.cfi_endproc
 189              	.LFE163:
 191              		.section	.text.XMC_USBD_lFlushTXFifo,"ax",%progbits
 192              		.align	1
 193              		.syntax unified
 194              		.thumb
 195              		.thumb_func
 197              	XMC_USBD_lFlushTXFifo:
 198              	.LVL14:
 199              	.LFB165:
 248:/opt/XMClib/XMC_Peripheral_Library_v2.1.16/XMCLib/src/xmc_usbd.c **** 
 249:/opt/XMClib/XMC_Peripheral_Library_v2.1.16/XMCLib/src/xmc_usbd.c **** /**
 250:/opt/XMClib/XMC_Peripheral_Library_v2.1.16/XMCLib/src/xmc_usbd.c ****  * @brief Write data to an endpoint fifo
 251:/opt/XMClib/XMC_Peripheral_Library_v2.1.16/XMCLib/src/xmc_usbd.c ****  *
 252:/opt/XMClib/XMC_Peripheral_Library_v2.1.16/XMCLib/src/xmc_usbd.c ****  * The data from the @ref xfer_buffer gets copied in to the tx fifo of the endpoint until the buffe
 253:/opt/XMClib/XMC_Peripheral_Library_v2.1.16/XMCLib/src/xmc_usbd.c ****  *completely or the tx fifo is full. The transfer values are not updated.
 254:/opt/XMClib/XMC_Peripheral_Library_v2.1.16/XMCLib/src/xmc_usbd.c ****  *
 255:/opt/XMClib/XMC_Peripheral_Library_v2.1.16/XMCLib/src/xmc_usbd.c ****  * @arg[in] ep the endpoint to use
 256:/opt/XMClib/XMC_Peripheral_Library_v2.1.16/XMCLib/src/xmc_usbd.c ****  * @return the number of bytes written to the fifo
 257:/opt/XMClib/XMC_Peripheral_Library_v2.1.16/XMCLib/src/xmc_usbd.c ****  */
 258:/opt/XMClib/XMC_Peripheral_Library_v2.1.16/XMCLib/src/xmc_usbd.c **** static uint32_t XMC_USBD_lWriteFifo(XMC_USBD_EP_t *const ep) 
 259:/opt/XMClib/XMC_Peripheral_Library_v2.1.16/XMCLib/src/xmc_usbd.c **** {
 260:/opt/XMClib/XMC_Peripheral_Library_v2.1.16/XMCLib/src/xmc_usbd.c ****   dtxfsts_data_t freeSpace; 
 261:/opt/XMClib/XMC_Peripheral_Library_v2.1.16/XMCLib/src/xmc_usbd.c ****   volatile uint32_t *fifo;
 262:/opt/XMClib/XMC_Peripheral_Library_v2.1.16/XMCLib/src/xmc_usbd.c ****   uint32_t byte_count;
 263:/opt/XMClib/XMC_Peripheral_Library_v2.1.16/XMCLib/src/xmc_usbd.c ****   uint32_t word_count;
 264:/opt/XMClib/XMC_Peripheral_Library_v2.1.16/XMCLib/src/xmc_usbd.c ****   uint32_t result;
 265:/opt/XMClib/XMC_Peripheral_Library_v2.1.16/XMCLib/src/xmc_usbd.c ****   uint32_t i;
 266:/opt/XMClib/XMC_Peripheral_Library_v2.1.16/XMCLib/src/xmc_usbd.c ****   fifo = xmc_device.fifo[ep->address_u.address_st.number]; /* fifo */
 267:/opt/XMClib/XMC_Peripheral_Library_v2.1.16/XMCLib/src/xmc_usbd.c ****   freeSpace.d32 = xmc_device.endpoint_in_register[ep->address_u.address_st.number]->dtxfsts;
 268:/opt/XMClib/XMC_Peripheral_Library_v2.1.16/XMCLib/src/xmc_usbd.c ****   /* calculate the length and the amount of dwords to copy based on the fifo status */
 269:/opt/XMClib/XMC_Peripheral_Library_v2.1.16/XMCLib/src/xmc_usbd.c ****   byte_count = ep->xferLength - ep->xferCount;
 270:/opt/XMClib/XMC_Peripheral_Library_v2.1.16/XMCLib/src/xmc_usbd.c ****   if (!byte_count)
 271:/opt/XMClib/XMC_Peripheral_Library_v2.1.16/XMCLib/src/xmc_usbd.c ****   {
 272:/opt/XMClib/XMC_Peripheral_Library_v2.1.16/XMCLib/src/xmc_usbd.c ****     result = 0U;
 273:/opt/XMClib/XMC_Peripheral_Library_v2.1.16/XMCLib/src/xmc_usbd.c ****   }
 274:/opt/XMClib/XMC_Peripheral_Library_v2.1.16/XMCLib/src/xmc_usbd.c ****   else
 275:/opt/XMClib/XMC_Peripheral_Library_v2.1.16/XMCLib/src/xmc_usbd.c ****   {
 276:/opt/XMClib/XMC_Peripheral_Library_v2.1.16/XMCLib/src/xmc_usbd.c ****     /* add the unaligned bytes to the word count to compare with the fifo space */
 277:/opt/XMClib/XMC_Peripheral_Library_v2.1.16/XMCLib/src/xmc_usbd.c ****     word_count = ((uint32_t)byte_count + 3U) >> 2U;
 278:/opt/XMClib/XMC_Peripheral_Library_v2.1.16/XMCLib/src/xmc_usbd.c ****     if (word_count > (uint32_t)freeSpace.b.txfspcavail )
 279:/opt/XMClib/XMC_Peripheral_Library_v2.1.16/XMCLib/src/xmc_usbd.c ****     {
 280:/opt/XMClib/XMC_Peripheral_Library_v2.1.16/XMCLib/src/xmc_usbd.c ****       word_count = (uint32_t)freeSpace.b.txfspcavail;
 281:/opt/XMClib/XMC_Peripheral_Library_v2.1.16/XMCLib/src/xmc_usbd.c ****       byte_count = (uint32_t)word_count << (uint32_t)2U;
 282:/opt/XMClib/XMC_Peripheral_Library_v2.1.16/XMCLib/src/xmc_usbd.c ****     }
 283:/opt/XMClib/XMC_Peripheral_Library_v2.1.16/XMCLib/src/xmc_usbd.c **** 
 284:/opt/XMClib/XMC_Peripheral_Library_v2.1.16/XMCLib/src/xmc_usbd.c ****     /* copy data dword wise */
 285:/opt/XMClib/XMC_Peripheral_Library_v2.1.16/XMCLib/src/xmc_usbd.c ****     for (i = 0U; i < word_count;ep->xferBuffer+= 4U)
 286:/opt/XMClib/XMC_Peripheral_Library_v2.1.16/XMCLib/src/xmc_usbd.c ****     {
 287:/opt/XMClib/XMC_Peripheral_Library_v2.1.16/XMCLib/src/xmc_usbd.c ****       *fifo = *(uint32_t*)ep->xferBuffer;
 288:/opt/XMClib/XMC_Peripheral_Library_v2.1.16/XMCLib/src/xmc_usbd.c ****       i++;
 289:/opt/XMClib/XMC_Peripheral_Library_v2.1.16/XMCLib/src/xmc_usbd.c ****     }
 290:/opt/XMClib/XMC_Peripheral_Library_v2.1.16/XMCLib/src/xmc_usbd.c ****     result=byte_count;
 291:/opt/XMClib/XMC_Peripheral_Library_v2.1.16/XMCLib/src/xmc_usbd.c ****   }
 292:/opt/XMClib/XMC_Peripheral_Library_v2.1.16/XMCLib/src/xmc_usbd.c ****   return result;
 293:/opt/XMClib/XMC_Peripheral_Library_v2.1.16/XMCLib/src/xmc_usbd.c **** }
 294:/opt/XMClib/XMC_Peripheral_Library_v2.1.16/XMCLib/src/xmc_usbd.c **** 
 295:/opt/XMClib/XMC_Peripheral_Library_v2.1.16/XMCLib/src/xmc_usbd.c **** /**
 296:/opt/XMClib/XMC_Peripheral_Library_v2.1.16/XMCLib/src/xmc_usbd.c ****  * @brief Flush a tx fifo
 297:/opt/XMClib/XMC_Peripheral_Library_v2.1.16/XMCLib/src/xmc_usbd.c ****  *
 298:/opt/XMClib/XMC_Peripheral_Library_v2.1.16/XMCLib/src/xmc_usbd.c ****  * @param[in] fifo_num Fifo number to flush
 299:/opt/XMClib/XMC_Peripheral_Library_v2.1.16/XMCLib/src/xmc_usbd.c ****  *
 300:/opt/XMClib/XMC_Peripheral_Library_v2.1.16/XMCLib/src/xmc_usbd.c ****  * @note Use 0x10 as parameter to flush all tx fifos.
 301:/opt/XMClib/XMC_Peripheral_Library_v2.1.16/XMCLib/src/xmc_usbd.c ****  */
 302:/opt/XMClib/XMC_Peripheral_Library_v2.1.16/XMCLib/src/xmc_usbd.c **** static void XMC_USBD_lFlushTXFifo(const uint8_t fifo_num) 
 303:/opt/XMClib/XMC_Peripheral_Library_v2.1.16/XMCLib/src/xmc_usbd.c **** {
 200              		.loc 1 303 1 view -0
 201              		.cfi_startproc
 202              		@ args = 0, pretend = 0, frame = 8
 203              		@ frame_needed = 0, uses_anonymous_args = 0
 204              		@ link register save eliminated.
 205              		.loc 1 303 1 is_stmt 0 view .LVU60
 206 0000 82B0     		sub	sp, sp, #8
 207              	.LCFI1:
 208              		.cfi_def_cfa_offset 8
 304:/opt/XMClib/XMC_Peripheral_Library_v2.1.16/XMCLib/src/xmc_usbd.c ****   volatile grstctl_t data;  
 209              		.loc 1 304 3 is_stmt 1 view .LVU61
 305:/opt/XMClib/XMC_Peripheral_Library_v2.1.16/XMCLib/src/xmc_usbd.c ****   uint32_t count;
 210              		.loc 1 305 3 view .LVU62
 306:/opt/XMClib/XMC_Peripheral_Library_v2.1.16/XMCLib/src/xmc_usbd.c ****   data.d32 = 0U;
 211              		.loc 1 306 3 view .LVU63
 212              		.loc 1 306 12 is_stmt 0 view .LVU64
 213 0002 0023     		movs	r3, #0
 214 0004 0193     		str	r3, [sp, #4]
 307:/opt/XMClib/XMC_Peripheral_Library_v2.1.16/XMCLib/src/xmc_usbd.c ****   /*flush fifo */
 308:/opt/XMClib/XMC_Peripheral_Library_v2.1.16/XMCLib/src/xmc_usbd.c ****   data.b.txfflsh = 1U;
 215              		.loc 1 308 3 is_stmt 1 view .LVU65
 216              		.loc 1 308 18 is_stmt 0 view .LVU66
 217 0006 019B     		ldr	r3, [sp, #4]
 218 0008 43F02003 		orr	r3, r3, #32
 219 000c 0193     		str	r3, [sp, #4]
 309:/opt/XMClib/XMC_Peripheral_Library_v2.1.16/XMCLib/src/xmc_usbd.c ****   data.b.txfnum = fifo_num;
 220              		.loc 1 309 3 is_stmt 1 view .LVU67
 221              		.loc 1 309 17 is_stmt 0 view .LVU68
 222 000e 019B     		ldr	r3, [sp, #4]
 223 0010 60F38A13 		bfi	r3, r0, #6, #5
 224 0014 0193     		str	r3, [sp, #4]
 310:/opt/XMClib/XMC_Peripheral_Library_v2.1.16/XMCLib/src/xmc_usbd.c ****   xmc_device.global_register->grstctl = data.d32;
 225              		.loc 1 310 3 is_stmt 1 view .LVU69
 226              		.loc 1 310 13 is_stmt 0 view .LVU70
 227 0016 0C4B     		ldr	r3, .L26
 228 0018 D3F8A031 		ldr	r3, [r3, #416]
 229              		.loc 1 310 45 view .LVU71
 230 001c 019A     		ldr	r2, [sp, #4]
 231              		.loc 1 310 39 view .LVU72
 232 001e 1A61     		str	r2, [r3, #16]
 311:/opt/XMClib/XMC_Peripheral_Library_v2.1.16/XMCLib/src/xmc_usbd.c ****   for (count = 0U;count < 1000U; count++){}
 233              		.loc 1 311 3 is_stmt 1 view .LVU73
 234              	.LVL15:
 235              		.loc 1 311 25 discriminator 1 view .LVU74
 310:/opt/XMClib/XMC_Peripheral_Library_v2.1.16/XMCLib/src/xmc_usbd.c ****   xmc_device.global_register->grstctl = data.d32;
 236              		.loc 1 310 39 is_stmt 0 view .LVU75
 237 0020 4FF47A73 		mov	r3, #1000
 238              	.LVL16:
 239              	.L19:
 240              		.loc 1 311 43 is_stmt 1 discriminator 3 view .LVU76
 241              		.loc 1 311 39 discriminator 3 view .LVU77
 242              		.loc 1 311 25 discriminator 1 view .LVU78
 243 0024 013B     		subs	r3, r3, #1
 244              	.LVL17:
 245              		.loc 1 311 25 is_stmt 0 discriminator 1 view .LVU79
 246 0026 FDD1     		bne	.L19
 312:/opt/XMClib/XMC_Peripheral_Library_v2.1.16/XMCLib/src/xmc_usbd.c ****   do
 313:/opt/XMClib/XMC_Peripheral_Library_v2.1.16/XMCLib/src/xmc_usbd.c ****   {
 314:/opt/XMClib/XMC_Peripheral_Library_v2.1.16/XMCLib/src/xmc_usbd.c ****    data.d32 = xmc_device.global_register->grstctl;
 247              		.loc 1 314 25 view .LVU80
 248 0028 074B     		ldr	r3, .L26
 249              	.LVL18:
 250              		.loc 1 314 25 view .LVU81
 251 002a D3F8A021 		ldr	r2, [r3, #416]
 252              	.L20:
 312:/opt/XMClib/XMC_Peripheral_Library_v2.1.16/XMCLib/src/xmc_usbd.c ****   do
 253              		.loc 1 312 3 is_stmt 1 view .LVU82
 254              		.loc 1 314 4 view .LVU83
 255              		.loc 1 314 41 is_stmt 0 view .LVU84
 256 002e 1369     		ldr	r3, [r2, #16]
 257              		.loc 1 314 13 view .LVU85
 258 0030 0193     		str	r3, [sp, #4]
 315:/opt/XMClib/XMC_Peripheral_Library_v2.1.16/XMCLib/src/xmc_usbd.c ****   } while (data.b.txfflsh);
 259              		.loc 1 315 12 is_stmt 1 discriminator 1 view .LVU86
 260              		.loc 1 315 18 is_stmt 0 discriminator 1 view .LVU87
 261 0032 019B     		ldr	r3, [sp, #4]
 262              		.loc 1 315 12 discriminator 1 view .LVU88
 263 0034 13F0200F 		tst	r3, #32
 264 0038 F9D1     		bne	.L20
 265 003a 40F2E933 		movw	r3, #1001
 266              	.LVL19:
 267              	.L21:
 316:/opt/XMClib/XMC_Peripheral_Library_v2.1.16/XMCLib/src/xmc_usbd.c ****     count = 0U;
 317:/opt/XMClib/XMC_Peripheral_Library_v2.1.16/XMCLib/src/xmc_usbd.c ****   while (count++ < 1000U)
 318:/opt/XMClib/XMC_Peripheral_Library_v2.1.16/XMCLib/src/xmc_usbd.c ****   {
 319:/opt/XMClib/XMC_Peripheral_Library_v2.1.16/XMCLib/src/xmc_usbd.c ****     /* wait 3 phy clocks */
 320:/opt/XMClib/XMC_Peripheral_Library_v2.1.16/XMCLib/src/xmc_usbd.c ****   }
 268              		.loc 1 320 3 is_stmt 1 view .LVU89
 317:/opt/XMClib/XMC_Peripheral_Library_v2.1.16/XMCLib/src/xmc_usbd.c ****   {
 269              		.loc 1 317 18 discriminator 1 view .LVU90
 317:/opt/XMClib/XMC_Peripheral_Library_v2.1.16/XMCLib/src/xmc_usbd.c ****   {
 270              		.loc 1 317 18 is_stmt 0 discriminator 1 view .LVU91
 271 003e 013B     		subs	r3, r3, #1
 272              	.LVL20:
 317:/opt/XMClib/XMC_Peripheral_Library_v2.1.16/XMCLib/src/xmc_usbd.c ****   {
 273              		.loc 1 317 18 discriminator 1 view .LVU92
 274 0040 FDD1     		bne	.L21
 321:/opt/XMClib/XMC_Peripheral_Library_v2.1.16/XMCLib/src/xmc_usbd.c **** }
 275              		.loc 1 321 1 view .LVU93
 276 0042 02B0     		add	sp, sp, #8
 277              	.LCFI2:
 278              		.cfi_def_cfa_offset 0
 279              		@ sp needed
 280 0044 7047     		bx	lr
 281              	.L27:
 282 0046 00BF     		.align	2
 283              	.L26:
 284 0048 00000000 		.word	.LANCHOR0
 285              		.cfi_endproc
 286              	.LFE165:
 288              		.section	.text.XMC_USBD_lFlushRXFifo,"ax",%progbits
 289              		.align	1
 290              		.syntax unified
 291              		.thumb
 292              		.thumb_func
 294              	XMC_USBD_lFlushRXFifo:
 295              	.LFB166:
 322:/opt/XMClib/XMC_Peripheral_Library_v2.1.16/XMCLib/src/xmc_usbd.c **** 
 323:/opt/XMClib/XMC_Peripheral_Library_v2.1.16/XMCLib/src/xmc_usbd.c **** /**
 324:/opt/XMClib/XMC_Peripheral_Library_v2.1.16/XMCLib/src/xmc_usbd.c ****  * @brief Flush the rx fifo
 325:/opt/XMClib/XMC_Peripheral_Library_v2.1.16/XMCLib/src/xmc_usbd.c ****  */
 326:/opt/XMClib/XMC_Peripheral_Library_v2.1.16/XMCLib/src/xmc_usbd.c **** static void XMC_USBD_lFlushRXFifo(void) 
 327:/opt/XMClib/XMC_Peripheral_Library_v2.1.16/XMCLib/src/xmc_usbd.c **** {
 296              		.loc 1 327 1 is_stmt 1 view -0
 297              		.cfi_startproc
 298              		@ args = 0, pretend = 0, frame = 8
 299              		@ frame_needed = 0, uses_anonymous_args = 0
 300              		@ link register save eliminated.
 301 0000 82B0     		sub	sp, sp, #8
 302              	.LCFI3:
 303              		.cfi_def_cfa_offset 8
 328:/opt/XMClib/XMC_Peripheral_Library_v2.1.16/XMCLib/src/xmc_usbd.c ****   volatile grstctl_t data;  
 304              		.loc 1 328 3 view .LVU95
 329:/opt/XMClib/XMC_Peripheral_Library_v2.1.16/XMCLib/src/xmc_usbd.c ****   uint32_t count;
 305              		.loc 1 329 3 view .LVU96
 330:/opt/XMClib/XMC_Peripheral_Library_v2.1.16/XMCLib/src/xmc_usbd.c **** 	
 331:/opt/XMClib/XMC_Peripheral_Library_v2.1.16/XMCLib/src/xmc_usbd.c **** 	data.d32 = 0U;
 306              		.loc 1 331 2 view .LVU97
 307              		.loc 1 331 11 is_stmt 0 view .LVU98
 308 0002 0023     		movs	r3, #0
 309 0004 0193     		str	r3, [sp, #4]
 332:/opt/XMClib/XMC_Peripheral_Library_v2.1.16/XMCLib/src/xmc_usbd.c ****   data.b.rxfflsh = 1U;
 310              		.loc 1 332 3 is_stmt 1 view .LVU99
 311              		.loc 1 332 18 is_stmt 0 view .LVU100
 312 0006 019B     		ldr	r3, [sp, #4]
 313 0008 43F01003 		orr	r3, r3, #16
 314 000c 0193     		str	r3, [sp, #4]
 333:/opt/XMClib/XMC_Peripheral_Library_v2.1.16/XMCLib/src/xmc_usbd.c ****   /* flush FIFO */
 334:/opt/XMClib/XMC_Peripheral_Library_v2.1.16/XMCLib/src/xmc_usbd.c ****   xmc_device.global_register->grstctl = data.d32;
 315              		.loc 1 334 3 is_stmt 1 view .LVU101
 316              		.loc 1 334 13 is_stmt 0 view .LVU102
 317 000e 0B4B     		ldr	r3, .L36
 318 0010 D3F8A021 		ldr	r2, [r3, #416]
 319              		.loc 1 334 45 view .LVU103
 320 0014 0199     		ldr	r1, [sp, #4]
 321              		.loc 1 334 39 view .LVU104
 322 0016 1161     		str	r1, [r2, #16]
 335:/opt/XMClib/XMC_Peripheral_Library_v2.1.16/XMCLib/src/xmc_usbd.c ****   do
 336:/opt/XMClib/XMC_Peripheral_Library_v2.1.16/XMCLib/src/xmc_usbd.c ****   {
 337:/opt/XMClib/XMC_Peripheral_Library_v2.1.16/XMCLib/src/xmc_usbd.c ****     for (count = 0U; count < 1000U; count++){}
 338:/opt/XMClib/XMC_Peripheral_Library_v2.1.16/XMCLib/src/xmc_usbd.c ****     data.d32 = xmc_device.global_register->grstctl;
 323              		.loc 1 338 26 view .LVU105
 324 0018 D3F8A021 		ldr	r2, [r3, #416]
 325              	.L30:
 335:/opt/XMClib/XMC_Peripheral_Library_v2.1.16/XMCLib/src/xmc_usbd.c ****   do
 326              		.loc 1 335 3 is_stmt 1 view .LVU106
 337:/opt/XMClib/XMC_Peripheral_Library_v2.1.16/XMCLib/src/xmc_usbd.c ****     data.d32 = xmc_device.global_register->grstctl;
 327              		.loc 1 337 5 view .LVU107
 328              	.LVL21:
 337:/opt/XMClib/XMC_Peripheral_Library_v2.1.16/XMCLib/src/xmc_usbd.c ****     data.d32 = xmc_device.global_register->grstctl;
 329              		.loc 1 337 28 discriminator 1 view .LVU108
 327:/opt/XMClib/XMC_Peripheral_Library_v2.1.16/XMCLib/src/xmc_usbd.c ****   volatile grstctl_t data;  
 330              		.loc 1 327 1 is_stmt 0 view .LVU109
 331 001c 4FF47A73 		mov	r3, #1000
 332              	.LVL22:
 333              	.L29:
 337:/opt/XMClib/XMC_Peripheral_Library_v2.1.16/XMCLib/src/xmc_usbd.c ****     data.d32 = xmc_device.global_register->grstctl;
 334              		.loc 1 337 46 is_stmt 1 discriminator 3 view .LVU110
 337:/opt/XMClib/XMC_Peripheral_Library_v2.1.16/XMCLib/src/xmc_usbd.c ****     data.d32 = xmc_device.global_register->grstctl;
 335              		.loc 1 337 42 discriminator 3 view .LVU111
 337:/opt/XMClib/XMC_Peripheral_Library_v2.1.16/XMCLib/src/xmc_usbd.c ****     data.d32 = xmc_device.global_register->grstctl;
 336              		.loc 1 337 28 discriminator 1 view .LVU112
 337 0020 013B     		subs	r3, r3, #1
 338              	.LVL23:
 337:/opt/XMClib/XMC_Peripheral_Library_v2.1.16/XMCLib/src/xmc_usbd.c ****     data.d32 = xmc_device.global_register->grstctl;
 339              		.loc 1 337 28 is_stmt 0 discriminator 1 view .LVU113
 340 0022 FDD1     		bne	.L29
 341              		.loc 1 338 5 is_stmt 1 view .LVU114
 342              		.loc 1 338 42 is_stmt 0 view .LVU115
 343 0024 1369     		ldr	r3, [r2, #16]
 344              	.LVL24:
 345              		.loc 1 338 14 view .LVU116
 346 0026 0193     		str	r3, [sp, #4]
 339:/opt/XMClib/XMC_Peripheral_Library_v2.1.16/XMCLib/src/xmc_usbd.c ****   } while (data.b.rxfflsh);
 347              		.loc 1 339 12 is_stmt 1 view .LVU117
 348              		.loc 1 339 18 is_stmt 0 view .LVU118
 349 0028 019B     		ldr	r3, [sp, #4]
 350              		.loc 1 339 12 view .LVU119
 351 002a 13F0100F 		tst	r3, #16
 352 002e F5D1     		bne	.L30
 353 0030 40F2E933 		movw	r3, #1001
 354              	.LVL25:
 355              	.L31:
 340:/opt/XMClib/XMC_Peripheral_Library_v2.1.16/XMCLib/src/xmc_usbd.c ****   count = 0U;
 341:/opt/XMClib/XMC_Peripheral_Library_v2.1.16/XMCLib/src/xmc_usbd.c ****   while (count++ < 1000U)
 342:/opt/XMClib/XMC_Peripheral_Library_v2.1.16/XMCLib/src/xmc_usbd.c ****   {
 343:/opt/XMClib/XMC_Peripheral_Library_v2.1.16/XMCLib/src/xmc_usbd.c ****     /* wait 3 phy clocks */
 344:/opt/XMClib/XMC_Peripheral_Library_v2.1.16/XMCLib/src/xmc_usbd.c ****   }
 356              		.loc 1 344 3 is_stmt 1 view .LVU120
 341:/opt/XMClib/XMC_Peripheral_Library_v2.1.16/XMCLib/src/xmc_usbd.c ****   {
 357              		.loc 1 341 18 discriminator 1 view .LVU121
 341:/opt/XMClib/XMC_Peripheral_Library_v2.1.16/XMCLib/src/xmc_usbd.c ****   {
 358              		.loc 1 341 18 is_stmt 0 discriminator 1 view .LVU122
 359 0034 013B     		subs	r3, r3, #1
 360              	.LVL26:
 341:/opt/XMClib/XMC_Peripheral_Library_v2.1.16/XMCLib/src/xmc_usbd.c ****   {
 361              		.loc 1 341 18 discriminator 1 view .LVU123
 362 0036 FDD1     		bne	.L31
 345:/opt/XMClib/XMC_Peripheral_Library_v2.1.16/XMCLib/src/xmc_usbd.c **** }
 363              		.loc 1 345 1 view .LVU124
 364 0038 02B0     		add	sp, sp, #8
 365              	.LCFI4:
 366              		.cfi_def_cfa_offset 0
 367              		@ sp needed
 368 003a 7047     		bx	lr
 369              	.L37:
 370              		.align	2
 371              	.L36:
 372 003c 00000000 		.word	.LANCHOR0
 373              		.cfi_endproc
 374              	.LFE166:
 376              		.section	.text.XMC_USBD_lStartReadXfer,"ax",%progbits
 377              		.align	1
 378              		.syntax unified
 379              		.thumb
 380              		.thumb_func
 382              	XMC_USBD_lStartReadXfer:
 383              	.LVL27:
 384              	.LFB169:
 346:/opt/XMClib/XMC_Peripheral_Library_v2.1.16/XMCLib/src/xmc_usbd.c **** 
 347:/opt/XMClib/XMC_Peripheral_Library_v2.1.16/XMCLib/src/xmc_usbd.c **** /*
 348:/opt/XMClib/XMC_Peripheral_Library_v2.1.16/XMCLib/src/xmc_usbd.c ****  * Support Functions
 349:/opt/XMClib/XMC_Peripheral_Library_v2.1.16/XMCLib/src/xmc_usbd.c ****  */
 350:/opt/XMClib/XMC_Peripheral_Library_v2.1.16/XMCLib/src/xmc_usbd.c **** 
 351:/opt/XMClib/XMC_Peripheral_Library_v2.1.16/XMCLib/src/xmc_usbd.c **** /**
 352:/opt/XMClib/XMC_Peripheral_Library_v2.1.16/XMCLib/src/xmc_usbd.c ****  * @brief Assign a free tx fifo
 353:/opt/XMClib/XMC_Peripheral_Library_v2.1.16/XMCLib/src/xmc_usbd.c ****  *
 354:/opt/XMClib/XMC_Peripheral_Library_v2.1.16/XMCLib/src/xmc_usbd.c ****  * A free tx fifo will be searched and the number will be returned.
 355:/opt/XMClib/XMC_Peripheral_Library_v2.1.16/XMCLib/src/xmc_usbd.c ****  *
 356:/opt/XMClib/XMC_Peripheral_Library_v2.1.16/XMCLib/src/xmc_usbd.c ****  * @return Fifo number for a free fifo
 357:/opt/XMClib/XMC_Peripheral_Library_v2.1.16/XMCLib/src/xmc_usbd.c ****  */
 358:/opt/XMClib/XMC_Peripheral_Library_v2.1.16/XMCLib/src/xmc_usbd.c **** static uint8_t XMC_USBD_lAssignTXFifo(void) 
 359:/opt/XMClib/XMC_Peripheral_Library_v2.1.16/XMCLib/src/xmc_usbd.c **** {
 360:/opt/XMClib/XMC_Peripheral_Library_v2.1.16/XMCLib/src/xmc_usbd.c ****   uint16_t mask = 1U;
 361:/opt/XMClib/XMC_Peripheral_Library_v2.1.16/XMCLib/src/xmc_usbd.c ****   uint8_t i = 0U;
 362:/opt/XMClib/XMC_Peripheral_Library_v2.1.16/XMCLib/src/xmc_usbd.c ****   uint8_t result = 0U;
 363:/opt/XMClib/XMC_Peripheral_Library_v2.1.16/XMCLib/src/xmc_usbd.c ****   while( (i < (uint8_t)XMC_USBD_NUM_TX_FIFOS)&&((xmc_device.txfifomsk & mask) != 0U))
 364:/opt/XMClib/XMC_Peripheral_Library_v2.1.16/XMCLib/src/xmc_usbd.c ****   {
 365:/opt/XMClib/XMC_Peripheral_Library_v2.1.16/XMCLib/src/xmc_usbd.c ****     mask = (uint16_t)(mask << 1U);
 366:/opt/XMClib/XMC_Peripheral_Library_v2.1.16/XMCLib/src/xmc_usbd.c ****     i++;
 367:/opt/XMClib/XMC_Peripheral_Library_v2.1.16/XMCLib/src/xmc_usbd.c ****   }
 368:/opt/XMClib/XMC_Peripheral_Library_v2.1.16/XMCLib/src/xmc_usbd.c ****   if ((xmc_device.txfifomsk & mask) == 0U)
 369:/opt/XMClib/XMC_Peripheral_Library_v2.1.16/XMCLib/src/xmc_usbd.c ****   {
 370:/opt/XMClib/XMC_Peripheral_Library_v2.1.16/XMCLib/src/xmc_usbd.c ****     xmc_device.txfifomsk |= mask;
 371:/opt/XMClib/XMC_Peripheral_Library_v2.1.16/XMCLib/src/xmc_usbd.c ****     result=i;
 372:/opt/XMClib/XMC_Peripheral_Library_v2.1.16/XMCLib/src/xmc_usbd.c ****   }
 373:/opt/XMClib/XMC_Peripheral_Library_v2.1.16/XMCLib/src/xmc_usbd.c ****   return result;
 374:/opt/XMClib/XMC_Peripheral_Library_v2.1.16/XMCLib/src/xmc_usbd.c **** }
 375:/opt/XMClib/XMC_Peripheral_Library_v2.1.16/XMCLib/src/xmc_usbd.c **** 
 376:/opt/XMClib/XMC_Peripheral_Library_v2.1.16/XMCLib/src/xmc_usbd.c **** /**
 377:/opt/XMClib/XMC_Peripheral_Library_v2.1.16/XMCLib/src/xmc_usbd.c ****  * @brief Free a tx fifo
 378:/opt/XMClib/XMC_Peripheral_Library_v2.1.16/XMCLib/src/xmc_usbd.c ****  *
 379:/opt/XMClib/XMC_Peripheral_Library_v2.1.16/XMCLib/src/xmc_usbd.c ****  * Mark an used tx fifo as free.
 380:/opt/XMClib/XMC_Peripheral_Library_v2.1.16/XMCLib/src/xmc_usbd.c ****  * @param[in] fifo_nr Fifo number to free
 381:/opt/XMClib/XMC_Peripheral_Library_v2.1.16/XMCLib/src/xmc_usbd.c ****  */
 382:/opt/XMClib/XMC_Peripheral_Library_v2.1.16/XMCLib/src/xmc_usbd.c **** static void XMC_USBD_lUnassignFifo(const uint8_t fifo_nr) 
 383:/opt/XMClib/XMC_Peripheral_Library_v2.1.16/XMCLib/src/xmc_usbd.c **** {
 384:/opt/XMClib/XMC_Peripheral_Library_v2.1.16/XMCLib/src/xmc_usbd.c ****   xmc_device.txfifomsk = (uint16_t)((uint32_t)xmc_device.txfifomsk & (uint32_t)(~((uint32_t)((uint3
 385:/opt/XMClib/XMC_Peripheral_Library_v2.1.16/XMCLib/src/xmc_usbd.c **** }
 386:/opt/XMClib/XMC_Peripheral_Library_v2.1.16/XMCLib/src/xmc_usbd.c **** 
 387:/opt/XMClib/XMC_Peripheral_Library_v2.1.16/XMCLib/src/xmc_usbd.c **** /**
 388:/opt/XMClib/XMC_Peripheral_Library_v2.1.16/XMCLib/src/xmc_usbd.c ****  * @brief Start a transfer for an out endpoint
 389:/opt/XMClib/XMC_Peripheral_Library_v2.1.16/XMCLib/src/xmc_usbd.c ****  *
 390:/opt/XMClib/XMC_Peripheral_Library_v2.1.16/XMCLib/src/xmc_usbd.c ****  * Based on the transfer values of the endpoint, the out endpoint registers will be programmed
 391:/opt/XMClib/XMC_Peripheral_Library_v2.1.16/XMCLib/src/xmc_usbd.c ****  * to start a new out transfer.
 392:/opt/XMClib/XMC_Peripheral_Library_v2.1.16/XMCLib/src/xmc_usbd.c ****  *
 393:/opt/XMClib/XMC_Peripheral_Library_v2.1.16/XMCLib/src/xmc_usbd.c ****  * @note No checking of the transfer values are done in this function. Be sure,
 394:/opt/XMClib/XMC_Peripheral_Library_v2.1.16/XMCLib/src/xmc_usbd.c ****  * that the transfer values are reasonable (e.g. buffer size is not exceeded).
 395:/opt/XMClib/XMC_Peripheral_Library_v2.1.16/XMCLib/src/xmc_usbd.c ****  *
 396:/opt/XMClib/XMC_Peripheral_Library_v2.1.16/XMCLib/src/xmc_usbd.c ****  * @param[in] ep Endpoint to start the transfer
 397:/opt/XMClib/XMC_Peripheral_Library_v2.1.16/XMCLib/src/xmc_usbd.c ****  */
 398:/opt/XMClib/XMC_Peripheral_Library_v2.1.16/XMCLib/src/xmc_usbd.c **** static void XMC_USBD_lStartReadXfer(XMC_USBD_EP_t *const ep) 
 399:/opt/XMClib/XMC_Peripheral_Library_v2.1.16/XMCLib/src/xmc_usbd.c **** {
 385              		.loc 1 399 1 is_stmt 1 view -0
 386              		.cfi_startproc
 387              		@ args = 0, pretend = 0, frame = 0
 388              		@ frame_needed = 0, uses_anonymous_args = 0
 389              		@ link register save eliminated.
 390              		.loc 1 399 1 is_stmt 0 view .LVU126
 391 0000 10B4     		push	{r4}
 392              	.LCFI5:
 393              		.cfi_def_cfa_offset 4
 394              		.cfi_offset 4, -4
 400:/opt/XMClib/XMC_Peripheral_Library_v2.1.16/XMCLib/src/xmc_usbd.c ****   deptsiz_data_t data;
 395              		.loc 1 400 3 is_stmt 1 view .LVU127
 401:/opt/XMClib/XMC_Peripheral_Library_v2.1.16/XMCLib/src/xmc_usbd.c ****   depctl_data_t epctl;
 396              		.loc 1 401 3 view .LVU128
 402:/opt/XMClib/XMC_Peripheral_Library_v2.1.16/XMCLib/src/xmc_usbd.c **** 	
 403:/opt/XMClib/XMC_Peripheral_Library_v2.1.16/XMCLib/src/xmc_usbd.c ****   data.d32 =  0U;
 397              		.loc 1 403 3 view .LVU129
 398              		.loc 1 403 12 is_stmt 0 view .LVU130
 399 0002 0021     		movs	r1, #0
 400              	.LVL28:
 404:/opt/XMClib/XMC_Peripheral_Library_v2.1.16/XMCLib/src/xmc_usbd.c ****   if ((ep->xferTotal - ep->xferLength) > ep->maxTransferSize)
 401              		.loc 1 404 3 is_stmt 1 view .LVU131
 402              		.loc 1 404 10 is_stmt 0 view .LVU132
 403 0004 046B     		ldr	r4, [r0, #48]
 404              		.loc 1 404 26 view .LVU133
 405 0006 836A     		ldr	r3, [r0, #40]
 406              		.loc 1 404 44 view .LVU134
 407 0008 8268     		ldr	r2, [r0, #8]
 408 000a C2F31202 		ubfx	r2, r2, #0, #19
 409              		.loc 1 404 22 view .LVU135
 410 000e A4EB030C 		sub	ip, r4, r3
 411              		.loc 1 404 6 view .LVU136
 412 0012 9445     		cmp	ip, r2
 405:/opt/XMClib/XMC_Peripheral_Library_v2.1.16/XMCLib/src/xmc_usbd.c ****   {
 406:/opt/XMClib/XMC_Peripheral_Library_v2.1.16/XMCLib/src/xmc_usbd.c ****     ep->xferLength += ep->maxTransferSize;
 413              		.loc 1 406 5 is_stmt 1 view .LVU137
 414              		.loc 1 406 20 is_stmt 0 view .LVU138
 415 0014 8CBF     		ite	hi
 416 0016 9B18     		addhi	r3, r3, r2
 407:/opt/XMClib/XMC_Peripheral_Library_v2.1.16/XMCLib/src/xmc_usbd.c ****   }
 408:/opt/XMClib/XMC_Peripheral_Library_v2.1.16/XMCLib/src/xmc_usbd.c ****   else
 409:/opt/XMClib/XMC_Peripheral_Library_v2.1.16/XMCLib/src/xmc_usbd.c ****   {
 410:/opt/XMClib/XMC_Peripheral_Library_v2.1.16/XMCLib/src/xmc_usbd.c ****     ep->xferLength = ep->xferTotal;
 417              		.loc 1 410 20 view .LVU139
 418 0018 2346     		movls	r3, r4
 419 001a 8362     		str	r3, [r0, #40]
 411:/opt/XMClib/XMC_Peripheral_Library_v2.1.16/XMCLib/src/xmc_usbd.c ****   }
 412:/opt/XMClib/XMC_Peripheral_Library_v2.1.16/XMCLib/src/xmc_usbd.c ****   if (ep->address_u.address_st.number == 0U)
 420              		.loc 1 412 3 is_stmt 1 view .LVU140
 421              		.loc 1 412 39 is_stmt 0 view .LVU141
 422 001c 0278     		ldrb	r2, [r0]	@ zero_extendqisi2
 423              		.loc 1 412 6 view .LVU142
 424 001e 12F00F0F 		tst	r2, #15
 425 0022 2CD1     		bne	.L40
 426              	.LBB2:
 413:/opt/XMClib/XMC_Peripheral_Library_v2.1.16/XMCLib/src/xmc_usbd.c ****   {
 414:/opt/XMClib/XMC_Peripheral_Library_v2.1.16/XMCLib/src/xmc_usbd.c **** 	/* Setup the endpoint to receive 3 setup packages and one normal package.*/
 415:/opt/XMClib/XMC_Peripheral_Library_v2.1.16/XMCLib/src/xmc_usbd.c **** 	/* Cast the data pointer to use only one variable */
 416:/opt/XMClib/XMC_Peripheral_Library_v2.1.16/XMCLib/src/xmc_usbd.c ****     deptsiz0_data_t *ep0_data = (deptsiz0_data_t*)&data;
 427              		.loc 1 416 5 is_stmt 1 view .LVU143
 428              	.LVL29:
 417:/opt/XMClib/XMC_Peripheral_Library_v2.1.16/XMCLib/src/xmc_usbd.c ****     ep0_data->b.pktcnt = 0x1U;
 429              		.loc 1 417 5 view .LVU144
 430              		.loc 1 417 24 is_stmt 0 view .LVU145
 431 0024 0123     		movs	r3, #1
 432 0026 63F3D441 		bfi	r1, r3, #19, #2
 433              	.LVL30:
 418:/opt/XMClib/XMC_Peripheral_Library_v2.1.16/XMCLib/src/xmc_usbd.c ****     ep0_data->b.supcnt = 0x3U;
 434              		.loc 1 418 5 is_stmt 1 view .LVU146
 435              		.loc 1 418 24 is_stmt 0 view .LVU147
 436 002a 41F0C041 		orr	r1, r1, #1610612736
 437              	.LVL31:
 419:/opt/XMClib/XMC_Peripheral_Library_v2.1.16/XMCLib/src/xmc_usbd.c ****     ep0_data->b.xfersize = (uint8_t)ep->xferTotal;
 438              		.loc 1 419 5 is_stmt 1 view .LVU148
 439              		.loc 1 419 26 is_stmt 0 view .LVU149
 440 002e 64F30601 		bfi	r1, r4, #0, #7
 441              	.LVL32:
 442              	.L41:
 443              		.loc 1 419 26 view .LVU150
 444              	.LBE2:
 420:/opt/XMClib/XMC_Peripheral_Library_v2.1.16/XMCLib/src/xmc_usbd.c ****   }
 421:/opt/XMClib/XMC_Peripheral_Library_v2.1.16/XMCLib/src/xmc_usbd.c ****   else
 422:/opt/XMClib/XMC_Peripheral_Library_v2.1.16/XMCLib/src/xmc_usbd.c ****   {
 423:/opt/XMClib/XMC_Peripheral_Library_v2.1.16/XMCLib/src/xmc_usbd.c ****     /* If requested length is zero, just receive one zero length packet */
 424:/opt/XMClib/XMC_Peripheral_Library_v2.1.16/XMCLib/src/xmc_usbd.c ****     if (ep->xferLength == 0U)
 425:/opt/XMClib/XMC_Peripheral_Library_v2.1.16/XMCLib/src/xmc_usbd.c ****     {
 426:/opt/XMClib/XMC_Peripheral_Library_v2.1.16/XMCLib/src/xmc_usbd.c ****       data.b.xfersize = 0U;
 427:/opt/XMClib/XMC_Peripheral_Library_v2.1.16/XMCLib/src/xmc_usbd.c ****       data.b.pktcnt = 1U;
 428:/opt/XMClib/XMC_Peripheral_Library_v2.1.16/XMCLib/src/xmc_usbd.c ****     }
 429:/opt/XMClib/XMC_Peripheral_Library_v2.1.16/XMCLib/src/xmc_usbd.c ****     else
 430:/opt/XMClib/XMC_Peripheral_Library_v2.1.16/XMCLib/src/xmc_usbd.c ****     {
 431:/opt/XMClib/XMC_Peripheral_Library_v2.1.16/XMCLib/src/xmc_usbd.c ****       /* setup endpoint to recive a amount of packages by given size */
 432:/opt/XMClib/XMC_Peripheral_Library_v2.1.16/XMCLib/src/xmc_usbd.c ****       data.b.pktcnt = (uint16_t)(((ep->xferLength - ep->xferCount) + (ep->maxPacketSize -(uint32_t)
 433:/opt/XMClib/XMC_Peripheral_Library_v2.1.16/XMCLib/src/xmc_usbd.c ****       data.b.xfersize =(uint32_t)(ep->xferLength - ep->xferCount);
 434:/opt/XMClib/XMC_Peripheral_Library_v2.1.16/XMCLib/src/xmc_usbd.c ****     }
 435:/opt/XMClib/XMC_Peripheral_Library_v2.1.16/XMCLib/src/xmc_usbd.c ****   }
 436:/opt/XMClib/XMC_Peripheral_Library_v2.1.16/XMCLib/src/xmc_usbd.c ****   if(usbd_init->usbd_transfer_mode == XMC_USBD_USE_DMA)
 445              		.loc 1 436 3 is_stmt 1 view .LVU151
 446              		.loc 1 436 15 is_stmt 0 view .LVU152
 447 0032 1C4B     		ldr	r3, .L46
 448 0034 D3F80832 		ldr	r3, [r3, #520]
 449              		.loc 1 436 5 view .LVU153
 450 0038 5B7B     		ldrb	r3, [r3, #13]	@ zero_extendqisi2
 451 003a 4BB9     		cbnz	r3, .L43
 437:/opt/XMClib/XMC_Peripheral_Library_v2.1.16/XMCLib/src/xmc_usbd.c ****   {
 438:/opt/XMClib/XMC_Peripheral_Library_v2.1.16/XMCLib/src/xmc_usbd.c ****     /* Programm dma address if needed */
 439:/opt/XMClib/XMC_Peripheral_Library_v2.1.16/XMCLib/src/xmc_usbd.c ****     xmc_device.endpoint_out_register[ep->address_u.address_st.number]->doepdma = (uint32_t)(ep->xfe
 452              		.loc 1 439 5 is_stmt 1 view .LVU154
 453              		.loc 1 439 62 is_stmt 0 view .LVU155
 454 003c 0278     		ldrb	r2, [r0]	@ zero_extendqisi2
 455 003e 02F00F02 		and	r2, r2, #15
 456              		.loc 1 439 37 view .LVU156
 457 0042 184B     		ldr	r3, .L46
 458 0044 03EB8203 		add	r3, r3, r2, lsl #2
 459 0048 D3F8C431 		ldr	r3, [r3, #452]
 460              		.loc 1 439 82 view .LVU157
 461 004c 426A     		ldr	r2, [r0, #36]
 462              		.loc 1 439 80 view .LVU158
 463 004e 5A61     		str	r2, [r3, #20]
 464              	.L43:
 440:/opt/XMClib/XMC_Peripheral_Library_v2.1.16/XMCLib/src/xmc_usbd.c ****   }
 441:/opt/XMClib/XMC_Peripheral_Library_v2.1.16/XMCLib/src/xmc_usbd.c ****   /* setup endpoint size and enable endpoint */
 442:/opt/XMClib/XMC_Peripheral_Library_v2.1.16/XMCLib/src/xmc_usbd.c ****   xmc_device.endpoint_out_register[ep->address_u.address_st.number]->doeptsiz = data.d32;
 465              		.loc 1 442 3 is_stmt 1 view .LVU159
 466              		.loc 1 442 35 is_stmt 0 view .LVU160
 467 0050 144A     		ldr	r2, .L46
 468              		.loc 1 442 60 view .LVU161
 469 0052 0378     		ldrb	r3, [r0]	@ zero_extendqisi2
 470 0054 03F00F03 		and	r3, r3, #15
 471              		.loc 1 442 35 view .LVU162
 472 0058 02EB8303 		add	r3, r2, r3, lsl #2
 473 005c D3F8C431 		ldr	r3, [r3, #452]
 474              		.loc 1 442 79 view .LVU163
 475 0060 1961     		str	r1, [r3, #16]
 443:/opt/XMClib/XMC_Peripheral_Library_v2.1.16/XMCLib/src/xmc_usbd.c ****  
 444:/opt/XMClib/XMC_Peripheral_Library_v2.1.16/XMCLib/src/xmc_usbd.c ****   epctl.d32 = xmc_device.endpoint_out_register[ep->address_u.address_st.number]->doepctl;
 476              		.loc 1 444 3 is_stmt 1 view .LVU164
 477              		.loc 1 444 72 is_stmt 0 view .LVU165
 478 0062 0378     		ldrb	r3, [r0]	@ zero_extendqisi2
 479 0064 03F00F03 		and	r3, r3, #15
 480              		.loc 1 444 47 view .LVU166
 481 0068 02EB8302 		add	r2, r2, r3, lsl #2
 482 006c D2F8C421 		ldr	r2, [r2, #452]
 483              		.loc 1 444 80 view .LVU167
 484 0070 1368     		ldr	r3, [r2]
 445:/opt/XMClib/XMC_Peripheral_Library_v2.1.16/XMCLib/src/xmc_usbd.c ****   epctl.b.cnak = 1U;
 485              		.loc 1 445 3 is_stmt 1 view .LVU168
 446:/opt/XMClib/XMC_Peripheral_Library_v2.1.16/XMCLib/src/xmc_usbd.c ****   epctl.b.epena = 1U;
 486              		.loc 1 446 3 view .LVU169
 487              		.loc 1 446 17 is_stmt 0 view .LVU170
 488 0072 43F00443 		orr	r3, r3, #-2080374784
 489              	.LVL33:
 447:/opt/XMClib/XMC_Peripheral_Library_v2.1.16/XMCLib/src/xmc_usbd.c ****   xmc_device.endpoint_out_register[ep->address_u.address_st.number]->doepctl = epctl.d32;
 490              		.loc 1 447 3 is_stmt 1 view .LVU171
 491              		.loc 1 447 78 is_stmt 0 view .LVU172
 492 0076 1360     		str	r3, [r2]
 448:/opt/XMClib/XMC_Peripheral_Library_v2.1.16/XMCLib/src/xmc_usbd.c **** }
 493              		.loc 1 448 1 view .LVU173
 494 0078 5DF8044B 		ldr	r4, [sp], #4
 495              	.LCFI6:
 496              		.cfi_remember_state
 497              		.cfi_restore 4
 498              		.cfi_def_cfa_offset 0
 499 007c 7047     		bx	lr
 500              	.LVL34:
 501              	.L40:
 502              	.LCFI7:
 503              		.cfi_restore_state
 424:/opt/XMClib/XMC_Peripheral_Library_v2.1.16/XMCLib/src/xmc_usbd.c ****     {
 504              		.loc 1 424 5 is_stmt 1 view .LVU174
 424:/opt/XMClib/XMC_Peripheral_Library_v2.1.16/XMCLib/src/xmc_usbd.c ****     {
 505              		.loc 1 424 8 is_stmt 0 view .LVU175
 506 007e 1BB9     		cbnz	r3, .L42
 426:/opt/XMClib/XMC_Peripheral_Library_v2.1.16/XMCLib/src/xmc_usbd.c ****       data.b.pktcnt = 1U;
 507              		.loc 1 426 7 is_stmt 1 view .LVU176
 427:/opt/XMClib/XMC_Peripheral_Library_v2.1.16/XMCLib/src/xmc_usbd.c ****     }
 508              		.loc 1 427 7 view .LVU177
 427:/opt/XMClib/XMC_Peripheral_Library_v2.1.16/XMCLib/src/xmc_usbd.c ****     }
 509              		.loc 1 427 21 is_stmt 0 view .LVU178
 510 0080 0123     		movs	r3, #1
 511 0082 63F3DC41 		bfi	r1, r3, #19, #10
 512              	.LVL35:
 427:/opt/XMClib/XMC_Peripheral_Library_v2.1.16/XMCLib/src/xmc_usbd.c ****     }
 513              		.loc 1 427 21 view .LVU179
 514 0086 D4E7     		b	.L41
 515              	.LVL36:
 516              	.L42:
 432:/opt/XMClib/XMC_Peripheral_Library_v2.1.16/XMCLib/src/xmc_usbd.c ****       data.b.xfersize =(uint32_t)(ep->xferLength - ep->xferCount);
 517              		.loc 1 432 7 is_stmt 1 view .LVU180
 432:/opt/XMClib/XMC_Peripheral_Library_v2.1.16/XMCLib/src/xmc_usbd.c ****       data.b.xfersize =(uint32_t)(ep->xferLength - ep->xferCount);
 518              		.loc 1 432 51 is_stmt 0 view .LVU181
 519 0088 C26A     		ldr	r2, [r0, #44]
 520 008a 9B1A     		subs	r3, r3, r2
 432:/opt/XMClib/XMC_Peripheral_Library_v2.1.16/XMCLib/src/xmc_usbd.c ****       data.b.xfersize =(uint32_t)(ep->xferLength - ep->xferCount);
 521              		.loc 1 432 73 view .LVU182
 522 008c 4468     		ldr	r4, [r0, #4]
 523 008e C4F3C624 		ubfx	r4, r4, #11, #7
 432:/opt/XMClib/XMC_Peripheral_Library_v2.1.16/XMCLib/src/xmc_usbd.c ****       data.b.xfersize =(uint32_t)(ep->xferLength - ep->xferCount);
 524              		.loc 1 432 68 view .LVU183
 525 0092 621E     		subs	r2, r4, #1
 526 0094 1A44     		add	r2, r2, r3
 432:/opt/XMClib/XMC_Peripheral_Library_v2.1.16/XMCLib/src/xmc_usbd.c ****       data.b.xfersize =(uint32_t)(ep->xferLength - ep->xferCount);
 527              		.loc 1 432 104 view .LVU184
 528 0096 B2FBF4F2 		udiv	r2, r2, r4
 432:/opt/XMClib/XMC_Peripheral_Library_v2.1.16/XMCLib/src/xmc_usbd.c ****       data.b.xfersize =(uint32_t)(ep->xferLength - ep->xferCount);
 529              		.loc 1 432 21 view .LVU185
 530 009a 62F3DC41 		bfi	r1, r2, #19, #10
 531              	.LVL37:
 433:/opt/XMClib/XMC_Peripheral_Library_v2.1.16/XMCLib/src/xmc_usbd.c ****     }
 532              		.loc 1 433 7 is_stmt 1 view .LVU186
 433:/opt/XMClib/XMC_Peripheral_Library_v2.1.16/XMCLib/src/xmc_usbd.c ****     }
 533              		.loc 1 433 23 is_stmt 0 view .LVU187
 534 009e 63F31201 		bfi	r1, r3, #0, #19
 535 00a2 C6E7     		b	.L41
 536              	.L47:
 537              		.align	2
 538              	.L46:
 539 00a4 00000000 		.word	.LANCHOR0
 540              		.cfi_endproc
 541              	.LFE169:
 543              		.section	.text.XMC_USBD_lStartWriteXfer,"ax",%progbits
 544              		.align	1
 545              		.syntax unified
 546              		.thumb
 547              		.thumb_func
 549              	XMC_USBD_lStartWriteXfer:
 550              	.LVL38:
 551              	.LFB170:
 449:/opt/XMClib/XMC_Peripheral_Library_v2.1.16/XMCLib/src/xmc_usbd.c **** 
 450:/opt/XMClib/XMC_Peripheral_Library_v2.1.16/XMCLib/src/xmc_usbd.c **** /**
 451:/opt/XMClib/XMC_Peripheral_Library_v2.1.16/XMCLib/src/xmc_usbd.c ****  * @brief Start a new in transfer
 452:/opt/XMClib/XMC_Peripheral_Library_v2.1.16/XMCLib/src/xmc_usbd.c ****  *
 453:/opt/XMClib/XMC_Peripheral_Library_v2.1.16/XMCLib/src/xmc_usbd.c ****  * Based on the transfer values of the endpoint the in endpoint registers will be programmed
 454:/opt/XMClib/XMC_Peripheral_Library_v2.1.16/XMCLib/src/xmc_usbd.c ****  * to start a new in transfer
 455:/opt/XMClib/XMC_Peripheral_Library_v2.1.16/XMCLib/src/xmc_usbd.c ****  *
 456:/opt/XMClib/XMC_Peripheral_Library_v2.1.16/XMCLib/src/xmc_usbd.c ****  * @param[in] ep Endpoint to start the transfer
 457:/opt/XMClib/XMC_Peripheral_Library_v2.1.16/XMCLib/src/xmc_usbd.c ****  */
 458:/opt/XMClib/XMC_Peripheral_Library_v2.1.16/XMCLib/src/xmc_usbd.c **** static void XMC_USBD_lStartWriteXfer(XMC_USBD_EP_t *const ep) 
 459:/opt/XMClib/XMC_Peripheral_Library_v2.1.16/XMCLib/src/xmc_usbd.c **** {
 552              		.loc 1 459 1 is_stmt 1 view -0
 553              		.cfi_startproc
 554              		@ args = 0, pretend = 0, frame = 0
 555              		@ frame_needed = 0, uses_anonymous_args = 0
 556              		@ link register save eliminated.
 557              		.loc 1 459 1 is_stmt 0 view .LVU189
 558 0000 70B4     		push	{r4, r5, r6}
 559              	.LCFI8:
 560              		.cfi_def_cfa_offset 12
 561              		.cfi_offset 4, -12
 562              		.cfi_offset 5, -8
 563              		.cfi_offset 6, -4
 460:/opt/XMClib/XMC_Peripheral_Library_v2.1.16/XMCLib/src/xmc_usbd.c ****   deptsiz_data_t size;
 564              		.loc 1 460 3 is_stmt 1 view .LVU190
 461:/opt/XMClib/XMC_Peripheral_Library_v2.1.16/XMCLib/src/xmc_usbd.c ****   depctl_data_t ctl;
 565              		.loc 1 461 3 view .LVU191
 462:/opt/XMClib/XMC_Peripheral_Library_v2.1.16/XMCLib/src/xmc_usbd.c **** 	
 463:/opt/XMClib/XMC_Peripheral_Library_v2.1.16/XMCLib/src/xmc_usbd.c ****   size.d32 = 0U;  
 566              		.loc 1 463 3 view .LVU192
 567              		.loc 1 463 12 is_stmt 0 view .LVU193
 568 0002 0025     		movs	r5, #0
 569              	.LVL39:
 464:/opt/XMClib/XMC_Peripheral_Library_v2.1.16/XMCLib/src/xmc_usbd.c ****   ctl.d32 = xmc_device.endpoint_in_register[ep->address_u.address_st.number]->diepctl;
 570              		.loc 1 464 3 is_stmt 1 view .LVU194
 571              		.loc 1 464 69 is_stmt 0 view .LVU195
 572 0004 0278     		ldrb	r2, [r0]	@ zero_extendqisi2
 573 0006 02F00F02 		and	r2, r2, #15
 574              		.loc 1 464 44 view .LVU196
 575 000a 02F16A01 		add	r1, r2, #106
 576 000e 2E4B     		ldr	r3, .L56
 577 0010 53F82130 		ldr	r3, [r3, r1, lsl #2]
 578              		.loc 1 464 77 view .LVU197
 579 0014 1C68     		ldr	r4, [r3]
 580              	.LVL40:
 465:/opt/XMClib/XMC_Peripheral_Library_v2.1.16/XMCLib/src/xmc_usbd.c **** 
 466:/opt/XMClib/XMC_Peripheral_Library_v2.1.16/XMCLib/src/xmc_usbd.c ****   if ((ep->xferTotal - ep->xferLength)  < ep->maxTransferSize)
 581              		.loc 1 466 3 is_stmt 1 view .LVU198
 582              		.loc 1 466 10 is_stmt 0 view .LVU199
 583 0016 036B     		ldr	r3, [r0, #48]
 584              		.loc 1 466 26 view .LVU200
 585 0018 866A     		ldr	r6, [r0, #40]
 586              		.loc 1 466 45 view .LVU201
 587 001a 8168     		ldr	r1, [r0, #8]
 588 001c C1F31201 		ubfx	r1, r1, #0, #19
 589              		.loc 1 466 22 view .LVU202
 590 0020 A3EB060C 		sub	ip, r3, r6
 591              		.loc 1 466 6 view .LVU203
 592 0024 8C45     		cmp	ip, r1
 467:/opt/XMClib/XMC_Peripheral_Library_v2.1.16/XMCLib/src/xmc_usbd.c ****   {
 468:/opt/XMClib/XMC_Peripheral_Library_v2.1.16/XMCLib/src/xmc_usbd.c ****     ep->xferLength = ep->xferTotal;
 469:/opt/XMClib/XMC_Peripheral_Library_v2.1.16/XMCLib/src/xmc_usbd.c ****   }
 470:/opt/XMClib/XMC_Peripheral_Library_v2.1.16/XMCLib/src/xmc_usbd.c ****   else
 471:/opt/XMClib/XMC_Peripheral_Library_v2.1.16/XMCLib/src/xmc_usbd.c ****   {
 472:/opt/XMClib/XMC_Peripheral_Library_v2.1.16/XMCLib/src/xmc_usbd.c ****     ep->xferLength += ep->maxTransferSize;
 593              		.loc 1 472 5 is_stmt 1 view .LVU204
 594              		.loc 1 472 20 is_stmt 0 view .LVU205
 595 0026 28BF     		it	cs
 596 0028 7318     		addcs	r3, r6, r1
 597 002a 8362     		str	r3, [r0, #40]
 473:/opt/XMClib/XMC_Peripheral_Library_v2.1.16/XMCLib/src/xmc_usbd.c ****   }
 474:/opt/XMClib/XMC_Peripheral_Library_v2.1.16/XMCLib/src/xmc_usbd.c ****   if (ep->xferLength == 0U)
 598              		.loc 1 474 3 is_stmt 1 view .LVU206
 599              		.loc 1 474 6 is_stmt 0 view .LVU207
 600 002c ABB9     		cbnz	r3, .L50
 475:/opt/XMClib/XMC_Peripheral_Library_v2.1.16/XMCLib/src/xmc_usbd.c ****   {
 476:/opt/XMClib/XMC_Peripheral_Library_v2.1.16/XMCLib/src/xmc_usbd.c ****     size.b.xfersize = 0U;
 601              		.loc 1 476 5 is_stmt 1 view .LVU208
 477:/opt/XMClib/XMC_Peripheral_Library_v2.1.16/XMCLib/src/xmc_usbd.c ****     size.b.pktcnt = 1U;
 602              		.loc 1 477 5 view .LVU209
 603              		.loc 1 477 19 is_stmt 0 view .LVU210
 604 002e 0123     		movs	r3, #1
 605 0030 63F3DC45 		bfi	r5, r3, #19, #10
 606              	.LVL41:
 607              	.L51:
 478:/opt/XMClib/XMC_Peripheral_Library_v2.1.16/XMCLib/src/xmc_usbd.c ****   }
 479:/opt/XMClib/XMC_Peripheral_Library_v2.1.16/XMCLib/src/xmc_usbd.c ****   else
 480:/opt/XMClib/XMC_Peripheral_Library_v2.1.16/XMCLib/src/xmc_usbd.c ****   {
 481:/opt/XMClib/XMC_Peripheral_Library_v2.1.16/XMCLib/src/xmc_usbd.c ****     if (ep->address_u.address_st.number == 0U)
 482:/opt/XMClib/XMC_Peripheral_Library_v2.1.16/XMCLib/src/xmc_usbd.c ****     {
 483:/opt/XMClib/XMC_Peripheral_Library_v2.1.16/XMCLib/src/xmc_usbd.c ****       size.b.pktcnt = 1U;
 484:/opt/XMClib/XMC_Peripheral_Library_v2.1.16/XMCLib/src/xmc_usbd.c ****       /* ep->maxXferSize equals maxPacketSize */
 485:/opt/XMClib/XMC_Peripheral_Library_v2.1.16/XMCLib/src/xmc_usbd.c ****       size.b.xfersize = (uint32_t)(ep->xferLength - ep->xferCount);
 486:/opt/XMClib/XMC_Peripheral_Library_v2.1.16/XMCLib/src/xmc_usbd.c ****     }
 487:/opt/XMClib/XMC_Peripheral_Library_v2.1.16/XMCLib/src/xmc_usbd.c ****     else
 488:/opt/XMClib/XMC_Peripheral_Library_v2.1.16/XMCLib/src/xmc_usbd.c ****     {
 489:/opt/XMClib/XMC_Peripheral_Library_v2.1.16/XMCLib/src/xmc_usbd.c ****       size.b.xfersize =(uint32_t)(ep->xferLength - ep->xferCount);
 490:/opt/XMClib/XMC_Peripheral_Library_v2.1.16/XMCLib/src/xmc_usbd.c ****       size.b.pktcnt = (uint16_t)(((uint16_t)(ep->xferLength - ep->xferCount) + (uint16_t)((uint16_t
 491:/opt/XMClib/XMC_Peripheral_Library_v2.1.16/XMCLib/src/xmc_usbd.c ****     		 ep->maxPacketSize);
 492:/opt/XMClib/XMC_Peripheral_Library_v2.1.16/XMCLib/src/xmc_usbd.c ****     }
 493:/opt/XMClib/XMC_Peripheral_Library_v2.1.16/XMCLib/src/xmc_usbd.c ****     if(usbd_init->usbd_transfer_mode == XMC_USBD_USE_DMA)
 494:/opt/XMClib/XMC_Peripheral_Library_v2.1.16/XMCLib/src/xmc_usbd.c ****     {
 495:/opt/XMClib/XMC_Peripheral_Library_v2.1.16/XMCLib/src/xmc_usbd.c ****       /* Program dma*/
 496:/opt/XMClib/XMC_Peripheral_Library_v2.1.16/XMCLib/src/xmc_usbd.c ****       xmc_device.endpoint_in_register[ep->address_u.address_st.number]->diepdma = (uint32_t)ep->xfe
 497:/opt/XMClib/XMC_Peripheral_Library_v2.1.16/XMCLib/src/xmc_usbd.c ****     }
 498:/opt/XMClib/XMC_Peripheral_Library_v2.1.16/XMCLib/src/xmc_usbd.c ****     if(usbd_init->usbd_transfer_mode == XMC_USBD_USE_FIFO)
 499:/opt/XMClib/XMC_Peripheral_Library_v2.1.16/XMCLib/src/xmc_usbd.c ****     {
 500:/opt/XMClib/XMC_Peripheral_Library_v2.1.16/XMCLib/src/xmc_usbd.c ****       /* enable fifo empty interrupt */
 501:/opt/XMClib/XMC_Peripheral_Library_v2.1.16/XMCLib/src/xmc_usbd.c **** 			xmc_device.device_register->dtknqr4_fifoemptymsk |= (uint32_t)((uint32_t)1U << (uint8_t)ep->addr
 502:/opt/XMClib/XMC_Peripheral_Library_v2.1.16/XMCLib/src/xmc_usbd.c ****     }
 503:/opt/XMClib/XMC_Peripheral_Library_v2.1.16/XMCLib/src/xmc_usbd.c ****   }
 504:/opt/XMClib/XMC_Peripheral_Library_v2.1.16/XMCLib/src/xmc_usbd.c **** 
 505:/opt/XMClib/XMC_Peripheral_Library_v2.1.16/XMCLib/src/xmc_usbd.c ****   /* Program size of transfer and enable endpoint */
 506:/opt/XMClib/XMC_Peripheral_Library_v2.1.16/XMCLib/src/xmc_usbd.c ****   xmc_device.endpoint_in_register[ep->address_u.address_st.number]->dieptsiz = size.d32;
 608              		.loc 1 506 3 is_stmt 1 view .LVU211
 609              		.loc 1 506 34 is_stmt 0 view .LVU212
 610 0034 244A     		ldr	r2, .L56
 611              		.loc 1 506 59 view .LVU213
 612 0036 0378     		ldrb	r3, [r0]	@ zero_extendqisi2
 613 0038 03F00F03 		and	r3, r3, #15
 614              		.loc 1 506 34 view .LVU214
 615 003c 6A33     		adds	r3, r3, #106
 616 003e 52F82330 		ldr	r3, [r2, r3, lsl #2]
 617              		.loc 1 506 78 view .LVU215
 618 0042 1D61     		str	r5, [r3, #16]
 507:/opt/XMClib/XMC_Peripheral_Library_v2.1.16/XMCLib/src/xmc_usbd.c ****   ctl.b.epena = 1U;
 619              		.loc 1 507 3 is_stmt 1 view .LVU216
 508:/opt/XMClib/XMC_Peripheral_Library_v2.1.16/XMCLib/src/xmc_usbd.c ****   ctl.b.cnak = 1U;
 620              		.loc 1 508 3 view .LVU217
 621              		.loc 1 508 14 is_stmt 0 view .LVU218
 622 0044 44F00444 		orr	r4, r4, #-2080374784
 623              	.LVL42:
 509:/opt/XMClib/XMC_Peripheral_Library_v2.1.16/XMCLib/src/xmc_usbd.c ****   xmc_device.endpoint_in_register[ep->address_u.address_st.number]->diepctl = ctl.d32;
 624              		.loc 1 509 3 is_stmt 1 view .LVU219
 625              		.loc 1 509 59 is_stmt 0 view .LVU220
 626 0048 0378     		ldrb	r3, [r0]	@ zero_extendqisi2
 627 004a 03F00F03 		and	r3, r3, #15
 628              		.loc 1 509 34 view .LVU221
 629 004e 6A33     		adds	r3, r3, #106
 630 0050 52F82330 		ldr	r3, [r2, r3, lsl #2]
 631              	.LVL43:
 632              		.loc 1 509 77 view .LVU222
 633 0054 1C60     		str	r4, [r3]
 510:/opt/XMClib/XMC_Peripheral_Library_v2.1.16/XMCLib/src/xmc_usbd.c **** }
 634              		.loc 1 510 1 view .LVU223
 635 0056 70BC     		pop	{r4, r5, r6}
 636              	.LCFI9:
 637              		.cfi_remember_state
 638              		.cfi_restore 6
 639              		.cfi_restore 5
 640              		.cfi_restore 4
 641              		.cfi_def_cfa_offset 0
 642              	.LVL44:
 643              		.loc 1 510 1 view .LVU224
 644 0058 7047     		bx	lr
 645              	.LVL45:
 646              	.L50:
 647              	.LCFI10:
 648              		.cfi_restore_state
 481:/opt/XMClib/XMC_Peripheral_Library_v2.1.16/XMCLib/src/xmc_usbd.c ****     {
 649              		.loc 1 481 5 is_stmt 1 view .LVU225
 481:/opt/XMClib/XMC_Peripheral_Library_v2.1.16/XMCLib/src/xmc_usbd.c ****     {
 650              		.loc 1 481 41 is_stmt 0 view .LVU226
 651 005a 0178     		ldrb	r1, [r0]	@ zero_extendqisi2
 481:/opt/XMClib/XMC_Peripheral_Library_v2.1.16/XMCLib/src/xmc_usbd.c ****     {
 652              		.loc 1 481 8 view .LVU227
 653 005c 11F00F0F 		tst	r1, #15
 654 0060 20D1     		bne	.L52
 483:/opt/XMClib/XMC_Peripheral_Library_v2.1.16/XMCLib/src/xmc_usbd.c ****       /* ep->maxXferSize equals maxPacketSize */
 655              		.loc 1 483 7 is_stmt 1 view .LVU228
 483:/opt/XMClib/XMC_Peripheral_Library_v2.1.16/XMCLib/src/xmc_usbd.c ****       /* ep->maxXferSize equals maxPacketSize */
 656              		.loc 1 483 21 is_stmt 0 view .LVU229
 657 0062 0121     		movs	r1, #1
 658 0064 61F3DC45 		bfi	r5, r1, #19, #10
 659              	.LVL46:
 485:/opt/XMClib/XMC_Peripheral_Library_v2.1.16/XMCLib/src/xmc_usbd.c ****     }
 660              		.loc 1 485 7 is_stmt 1 view .LVU230
 485:/opt/XMClib/XMC_Peripheral_Library_v2.1.16/XMCLib/src/xmc_usbd.c ****     }
 661              		.loc 1 485 51 is_stmt 0 view .LVU231
 662 0068 C16A     		ldr	r1, [r0, #44]
 663 006a 591A     		subs	r1, r3, r1
 485:/opt/XMClib/XMC_Peripheral_Library_v2.1.16/XMCLib/src/xmc_usbd.c ****     }
 664              		.loc 1 485 23 view .LVU232
 665 006c 61F31205 		bfi	r5, r1, #0, #19
 666              	.L53:
 493:/opt/XMClib/XMC_Peripheral_Library_v2.1.16/XMCLib/src/xmc_usbd.c ****     {
 667              		.loc 1 493 5 is_stmt 1 view .LVU233
 493:/opt/XMClib/XMC_Peripheral_Library_v2.1.16/XMCLib/src/xmc_usbd.c ****     {
 668              		.loc 1 493 17 is_stmt 0 view .LVU234
 669 0070 154B     		ldr	r3, .L56
 670 0072 D3F80832 		ldr	r3, [r3, #520]
 493:/opt/XMClib/XMC_Peripheral_Library_v2.1.16/XMCLib/src/xmc_usbd.c ****     {
 671              		.loc 1 493 7 view .LVU235
 672 0076 597B     		ldrb	r1, [r3, #13]	@ zero_extendqisi2
 673 0078 29B9     		cbnz	r1, .L54
 496:/opt/XMClib/XMC_Peripheral_Library_v2.1.16/XMCLib/src/xmc_usbd.c ****     }
 674              		.loc 1 496 7 is_stmt 1 view .LVU236
 496:/opt/XMClib/XMC_Peripheral_Library_v2.1.16/XMCLib/src/xmc_usbd.c ****     }
 675              		.loc 1 496 38 is_stmt 0 view .LVU237
 676 007a 6A32     		adds	r2, r2, #106
 677 007c 1249     		ldr	r1, .L56
 678 007e 51F82220 		ldr	r2, [r1, r2, lsl #2]
 496:/opt/XMClib/XMC_Peripheral_Library_v2.1.16/XMCLib/src/xmc_usbd.c ****     }
 679              		.loc 1 496 83 view .LVU238
 680 0082 416A     		ldr	r1, [r0, #36]
 496:/opt/XMClib/XMC_Peripheral_Library_v2.1.16/XMCLib/src/xmc_usbd.c ****     }
 681              		.loc 1 496 81 view .LVU239
 682 0084 5161     		str	r1, [r2, #20]
 683              	.L54:
 498:/opt/XMClib/XMC_Peripheral_Library_v2.1.16/XMCLib/src/xmc_usbd.c ****     {
 684              		.loc 1 498 5 is_stmt 1 view .LVU240
 498:/opt/XMClib/XMC_Peripheral_Library_v2.1.16/XMCLib/src/xmc_usbd.c ****     {
 685              		.loc 1 498 7 is_stmt 0 view .LVU241
 686 0086 5B7B     		ldrb	r3, [r3, #13]	@ zero_extendqisi2
 687 0088 012B     		cmp	r3, #1
 688 008a D3D1     		bne	.L51
 501:/opt/XMClib/XMC_Peripheral_Library_v2.1.16/XMCLib/src/xmc_usbd.c ****     }
 689              		.loc 1 501 4 is_stmt 1 view .LVU242
 501:/opt/XMClib/XMC_Peripheral_Library_v2.1.16/XMCLib/src/xmc_usbd.c ****     }
 690              		.loc 1 501 14 is_stmt 0 view .LVU243
 691 008c 0E4B     		ldr	r3, .L56
 692 008e D3F8A411 		ldr	r1, [r3, #420]
 501:/opt/XMClib/XMC_Peripheral_Library_v2.1.16/XMCLib/src/xmc_usbd.c ****     }
 693              		.loc 1 501 30 view .LVU244
 694 0092 4E6B     		ldr	r6, [r1, #52]
 501:/opt/XMClib/XMC_Peripheral_Library_v2.1.16/XMCLib/src/xmc_usbd.c ****     }
 695              		.loc 1 501 116 view .LVU245
 696 0094 0278     		ldrb	r2, [r0]	@ zero_extendqisi2
 501:/opt/XMClib/XMC_Peripheral_Library_v2.1.16/XMCLib/src/xmc_usbd.c ****     }
 697              		.loc 1 501 83 view .LVU246
 698 0096 02F00F02 		and	r2, r2, #15
 501:/opt/XMClib/XMC_Peripheral_Library_v2.1.16/XMCLib/src/xmc_usbd.c ****     }
 699              		.loc 1 501 56 view .LVU247
 700 009a 0123     		movs	r3, #1
 701 009c 9340     		lsls	r3, r3, r2
 501:/opt/XMClib/XMC_Peripheral_Library_v2.1.16/XMCLib/src/xmc_usbd.c ****     }
 702              		.loc 1 501 53 view .LVU248
 703 009e 3343     		orrs	r3, r3, r6
 704 00a0 4B63     		str	r3, [r1, #52]
 705 00a2 C7E7     		b	.L51
 706              	.LVL47:
 707              	.L52:
 489:/opt/XMClib/XMC_Peripheral_Library_v2.1.16/XMCLib/src/xmc_usbd.c ****       size.b.pktcnt = (uint16_t)(((uint16_t)(ep->xferLength - ep->xferCount) + (uint16_t)((uint16_t
 708              		.loc 1 489 7 is_stmt 1 view .LVU249
 489:/opt/XMClib/XMC_Peripheral_Library_v2.1.16/XMCLib/src/xmc_usbd.c ****       size.b.pktcnt = (uint16_t)(((uint16_t)(ep->xferLength - ep->xferCount) + (uint16_t)((uint16_t
 709              		.loc 1 489 54 is_stmt 0 view .LVU250
 710 00a4 C66A     		ldr	r6, [r0, #44]
 489:/opt/XMClib/XMC_Peripheral_Library_v2.1.16/XMCLib/src/xmc_usbd.c ****       size.b.pktcnt = (uint16_t)(((uint16_t)(ep->xferLength - ep->xferCount) + (uint16_t)((uint16_t
 711              		.loc 1 489 50 view .LVU251
 712 00a6 991B     		subs	r1, r3, r6
 489:/opt/XMClib/XMC_Peripheral_Library_v2.1.16/XMCLib/src/xmc_usbd.c ****       size.b.pktcnt = (uint16_t)(((uint16_t)(ep->xferLength - ep->xferCount) + (uint16_t)((uint16_t
 713              		.loc 1 489 23 view .LVU252
 714 00a8 61F31205 		bfi	r5, r1, #0, #19
 715              	.LVL48:
 490:/opt/XMClib/XMC_Peripheral_Library_v2.1.16/XMCLib/src/xmc_usbd.c ****     		 ep->maxPacketSize);
 716              		.loc 1 490 7 is_stmt 1 view .LVU253
 490:/opt/XMClib/XMC_Peripheral_Library_v2.1.16/XMCLib/src/xmc_usbd.c ****     		 ep->maxPacketSize);
 717              		.loc 1 490 103 is_stmt 0 view .LVU254
 718 00ac 4168     		ldr	r1, [r0, #4]
 719 00ae C1F3C621 		ubfx	r1, r1, #11, #7
 490:/opt/XMClib/XMC_Peripheral_Library_v2.1.16/XMCLib/src/xmc_usbd.c ****     		 ep->maxPacketSize);
 720              		.loc 1 490 35 view .LVU255
 721 00b2 9B1B     		subs	r3, r3, r6
 490:/opt/XMClib/XMC_Peripheral_Library_v2.1.16/XMCLib/src/xmc_usbd.c ****     		 ep->maxPacketSize);
 722              		.loc 1 490 80 view .LVU256
 723 00b4 4E1E     		subs	r6, r1, #1
 724 00b6 B6B2     		uxth	r6, r6
 490:/opt/XMClib/XMC_Peripheral_Library_v2.1.16/XMCLib/src/xmc_usbd.c ****     		 ep->maxPacketSize);
 725              		.loc 1 490 78 view .LVU257
 726 00b8 16FA83F3 		uxtah	r3, r6, r3
 490:/opt/XMClib/XMC_Peripheral_Library_v2.1.16/XMCLib/src/xmc_usbd.c ****     		 ep->maxPacketSize);
 727              		.loc 1 490 125 view .LVU258
 728 00bc 93FBF1F3 		sdiv	r3, r3, r1
 490:/opt/XMClib/XMC_Peripheral_Library_v2.1.16/XMCLib/src/xmc_usbd.c ****     		 ep->maxPacketSize);
 729              		.loc 1 490 21 view .LVU259
 730 00c0 63F3DC45 		bfi	r5, r3, #19, #10
 731 00c4 D4E7     		b	.L53
 732              	.L57:
 733 00c6 00BF     		.align	2
 734              	.L56:
 735 00c8 00000000 		.word	.LANCHOR0
 736              		.cfi_endproc
 737              	.LFE170:
 739              		.section	.text.XMC_USBD_GetCapabilities,"ax",%progbits
 740              		.align	1
 741              		.global	XMC_USBD_GetCapabilities
 742              		.syntax unified
 743              		.thumb
 744              		.thumb_func
 746              	XMC_USBD_GetCapabilities:
 747              	.LFB186:
 511:/opt/XMClib/XMC_Peripheral_Library_v2.1.16/XMCLib/src/xmc_usbd.c **** 
 512:/opt/XMClib/XMC_Peripheral_Library_v2.1.16/XMCLib/src/xmc_usbd.c **** 
 513:/opt/XMClib/XMC_Peripheral_Library_v2.1.16/XMCLib/src/xmc_usbd.c **** /**
 514:/opt/XMClib/XMC_Peripheral_Library_v2.1.16/XMCLib/src/xmc_usbd.c ****  * @brief Handles the USBD reset interrupt
 515:/opt/XMClib/XMC_Peripheral_Library_v2.1.16/XMCLib/src/xmc_usbd.c ****  *
 516:/opt/XMClib/XMC_Peripheral_Library_v2.1.16/XMCLib/src/xmc_usbd.c ****  * When ever the host sets the bus into reset condition the usb otg_core generates
 517:/opt/XMClib/XMC_Peripheral_Library_v2.1.16/XMCLib/src/xmc_usbd.c ****  * an interrupt, which is handled by this function. It resets the complete otg_core
 518:/opt/XMClib/XMC_Peripheral_Library_v2.1.16/XMCLib/src/xmc_usbd.c ****  * into the default state.
 519:/opt/XMClib/XMC_Peripheral_Library_v2.1.16/XMCLib/src/xmc_usbd.c ****  */
 520:/opt/XMClib/XMC_Peripheral_Library_v2.1.16/XMCLib/src/xmc_usbd.c **** static void XMC_USBD_lHandleUSBReset(const XMC_USBD_t *const obj) 
 521:/opt/XMClib/XMC_Peripheral_Library_v2.1.16/XMCLib/src/xmc_usbd.c **** {
 522:/opt/XMClib/XMC_Peripheral_Library_v2.1.16/XMCLib/src/xmc_usbd.c ****   uint32_t i;
 523:/opt/XMClib/XMC_Peripheral_Library_v2.1.16/XMCLib/src/xmc_usbd.c ****   depctl_data_t epctl;
 524:/opt/XMClib/XMC_Peripheral_Library_v2.1.16/XMCLib/src/xmc_usbd.c ****   dctl_data_t dctl;
 525:/opt/XMClib/XMC_Peripheral_Library_v2.1.16/XMCLib/src/xmc_usbd.c ****   fifosize_data_t gnptxfsiz;
 526:/opt/XMClib/XMC_Peripheral_Library_v2.1.16/XMCLib/src/xmc_usbd.c ****   daint_data_t daint;
 527:/opt/XMClib/XMC_Peripheral_Library_v2.1.16/XMCLib/src/xmc_usbd.c ****   dcfg_data_t dcfg;
 528:/opt/XMClib/XMC_Peripheral_Library_v2.1.16/XMCLib/src/xmc_usbd.c **** 	
 529:/opt/XMClib/XMC_Peripheral_Library_v2.1.16/XMCLib/src/xmc_usbd.c ****   /* Clear the Remote Wakeup Signaling */
 530:/opt/XMClib/XMC_Peripheral_Library_v2.1.16/XMCLib/src/xmc_usbd.c ****   dctl.d32 = xmc_device.device_register->dctl;
 531:/opt/XMClib/XMC_Peripheral_Library_v2.1.16/XMCLib/src/xmc_usbd.c ****   dctl.b.rmtwkupsig = 1U;
 532:/opt/XMClib/XMC_Peripheral_Library_v2.1.16/XMCLib/src/xmc_usbd.c ****   xmc_device.device_register->dctl = dctl.d32;
 533:/opt/XMClib/XMC_Peripheral_Library_v2.1.16/XMCLib/src/xmc_usbd.c **** 
 534:/opt/XMClib/XMC_Peripheral_Library_v2.1.16/XMCLib/src/xmc_usbd.c ****   /* enable naks for all eps */
 535:/opt/XMClib/XMC_Peripheral_Library_v2.1.16/XMCLib/src/xmc_usbd.c ****   for (i = 0U;i < (uint8_t)XMC_USBD_NUM_EPS;i++)
 536:/opt/XMClib/XMC_Peripheral_Library_v2.1.16/XMCLib/src/xmc_usbd.c ****   {
 537:/opt/XMClib/XMC_Peripheral_Library_v2.1.16/XMCLib/src/xmc_usbd.c ****     epctl.d32 = xmc_device.endpoint_out_register[i]->doepctl;
 538:/opt/XMClib/XMC_Peripheral_Library_v2.1.16/XMCLib/src/xmc_usbd.c **** 		epctl.b.snak = 1U;
 539:/opt/XMClib/XMC_Peripheral_Library_v2.1.16/XMCLib/src/xmc_usbd.c **** 		epctl.b.stall = 0U;
 540:/opt/XMClib/XMC_Peripheral_Library_v2.1.16/XMCLib/src/xmc_usbd.c **** 		xmc_device.endpoint_out_register[i]->doepctl = epctl.d32;
 541:/opt/XMClib/XMC_Peripheral_Library_v2.1.16/XMCLib/src/xmc_usbd.c ****   }
 542:/opt/XMClib/XMC_Peripheral_Library_v2.1.16/XMCLib/src/xmc_usbd.c **** 
 543:/opt/XMClib/XMC_Peripheral_Library_v2.1.16/XMCLib/src/xmc_usbd.c ****   /* Configure fifos */
 544:/opt/XMClib/XMC_Peripheral_Library_v2.1.16/XMCLib/src/xmc_usbd.c ****   /* Calculate the size of the rx fifo */
 545:/opt/XMClib/XMC_Peripheral_Library_v2.1.16/XMCLib/src/xmc_usbd.c ****   xmc_device.global_register->grxfsiz = 64U;
 546:/opt/XMClib/XMC_Peripheral_Library_v2.1.16/XMCLib/src/xmc_usbd.c ****   /* Calculate the size of the tx fifo for ep 0 */  
 547:/opt/XMClib/XMC_Peripheral_Library_v2.1.16/XMCLib/src/xmc_usbd.c ****   gnptxfsiz.d32 = 0U;
 548:/opt/XMClib/XMC_Peripheral_Library_v2.1.16/XMCLib/src/xmc_usbd.c ****   gnptxfsiz.b.depth = 16U;
 549:/opt/XMClib/XMC_Peripheral_Library_v2.1.16/XMCLib/src/xmc_usbd.c ****   gnptxfsiz.b.startaddr = 64U;
 550:/opt/XMClib/XMC_Peripheral_Library_v2.1.16/XMCLib/src/xmc_usbd.c ****   xmc_device.global_register->gnptxfsiz = gnptxfsiz.d32;
 551:/opt/XMClib/XMC_Peripheral_Library_v2.1.16/XMCLib/src/xmc_usbd.c ****   /* calculate the size for the rest */
 552:/opt/XMClib/XMC_Peripheral_Library_v2.1.16/XMCLib/src/xmc_usbd.c ****   for (i = 1U;i < (uint8_t)XMC_USBD_NUM_TX_FIFOS;i++)
 553:/opt/XMClib/XMC_Peripheral_Library_v2.1.16/XMCLib/src/xmc_usbd.c ****   {
 554:/opt/XMClib/XMC_Peripheral_Library_v2.1.16/XMCLib/src/xmc_usbd.c ****     xmc_device.global_register->dtxfsiz[i- 1U] = (uint32_t)(((256U + (i*(64U)))/4U) | ((uint32_t)16
 555:/opt/XMClib/XMC_Peripheral_Library_v2.1.16/XMCLib/src/xmc_usbd.c ****   }
 556:/opt/XMClib/XMC_Peripheral_Library_v2.1.16/XMCLib/src/xmc_usbd.c **** 
 557:/opt/XMClib/XMC_Peripheral_Library_v2.1.16/XMCLib/src/xmc_usbd.c ****   /* flush the fifos for proper operation */
 558:/opt/XMClib/XMC_Peripheral_Library_v2.1.16/XMCLib/src/xmc_usbd.c ****   XMC_USBD_lFlushTXFifo(0x10U); /* 0x10 == all fifos, see doc */
 559:/opt/XMClib/XMC_Peripheral_Library_v2.1.16/XMCLib/src/xmc_usbd.c ****   XMC_USBD_lFlushTXFifo(0x0U);
 560:/opt/XMClib/XMC_Peripheral_Library_v2.1.16/XMCLib/src/xmc_usbd.c ****   XMC_USBD_lFlushRXFifo();
 561:/opt/XMClib/XMC_Peripheral_Library_v2.1.16/XMCLib/src/xmc_usbd.c ****   /* Flush learning queue not needed due to fifo config */
 562:/opt/XMClib/XMC_Peripheral_Library_v2.1.16/XMCLib/src/xmc_usbd.c ****   /* enable ep0 interrupts */  
 563:/opt/XMClib/XMC_Peripheral_Library_v2.1.16/XMCLib/src/xmc_usbd.c ****   daint.d32 = 0U;
 564:/opt/XMClib/XMC_Peripheral_Library_v2.1.16/XMCLib/src/xmc_usbd.c ****   daint.b.inep0 = 1U;
 565:/opt/XMClib/XMC_Peripheral_Library_v2.1.16/XMCLib/src/xmc_usbd.c ****   daint.b.outep0 = 1U;
 566:/opt/XMClib/XMC_Peripheral_Library_v2.1.16/XMCLib/src/xmc_usbd.c ****   xmc_device.device_register->daintmsk = daint.d32;
 567:/opt/XMClib/XMC_Peripheral_Library_v2.1.16/XMCLib/src/xmc_usbd.c **** 
 568:/opt/XMClib/XMC_Peripheral_Library_v2.1.16/XMCLib/src/xmc_usbd.c ****   /* enable endpoint interrupts */
 569:/opt/XMClib/XMC_Peripheral_Library_v2.1.16/XMCLib/src/xmc_usbd.c ****   /* out ep interrupts */
 570:/opt/XMClib/XMC_Peripheral_Library_v2.1.16/XMCLib/src/xmc_usbd.c ****   XMC_USBD_EnableEventOUTEP(((uint32_t)XMC_USBD_EVENT_OUT_EP_TX_COMPLET | (uint32_t)XMC_USBD_EVENT_
 571:/opt/XMClib/XMC_Peripheral_Library_v2.1.16/XMCLib/src/xmc_usbd.c **** 		  	  	  	  	  	  (uint32_t)XMC_USBD_EVENT_OUT_EP_SETUP | (uint32_t)XMC_USBD_EVENT_OUT_EP_AHB_ERRO
 572:/opt/XMClib/XMC_Peripheral_Library_v2.1.16/XMCLib/src/xmc_usbd.c **** 
 573:/opt/XMClib/XMC_Peripheral_Library_v2.1.16/XMCLib/src/xmc_usbd.c ****   /*in ep interrupts */
 574:/opt/XMClib/XMC_Peripheral_Library_v2.1.16/XMCLib/src/xmc_usbd.c ****   XMC_USBD_EnableEventINEP(((uint32_t)XMC_USBD_EVENT_IN_EP_TX_COMPLET | (uint32_t)XMC_USBD_EVENT_IN
 575:/opt/XMClib/XMC_Peripheral_Library_v2.1.16/XMCLib/src/xmc_usbd.c **** 		  (uint32_t)XMC_USBD_EVENT_IN_EP_AHB_ERROR | (uint32_t)XMC_USBD_EVENT_IN_EP_TIMEOUT));
 576:/opt/XMClib/XMC_Peripheral_Library_v2.1.16/XMCLib/src/xmc_usbd.c **** 
 577:/opt/XMClib/XMC_Peripheral_Library_v2.1.16/XMCLib/src/xmc_usbd.c **** 
 578:/opt/XMClib/XMC_Peripheral_Library_v2.1.16/XMCLib/src/xmc_usbd.c ****   /* Clear device Address */  
 579:/opt/XMClib/XMC_Peripheral_Library_v2.1.16/XMCLib/src/xmc_usbd.c ****   dcfg.d32 = xmc_device.device_register->dcfg;
 580:/opt/XMClib/XMC_Peripheral_Library_v2.1.16/XMCLib/src/xmc_usbd.c ****   dcfg.b.devaddr = 0U;
 581:/opt/XMClib/XMC_Peripheral_Library_v2.1.16/XMCLib/src/xmc_usbd.c ****   xmc_device.device_register->dcfg = dcfg.d32;
 582:/opt/XMClib/XMC_Peripheral_Library_v2.1.16/XMCLib/src/xmc_usbd.c **** 
 583:/opt/XMClib/XMC_Peripheral_Library_v2.1.16/XMCLib/src/xmc_usbd.c ****   if(obj->usbd_transfer_mode == XMC_USBD_USE_FIFO)
 584:/opt/XMClib/XMC_Peripheral_Library_v2.1.16/XMCLib/src/xmc_usbd.c ****   {
 585:/opt/XMClib/XMC_Peripheral_Library_v2.1.16/XMCLib/src/xmc_usbd.c ****     /* Clear Empty interrupt */
 586:/opt/XMClib/XMC_Peripheral_Library_v2.1.16/XMCLib/src/xmc_usbd.c ****     xmc_device.device_register->dtknqr4_fifoemptymsk = 0U;
 587:/opt/XMClib/XMC_Peripheral_Library_v2.1.16/XMCLib/src/xmc_usbd.c ****   }
 588:/opt/XMClib/XMC_Peripheral_Library_v2.1.16/XMCLib/src/xmc_usbd.c **** 
 589:/opt/XMClib/XMC_Peripheral_Library_v2.1.16/XMCLib/src/xmc_usbd.c ****   xmc_device.ep[0U].outInUse = 0U;
 590:/opt/XMClib/XMC_Peripheral_Library_v2.1.16/XMCLib/src/xmc_usbd.c ****   xmc_device.ep[0U].inInUse = 0U;
 591:/opt/XMClib/XMC_Peripheral_Library_v2.1.16/XMCLib/src/xmc_usbd.c **** 
 592:/opt/XMClib/XMC_Peripheral_Library_v2.1.16/XMCLib/src/xmc_usbd.c ****   xmc_device.DeviceEvent_cb(XMC_USBD_EVENT_RESET);
 593:/opt/XMClib/XMC_Peripheral_Library_v2.1.16/XMCLib/src/xmc_usbd.c **** 
 594:/opt/XMClib/XMC_Peripheral_Library_v2.1.16/XMCLib/src/xmc_usbd.c ****   /* clear reset intr */
 595:/opt/XMClib/XMC_Peripheral_Library_v2.1.16/XMCLib/src/xmc_usbd.c ****   XMC_USBD_ClearEvent(XMC_USBD_EVENT_RESET);
 596:/opt/XMClib/XMC_Peripheral_Library_v2.1.16/XMCLib/src/xmc_usbd.c **** }
 597:/opt/XMClib/XMC_Peripheral_Library_v2.1.16/XMCLib/src/xmc_usbd.c **** 
 598:/opt/XMClib/XMC_Peripheral_Library_v2.1.16/XMCLib/src/xmc_usbd.c **** /**
 599:/opt/XMClib/XMC_Peripheral_Library_v2.1.16/XMCLib/src/xmc_usbd.c **** * @brief Handle OTG Interrupt
 600:/opt/XMClib/XMC_Peripheral_Library_v2.1.16/XMCLib/src/xmc_usbd.c **** *
 601:/opt/XMClib/XMC_Peripheral_Library_v2.1.16/XMCLib/src/xmc_usbd.c **** * It detects especially connect and disconnect events.
 602:/opt/XMClib/XMC_Peripheral_Library_v2.1.16/XMCLib/src/xmc_usbd.c **** */
 603:/opt/XMClib/XMC_Peripheral_Library_v2.1.16/XMCLib/src/xmc_usbd.c **** static void XMC_USBD_lHandleOTGInt(void) 
 604:/opt/XMClib/XMC_Peripheral_Library_v2.1.16/XMCLib/src/xmc_usbd.c **** {
 605:/opt/XMClib/XMC_Peripheral_Library_v2.1.16/XMCLib/src/xmc_usbd.c ****   gotgint_data_t data;
 606:/opt/XMClib/XMC_Peripheral_Library_v2.1.16/XMCLib/src/xmc_usbd.c ****   data.d32 = xmc_device.global_register->gotgint;
 607:/opt/XMClib/XMC_Peripheral_Library_v2.1.16/XMCLib/src/xmc_usbd.c ****   if (data.b.sesenddet)
 608:/opt/XMClib/XMC_Peripheral_Library_v2.1.16/XMCLib/src/xmc_usbd.c ****   {
 609:/opt/XMClib/XMC_Peripheral_Library_v2.1.16/XMCLib/src/xmc_usbd.c **** 		xmc_device.IsPowered = 0U;
 610:/opt/XMClib/XMC_Peripheral_Library_v2.1.16/XMCLib/src/xmc_usbd.c **** 		xmc_device.DeviceEvent_cb(XMC_USBD_EVENT_POWER_OFF);
 611:/opt/XMClib/XMC_Peripheral_Library_v2.1.16/XMCLib/src/xmc_usbd.c ****   }
 612:/opt/XMClib/XMC_Peripheral_Library_v2.1.16/XMCLib/src/xmc_usbd.c ****   XMC_USBD_lClearEventOTG(data.d32);
 613:/opt/XMClib/XMC_Peripheral_Library_v2.1.16/XMCLib/src/xmc_usbd.c **** 
 614:/opt/XMClib/XMC_Peripheral_Library_v2.1.16/XMCLib/src/xmc_usbd.c **** }
 615:/opt/XMClib/XMC_Peripheral_Library_v2.1.16/XMCLib/src/xmc_usbd.c **** 
 616:/opt/XMClib/XMC_Peripheral_Library_v2.1.16/XMCLib/src/xmc_usbd.c **** /**
 617:/opt/XMClib/XMC_Peripheral_Library_v2.1.16/XMCLib/src/xmc_usbd.c ****  * @brief Interrupt handler for device enumeration done.
 618:/opt/XMClib/XMC_Peripheral_Library_v2.1.16/XMCLib/src/xmc_usbd.c ****  *
 619:/opt/XMClib/XMC_Peripheral_Library_v2.1.16/XMCLib/src/xmc_usbd.c ****  * Handles the enumeration done from dwc_otg, when the host has enumerated the device.
 620:/opt/XMClib/XMC_Peripheral_Library_v2.1.16/XMCLib/src/xmc_usbd.c ****  */
 621:/opt/XMClib/XMC_Peripheral_Library_v2.1.16/XMCLib/src/xmc_usbd.c **** static void XMC_USBD_lHandleEnumDone(void) 
 622:/opt/XMClib/XMC_Peripheral_Library_v2.1.16/XMCLib/src/xmc_usbd.c **** {
 623:/opt/XMClib/XMC_Peripheral_Library_v2.1.16/XMCLib/src/xmc_usbd.c ****   /* Normaly we need to check dctl
 624:/opt/XMClib/XMC_Peripheral_Library_v2.1.16/XMCLib/src/xmc_usbd.c ****    * We are always fullspeed, so max it up. */
 625:/opt/XMClib/XMC_Peripheral_Library_v2.1.16/XMCLib/src/xmc_usbd.c ****   depctl_data_t epctl;
 626:/opt/XMClib/XMC_Peripheral_Library_v2.1.16/XMCLib/src/xmc_usbd.c ****   gusbcfg_data_t gusbcfg;
 627:/opt/XMClib/XMC_Peripheral_Library_v2.1.16/XMCLib/src/xmc_usbd.c **** 	
 628:/opt/XMClib/XMC_Peripheral_Library_v2.1.16/XMCLib/src/xmc_usbd.c ****   epctl.d32=xmc_device.endpoint_in_register[0U]->diepctl;
 629:/opt/XMClib/XMC_Peripheral_Library_v2.1.16/XMCLib/src/xmc_usbd.c ****   epctl.b.mps = 0x00U; /* 64 Byte, this is also automatically set for out ep */
 630:/opt/XMClib/XMC_Peripheral_Library_v2.1.16/XMCLib/src/xmc_usbd.c ****   xmc_device.endpoint_in_register[0U]->diepctl = epctl.d32;
 631:/opt/XMClib/XMC_Peripheral_Library_v2.1.16/XMCLib/src/xmc_usbd.c **** 
 632:/opt/XMClib/XMC_Peripheral_Library_v2.1.16/XMCLib/src/xmc_usbd.c ****   /* update device connected flag */
 633:/opt/XMClib/XMC_Peripheral_Library_v2.1.16/XMCLib/src/xmc_usbd.c ****   xmc_device.IsConnected = 1U;
 634:/opt/XMClib/XMC_Peripheral_Library_v2.1.16/XMCLib/src/xmc_usbd.c ****   xmc_device.IsPowered = 1U;
 635:/opt/XMClib/XMC_Peripheral_Library_v2.1.16/XMCLib/src/xmc_usbd.c **** 
 636:/opt/XMClib/XMC_Peripheral_Library_v2.1.16/XMCLib/src/xmc_usbd.c ****   xmc_device.DeviceEvent_cb(XMC_USBD_EVENT_CONNECT);
 637:/opt/XMClib/XMC_Peripheral_Library_v2.1.16/XMCLib/src/xmc_usbd.c **** 
 638:/opt/XMClib/XMC_Peripheral_Library_v2.1.16/XMCLib/src/xmc_usbd.c ****   /* Set Trim */  
 639:/opt/XMClib/XMC_Peripheral_Library_v2.1.16/XMCLib/src/xmc_usbd.c ****   gusbcfg.d32 = xmc_device.global_register->gusbcfg;
 640:/opt/XMClib/XMC_Peripheral_Library_v2.1.16/XMCLib/src/xmc_usbd.c ****   gusbcfg.b.usbtrdtim = 9U; /* default value for LS/FS */
 641:/opt/XMClib/XMC_Peripheral_Library_v2.1.16/XMCLib/src/xmc_usbd.c ****   xmc_device.global_register->gusbcfg = gusbcfg.d32;
 642:/opt/XMClib/XMC_Peripheral_Library_v2.1.16/XMCLib/src/xmc_usbd.c **** 
 643:/opt/XMClib/XMC_Peripheral_Library_v2.1.16/XMCLib/src/xmc_usbd.c ****   /* clear interrupt */
 644:/opt/XMClib/XMC_Peripheral_Library_v2.1.16/XMCLib/src/xmc_usbd.c ****   XMC_USBD_ClearEvent(XMC_USBD_EVENT_ENUMDONE);
 645:/opt/XMClib/XMC_Peripheral_Library_v2.1.16/XMCLib/src/xmc_usbd.c **** }
 646:/opt/XMClib/XMC_Peripheral_Library_v2.1.16/XMCLib/src/xmc_usbd.c **** 
 647:/opt/XMClib/XMC_Peripheral_Library_v2.1.16/XMCLib/src/xmc_usbd.c **** 
 648:/opt/XMClib/XMC_Peripheral_Library_v2.1.16/XMCLib/src/xmc_usbd.c **** /**
 649:/opt/XMClib/XMC_Peripheral_Library_v2.1.16/XMCLib/src/xmc_usbd.c ****  * @brief Handles all interrupts for all out endpoints
 650:/opt/XMClib/XMC_Peripheral_Library_v2.1.16/XMCLib/src/xmc_usbd.c ****  *
 651:/opt/XMClib/XMC_Peripheral_Library_v2.1.16/XMCLib/src/xmc_usbd.c ****  * The interrupt handler first checks, which endpoint has caused the interrupt and then
 652:/opt/XMClib/XMC_Peripheral_Library_v2.1.16/XMCLib/src/xmc_usbd.c ****  * determines, which interrupt should be handled.
 653:/opt/XMClib/XMC_Peripheral_Library_v2.1.16/XMCLib/src/xmc_usbd.c ****  */
 654:/opt/XMClib/XMC_Peripheral_Library_v2.1.16/XMCLib/src/xmc_usbd.c **** static void XMC_USBD_lHandleOEPInt(const XMC_USBD_t *const obj) 
 655:/opt/XMClib/XMC_Peripheral_Library_v2.1.16/XMCLib/src/xmc_usbd.c **** {
 656:/opt/XMClib/XMC_Peripheral_Library_v2.1.16/XMCLib/src/xmc_usbd.c ****   daint_data_t daint;
 657:/opt/XMClib/XMC_Peripheral_Library_v2.1.16/XMCLib/src/xmc_usbd.c ****   daint_data_t daintmsk;
 658:/opt/XMClib/XMC_Peripheral_Library_v2.1.16/XMCLib/src/xmc_usbd.c ****   doepmsk_data_t doepmsk;
 659:/opt/XMClib/XMC_Peripheral_Library_v2.1.16/XMCLib/src/xmc_usbd.c ****   doepint_data_t doepint;
 660:/opt/XMClib/XMC_Peripheral_Library_v2.1.16/XMCLib/src/xmc_usbd.c ****   deptsiz_data_t doeptsiz;
 661:/opt/XMClib/XMC_Peripheral_Library_v2.1.16/XMCLib/src/xmc_usbd.c ****   XMC_USBD_EP_t *ep;
 662:/opt/XMClib/XMC_Peripheral_Library_v2.1.16/XMCLib/src/xmc_usbd.c ****   uint16_t temp;
 663:/opt/XMClib/XMC_Peripheral_Library_v2.1.16/XMCLib/src/xmc_usbd.c ****   uint16_t temp1;
 664:/opt/XMClib/XMC_Peripheral_Library_v2.1.16/XMCLib/src/xmc_usbd.c ****   uint16_t mask;
 665:/opt/XMClib/XMC_Peripheral_Library_v2.1.16/XMCLib/src/xmc_usbd.c ****   uint8_t ep_num;
 666:/opt/XMClib/XMC_Peripheral_Library_v2.1.16/XMCLib/src/xmc_usbd.c **** 	
 667:/opt/XMClib/XMC_Peripheral_Library_v2.1.16/XMCLib/src/xmc_usbd.c ****   daint.d32 = xmc_device.device_register->daint;
 668:/opt/XMClib/XMC_Peripheral_Library_v2.1.16/XMCLib/src/xmc_usbd.c ****   
 669:/opt/XMClib/XMC_Peripheral_Library_v2.1.16/XMCLib/src/xmc_usbd.c ****   daintmsk.d32 = xmc_device.device_register->daintmsk;
 670:/opt/XMClib/XMC_Peripheral_Library_v2.1.16/XMCLib/src/xmc_usbd.c ****   
 671:/opt/XMClib/XMC_Peripheral_Library_v2.1.16/XMCLib/src/xmc_usbd.c ****   doepmsk.d32 = xmc_device.device_register->doepmsk;  
 672:/opt/XMClib/XMC_Peripheral_Library_v2.1.16/XMCLib/src/xmc_usbd.c ****   
 673:/opt/XMClib/XMC_Peripheral_Library_v2.1.16/XMCLib/src/xmc_usbd.c ****   mask = daint.ep.out & daintmsk.ep.out;
 674:/opt/XMClib/XMC_Peripheral_Library_v2.1.16/XMCLib/src/xmc_usbd.c ****   ep_num = 0U;
 675:/opt/XMClib/XMC_Peripheral_Library_v2.1.16/XMCLib/src/xmc_usbd.c ****   doeptsiz.d32 = 0U;
 676:/opt/XMClib/XMC_Peripheral_Library_v2.1.16/XMCLib/src/xmc_usbd.c ****  
 677:/opt/XMClib/XMC_Peripheral_Library_v2.1.16/XMCLib/src/xmc_usbd.c ****   while ((uint16_t)mask >> ep_num)
 678:/opt/XMClib/XMC_Peripheral_Library_v2.1.16/XMCLib/src/xmc_usbd.c ****   {
 679:/opt/XMClib/XMC_Peripheral_Library_v2.1.16/XMCLib/src/xmc_usbd.c ****     temp1 = (mask >> (uint16_t)ep_num);
 680:/opt/XMClib/XMC_Peripheral_Library_v2.1.16/XMCLib/src/xmc_usbd.c ****     temp = temp1 & 0x1U;
 681:/opt/XMClib/XMC_Peripheral_Library_v2.1.16/XMCLib/src/xmc_usbd.c ****     if (temp)
 682:/opt/XMClib/XMC_Peripheral_Library_v2.1.16/XMCLib/src/xmc_usbd.c ****     {
 683:/opt/XMClib/XMC_Peripheral_Library_v2.1.16/XMCLib/src/xmc_usbd.c ****       /* load register data for endpoint */
 684:/opt/XMClib/XMC_Peripheral_Library_v2.1.16/XMCLib/src/xmc_usbd.c ****       ep = &xmc_device.ep[ep_num];
 685:/opt/XMClib/XMC_Peripheral_Library_v2.1.16/XMCLib/src/xmc_usbd.c ****       doepint.d32 = xmc_device.endpoint_out_register[ep_num]->doepint & doepmsk.d32;
 686:/opt/XMClib/XMC_Peripheral_Library_v2.1.16/XMCLib/src/xmc_usbd.c ****       if(obj->usbd_transfer_mode == XMC_USBD_USE_DMA)
 687:/opt/XMClib/XMC_Peripheral_Library_v2.1.16/XMCLib/src/xmc_usbd.c ****       {
 688:/opt/XMClib/XMC_Peripheral_Library_v2.1.16/XMCLib/src/xmc_usbd.c ****         doeptsiz.d32 = xmc_device.endpoint_out_register[ep_num]->doeptsiz;
 689:/opt/XMClib/XMC_Peripheral_Library_v2.1.16/XMCLib/src/xmc_usbd.c ****       }
 690:/opt/XMClib/XMC_Peripheral_Library_v2.1.16/XMCLib/src/xmc_usbd.c **** 	  /* Setup Phase Complete */
 691:/opt/XMClib/XMC_Peripheral_Library_v2.1.16/XMCLib/src/xmc_usbd.c ****       if (doepint.b.setup)
 692:/opt/XMClib/XMC_Peripheral_Library_v2.1.16/XMCLib/src/xmc_usbd.c ****       {
 693:/opt/XMClib/XMC_Peripheral_Library_v2.1.16/XMCLib/src/xmc_usbd.c ****         /* ep0 not stalled any more */
 694:/opt/XMClib/XMC_Peripheral_Library_v2.1.16/XMCLib/src/xmc_usbd.c ****         ep->isStalled = 0U;
 695:/opt/XMClib/XMC_Peripheral_Library_v2.1.16/XMCLib/src/xmc_usbd.c ****         if(obj->usbd_transfer_mode == XMC_USBD_USE_DMA)
 696:/opt/XMClib/XMC_Peripheral_Library_v2.1.16/XMCLib/src/xmc_usbd.c ****         {
 697:/opt/XMClib/XMC_Peripheral_Library_v2.1.16/XMCLib/src/xmc_usbd.c ****           /* calculate size for setup packet */
 698:/opt/XMClib/XMC_Peripheral_Library_v2.1.16/XMCLib/src/xmc_usbd.c **** 		  ep->outBytesAvailable = (uint32_t)(((uint32_t)XMC_USBD_SETUP_COUNT -
 699:/opt/XMClib/XMC_Peripheral_Library_v2.1.16/XMCLib/src/xmc_usbd.c **** 		  (uint32_t)((deptsiz0_data_t*)&doeptsiz)->b.supcnt)*(uint32_t)XMC_USBD_SETUP_SIZE);
 700:/opt/XMClib/XMC_Peripheral_Library_v2.1.16/XMCLib/src/xmc_usbd.c ****         }
 701:/opt/XMClib/XMC_Peripheral_Library_v2.1.16/XMCLib/src/xmc_usbd.c **** 		if(obj->usbd_transfer_mode == XMC_USBD_USE_FIFO)
 702:/opt/XMClib/XMC_Peripheral_Library_v2.1.16/XMCLib/src/xmc_usbd.c **** 		{
 703:/opt/XMClib/XMC_Peripheral_Library_v2.1.16/XMCLib/src/xmc_usbd.c **** 			ep->outBytesAvailable += ep->xferCount;
 704:/opt/XMClib/XMC_Peripheral_Library_v2.1.16/XMCLib/src/xmc_usbd.c **** 		}
 705:/opt/XMClib/XMC_Peripheral_Library_v2.1.16/XMCLib/src/xmc_usbd.c **** 		ep->outInUse = 0U;
 706:/opt/XMClib/XMC_Peripheral_Library_v2.1.16/XMCLib/src/xmc_usbd.c **** 		xmc_device.EndpointEvent_cb(0U,XMC_USBD_EP_EVENT_SETUP); /* signal endpoint event */
 707:/opt/XMClib/XMC_Peripheral_Library_v2.1.16/XMCLib/src/xmc_usbd.c **** 				/* clear the interrupt */
 708:/opt/XMClib/XMC_Peripheral_Library_v2.1.16/XMCLib/src/xmc_usbd.c **** 		XMC_USBD_ClearEventOUTEP((uint32_t)XMC_USBD_EVENT_OUT_EP_SETUP,ep_num);
 709:/opt/XMClib/XMC_Peripheral_Library_v2.1.16/XMCLib/src/xmc_usbd.c ****       }
 710:/opt/XMClib/XMC_Peripheral_Library_v2.1.16/XMCLib/src/xmc_usbd.c ****       if (doepint.b.xfercompl)
 711:/opt/XMClib/XMC_Peripheral_Library_v2.1.16/XMCLib/src/xmc_usbd.c ****       {
 712:/opt/XMClib/XMC_Peripheral_Library_v2.1.16/XMCLib/src/xmc_usbd.c ****         if(obj->usbd_transfer_mode == XMC_USBD_USE_DMA)
 713:/opt/XMClib/XMC_Peripheral_Library_v2.1.16/XMCLib/src/xmc_usbd.c ****         {
 714:/opt/XMClib/XMC_Peripheral_Library_v2.1.16/XMCLib/src/xmc_usbd.c ****           uint32_t bytes = (ep->xferLength - ep->xferCount) - doeptsiz.b.xfersize;
 715:/opt/XMClib/XMC_Peripheral_Library_v2.1.16/XMCLib/src/xmc_usbd.c ****           ep->xferCount += bytes;
 716:/opt/XMClib/XMC_Peripheral_Library_v2.1.16/XMCLib/src/xmc_usbd.c ****           ep->xferBuffer += bytes;
 717:/opt/XMClib/XMC_Peripheral_Library_v2.1.16/XMCLib/src/xmc_usbd.c **** 				}
 718:/opt/XMClib/XMC_Peripheral_Library_v2.1.16/XMCLib/src/xmc_usbd.c ****         if (ep->xferTotal == ep->xferLength)
 719:/opt/XMClib/XMC_Peripheral_Library_v2.1.16/XMCLib/src/xmc_usbd.c ****         {
 720:/opt/XMClib/XMC_Peripheral_Library_v2.1.16/XMCLib/src/xmc_usbd.c ****           ep->outBytesAvailable = ep->xferCount;
 721:/opt/XMClib/XMC_Peripheral_Library_v2.1.16/XMCLib/src/xmc_usbd.c ****           ep->outInUse = 0U;
 722:/opt/XMClib/XMC_Peripheral_Library_v2.1.16/XMCLib/src/xmc_usbd.c ****           xmc_device.EndpointEvent_cb(ep_num,XMC_USBD_EP_EVENT_OUT);
 723:/opt/XMClib/XMC_Peripheral_Library_v2.1.16/XMCLib/src/xmc_usbd.c ****         }
 724:/opt/XMClib/XMC_Peripheral_Library_v2.1.16/XMCLib/src/xmc_usbd.c ****         else
 725:/opt/XMClib/XMC_Peripheral_Library_v2.1.16/XMCLib/src/xmc_usbd.c ****         {
 726:/opt/XMClib/XMC_Peripheral_Library_v2.1.16/XMCLib/src/xmc_usbd.c ****           XMC_USBD_lStartReadXfer(ep);
 727:/opt/XMClib/XMC_Peripheral_Library_v2.1.16/XMCLib/src/xmc_usbd.c ****         }
 728:/opt/XMClib/XMC_Peripheral_Library_v2.1.16/XMCLib/src/xmc_usbd.c **** 
 729:/opt/XMClib/XMC_Peripheral_Library_v2.1.16/XMCLib/src/xmc_usbd.c ****       }
 730:/opt/XMClib/XMC_Peripheral_Library_v2.1.16/XMCLib/src/xmc_usbd.c **** 
 731:/opt/XMClib/XMC_Peripheral_Library_v2.1.16/XMCLib/src/xmc_usbd.c ****       XMC_USBD_ClearEventOUTEP(doepint.d32,ep_num);
 732:/opt/XMClib/XMC_Peripheral_Library_v2.1.16/XMCLib/src/xmc_usbd.c ****     }
 733:/opt/XMClib/XMC_Peripheral_Library_v2.1.16/XMCLib/src/xmc_usbd.c ****     ep_num++;
 734:/opt/XMClib/XMC_Peripheral_Library_v2.1.16/XMCLib/src/xmc_usbd.c ****   }
 735:/opt/XMClib/XMC_Peripheral_Library_v2.1.16/XMCLib/src/xmc_usbd.c **** 
 736:/opt/XMClib/XMC_Peripheral_Library_v2.1.16/XMCLib/src/xmc_usbd.c ****   /* clear interrupt */
 737:/opt/XMClib/XMC_Peripheral_Library_v2.1.16/XMCLib/src/xmc_usbd.c ****   XMC_USBD_ClearEvent(XMC_USBD_EVENT_OUTEP);
 738:/opt/XMClib/XMC_Peripheral_Library_v2.1.16/XMCLib/src/xmc_usbd.c **** }
 739:/opt/XMClib/XMC_Peripheral_Library_v2.1.16/XMCLib/src/xmc_usbd.c **** 
 740:/opt/XMClib/XMC_Peripheral_Library_v2.1.16/XMCLib/src/xmc_usbd.c **** /**
 741:/opt/XMClib/XMC_Peripheral_Library_v2.1.16/XMCLib/src/xmc_usbd.c ****  * @brief Handles all interrupts for all in endpoints
 742:/opt/XMClib/XMC_Peripheral_Library_v2.1.16/XMCLib/src/xmc_usbd.c ****  *
 743:/opt/XMClib/XMC_Peripheral_Library_v2.1.16/XMCLib/src/xmc_usbd.c ****  * The interrupt handler first checks, which endpoint has caused the interrupt and then
 744:/opt/XMClib/XMC_Peripheral_Library_v2.1.16/XMCLib/src/xmc_usbd.c ****  * determines, which interrupt should be handled.
 745:/opt/XMClib/XMC_Peripheral_Library_v2.1.16/XMCLib/src/xmc_usbd.c ****  */
 746:/opt/XMClib/XMC_Peripheral_Library_v2.1.16/XMCLib/src/xmc_usbd.c **** static void XMC_USBD_lHandleIEPInt(const XMC_USBD_t *const obj) 
 747:/opt/XMClib/XMC_Peripheral_Library_v2.1.16/XMCLib/src/xmc_usbd.c **** {
 748:/opt/XMClib/XMC_Peripheral_Library_v2.1.16/XMCLib/src/xmc_usbd.c ****   XMC_USBD_EP_t *ep;
 749:/opt/XMClib/XMC_Peripheral_Library_v2.1.16/XMCLib/src/xmc_usbd.c ****   daint_data_t daint;
 750:/opt/XMClib/XMC_Peripheral_Library_v2.1.16/XMCLib/src/xmc_usbd.c ****   diepmsk_data_t diepmsk;
 751:/opt/XMClib/XMC_Peripheral_Library_v2.1.16/XMCLib/src/xmc_usbd.c ****   diepint_data_t diepint;
 752:/opt/XMClib/XMC_Peripheral_Library_v2.1.16/XMCLib/src/xmc_usbd.c ****   deptsiz_data_t dieptsiz;
 753:/opt/XMClib/XMC_Peripheral_Library_v2.1.16/XMCLib/src/xmc_usbd.c ****   uint16_t temp;
 754:/opt/XMClib/XMC_Peripheral_Library_v2.1.16/XMCLib/src/xmc_usbd.c ****   uint16_t temp1;
 755:/opt/XMClib/XMC_Peripheral_Library_v2.1.16/XMCLib/src/xmc_usbd.c ****   uint16_t mask;
 756:/opt/XMClib/XMC_Peripheral_Library_v2.1.16/XMCLib/src/xmc_usbd.c ****   uint8_t ep_num;
 757:/opt/XMClib/XMC_Peripheral_Library_v2.1.16/XMCLib/src/xmc_usbd.c ****   uint32_t inepint;
 758:/opt/XMClib/XMC_Peripheral_Library_v2.1.16/XMCLib/src/xmc_usbd.c **** 	
 759:/opt/XMClib/XMC_Peripheral_Library_v2.1.16/XMCLib/src/xmc_usbd.c ****   daint.d32 = xmc_device.device_register->daint;
 760:/opt/XMClib/XMC_Peripheral_Library_v2.1.16/XMCLib/src/xmc_usbd.c ****   
 761:/opt/XMClib/XMC_Peripheral_Library_v2.1.16/XMCLib/src/xmc_usbd.c ****   diepmsk.d32 = xmc_device.device_register->diepmsk;
 762:/opt/XMClib/XMC_Peripheral_Library_v2.1.16/XMCLib/src/xmc_usbd.c ****   
 763:/opt/XMClib/XMC_Peripheral_Library_v2.1.16/XMCLib/src/xmc_usbd.c ****   dieptsiz.d32 = 0U;
 764:/opt/XMClib/XMC_Peripheral_Library_v2.1.16/XMCLib/src/xmc_usbd.c ****   mask = daint.ep.in;
 765:/opt/XMClib/XMC_Peripheral_Library_v2.1.16/XMCLib/src/xmc_usbd.c ****   ep_num = 0U;
 766:/opt/XMClib/XMC_Peripheral_Library_v2.1.16/XMCLib/src/xmc_usbd.c ****   
 767:/opt/XMClib/XMC_Peripheral_Library_v2.1.16/XMCLib/src/xmc_usbd.c ****   while ((uint16_t)mask >> ep_num)
 768:/opt/XMClib/XMC_Peripheral_Library_v2.1.16/XMCLib/src/xmc_usbd.c ****   {
 769:/opt/XMClib/XMC_Peripheral_Library_v2.1.16/XMCLib/src/xmc_usbd.c ****     temp1 = ((uint16_t)mask >> (uint16_t)ep_num);
 770:/opt/XMClib/XMC_Peripheral_Library_v2.1.16/XMCLib/src/xmc_usbd.c ****     temp = (uint16_t)temp1 & (uint16_t)0x1U;
 771:/opt/XMClib/XMC_Peripheral_Library_v2.1.16/XMCLib/src/xmc_usbd.c ****     if ((uint16_t)temp)
 772:/opt/XMClib/XMC_Peripheral_Library_v2.1.16/XMCLib/src/xmc_usbd.c ****     {
 773:/opt/XMClib/XMC_Peripheral_Library_v2.1.16/XMCLib/src/xmc_usbd.c ****       ep = &xmc_device.ep[ep_num];
 774:/opt/XMClib/XMC_Peripheral_Library_v2.1.16/XMCLib/src/xmc_usbd.c **** 			inepint = (uint32_t)xmc_device.endpoint_in_register[ep_num]->diepint;
 775:/opt/XMClib/XMC_Peripheral_Library_v2.1.16/XMCLib/src/xmc_usbd.c ****       diepint.d32 = inepint &
 776:/opt/XMClib/XMC_Peripheral_Library_v2.1.16/XMCLib/src/xmc_usbd.c ****       ((((uint32_t)((uint32_t)xmc_device.device_register->dtknqr4_fifoemptymsk >> ep->address_u.add
 777:/opt/XMClib/XMC_Peripheral_Library_v2.1.16/XMCLib/src/xmc_usbd.c ****                      0x1U) << 7U) | (uint32_t)diepmsk.d32);
 778:/opt/XMClib/XMC_Peripheral_Library_v2.1.16/XMCLib/src/xmc_usbd.c ****       if(obj->usbd_transfer_mode == XMC_USBD_USE_DMA)
 779:/opt/XMClib/XMC_Peripheral_Library_v2.1.16/XMCLib/src/xmc_usbd.c ****       {
 780:/opt/XMClib/XMC_Peripheral_Library_v2.1.16/XMCLib/src/xmc_usbd.c ****         dieptsiz.d32 = xmc_device.endpoint_in_register[ep_num]->dieptsiz;
 781:/opt/XMClib/XMC_Peripheral_Library_v2.1.16/XMCLib/src/xmc_usbd.c ****       }
 782:/opt/XMClib/XMC_Peripheral_Library_v2.1.16/XMCLib/src/xmc_usbd.c ****       if(obj->usbd_transfer_mode == XMC_USBD_USE_FIFO)
 783:/opt/XMClib/XMC_Peripheral_Library_v2.1.16/XMCLib/src/xmc_usbd.c ****       {
 784:/opt/XMClib/XMC_Peripheral_Library_v2.1.16/XMCLib/src/xmc_usbd.c ****         if (diepint.b.emptyintr)
 785:/opt/XMClib/XMC_Peripheral_Library_v2.1.16/XMCLib/src/xmc_usbd.c ****         {
 786:/opt/XMClib/XMC_Peripheral_Library_v2.1.16/XMCLib/src/xmc_usbd.c ****           uint32_t bytes;
 787:/opt/XMClib/XMC_Peripheral_Library_v2.1.16/XMCLib/src/xmc_usbd.c ****           bytes = XMC_USBD_lWriteFifo(ep);
 788:/opt/XMClib/XMC_Peripheral_Library_v2.1.16/XMCLib/src/xmc_usbd.c ****           ep->xferCount += bytes;
 789:/opt/XMClib/XMC_Peripheral_Library_v2.1.16/XMCLib/src/xmc_usbd.c ****           ep->xferBuffer += bytes;
 790:/opt/XMClib/XMC_Peripheral_Library_v2.1.16/XMCLib/src/xmc_usbd.c ****         }
 791:/opt/XMClib/XMC_Peripheral_Library_v2.1.16/XMCLib/src/xmc_usbd.c ****       }
 792:/opt/XMClib/XMC_Peripheral_Library_v2.1.16/XMCLib/src/xmc_usbd.c ****       if (diepint.b.xfercompl)
 793:/opt/XMClib/XMC_Peripheral_Library_v2.1.16/XMCLib/src/xmc_usbd.c ****       {
 794:/opt/XMClib/XMC_Peripheral_Library_v2.1.16/XMCLib/src/xmc_usbd.c ****         if(obj->usbd_transfer_mode == XMC_USBD_USE_DMA)
 795:/opt/XMClib/XMC_Peripheral_Library_v2.1.16/XMCLib/src/xmc_usbd.c ****         {
 796:/opt/XMClib/XMC_Peripheral_Library_v2.1.16/XMCLib/src/xmc_usbd.c ****           /* update xfer values */
 797:/opt/XMClib/XMC_Peripheral_Library_v2.1.16/XMCLib/src/xmc_usbd.c ****           if ((dieptsiz.b.pktcnt == 0U) && (dieptsiz.b.xfersize == 0U))
 798:/opt/XMClib/XMC_Peripheral_Library_v2.1.16/XMCLib/src/xmc_usbd.c ****           {
 799:/opt/XMClib/XMC_Peripheral_Library_v2.1.16/XMCLib/src/xmc_usbd.c ****             uint32_t Bytes = ep->xferLength - ep->xferCount;
 800:/opt/XMClib/XMC_Peripheral_Library_v2.1.16/XMCLib/src/xmc_usbd.c ****             ep->xferCount += Bytes;
 801:/opt/XMClib/XMC_Peripheral_Library_v2.1.16/XMCLib/src/xmc_usbd.c ****             ep->xferBuffer += Bytes;
 802:/opt/XMClib/XMC_Peripheral_Library_v2.1.16/XMCLib/src/xmc_usbd.c ****           }
 803:/opt/XMClib/XMC_Peripheral_Library_v2.1.16/XMCLib/src/xmc_usbd.c ****         }
 804:/opt/XMClib/XMC_Peripheral_Library_v2.1.16/XMCLib/src/xmc_usbd.c ****         if (ep->xferTotal==ep->xferLength)
 805:/opt/XMClib/XMC_Peripheral_Library_v2.1.16/XMCLib/src/xmc_usbd.c ****         {
 806:/opt/XMClib/XMC_Peripheral_Library_v2.1.16/XMCLib/src/xmc_usbd.c ****           ep->inInUse = 0U;
 807:/opt/XMClib/XMC_Peripheral_Library_v2.1.16/XMCLib/src/xmc_usbd.c ****           if(obj->usbd_transfer_mode == XMC_USBD_USE_FIFO)
 808:/opt/XMClib/XMC_Peripheral_Library_v2.1.16/XMCLib/src/xmc_usbd.c ****           {
 809:/opt/XMClib/XMC_Peripheral_Library_v2.1.16/XMCLib/src/xmc_usbd.c ****             /* mask fifo empty interrupt */
 810:/opt/XMClib/XMC_Peripheral_Library_v2.1.16/XMCLib/src/xmc_usbd.c ****             xmc_device.device_register->dtknqr4_fifoemptymsk =
 811:/opt/XMClib/XMC_Peripheral_Library_v2.1.16/XMCLib/src/xmc_usbd.c ****             (uint32_t)(xmc_device.device_register->dtknqr4_fifoemptymsk & ~(((uint32_t)1U << ep_num
 812:/opt/XMClib/XMC_Peripheral_Library_v2.1.16/XMCLib/src/xmc_usbd.c ****           }
 813:/opt/XMClib/XMC_Peripheral_Library_v2.1.16/XMCLib/src/xmc_usbd.c ****           xmc_device.EndpointEvent_cb(0x80U | ep_num,XMC_USBD_EP_EVENT_IN);
 814:/opt/XMClib/XMC_Peripheral_Library_v2.1.16/XMCLib/src/xmc_usbd.c ****         }
 815:/opt/XMClib/XMC_Peripheral_Library_v2.1.16/XMCLib/src/xmc_usbd.c ****         else
 816:/opt/XMClib/XMC_Peripheral_Library_v2.1.16/XMCLib/src/xmc_usbd.c ****         {
 817:/opt/XMClib/XMC_Peripheral_Library_v2.1.16/XMCLib/src/xmc_usbd.c ****           /* start next step of transfer */
 818:/opt/XMClib/XMC_Peripheral_Library_v2.1.16/XMCLib/src/xmc_usbd.c ****           XMC_USBD_lStartWriteXfer(ep);
 819:/opt/XMClib/XMC_Peripheral_Library_v2.1.16/XMCLib/src/xmc_usbd.c ****         }
 820:/opt/XMClib/XMC_Peripheral_Library_v2.1.16/XMCLib/src/xmc_usbd.c **** 
 821:/opt/XMClib/XMC_Peripheral_Library_v2.1.16/XMCLib/src/xmc_usbd.c ****       }
 822:/opt/XMClib/XMC_Peripheral_Library_v2.1.16/XMCLib/src/xmc_usbd.c **** 
 823:/opt/XMClib/XMC_Peripheral_Library_v2.1.16/XMCLib/src/xmc_usbd.c ****       XMC_USBD_ClearEventINEP((uint32_t)diepint.d32,ep_num);
 824:/opt/XMClib/XMC_Peripheral_Library_v2.1.16/XMCLib/src/xmc_usbd.c ****     }
 825:/opt/XMClib/XMC_Peripheral_Library_v2.1.16/XMCLib/src/xmc_usbd.c ****     ep_num++;
 826:/opt/XMClib/XMC_Peripheral_Library_v2.1.16/XMCLib/src/xmc_usbd.c ****   }
 827:/opt/XMClib/XMC_Peripheral_Library_v2.1.16/XMCLib/src/xmc_usbd.c ****   XMC_USBD_ClearEvent(XMC_USBD_EVENT_INEP);
 828:/opt/XMClib/XMC_Peripheral_Library_v2.1.16/XMCLib/src/xmc_usbd.c **** }
 829:/opt/XMClib/XMC_Peripheral_Library_v2.1.16/XMCLib/src/xmc_usbd.c **** 
 830:/opt/XMClib/XMC_Peripheral_Library_v2.1.16/XMCLib/src/xmc_usbd.c **** /**
 831:/opt/XMClib/XMC_Peripheral_Library_v2.1.16/XMCLib/src/xmc_usbd.c ****  * @brief RX Fifo interrupt handler
 832:/opt/XMClib/XMC_Peripheral_Library_v2.1.16/XMCLib/src/xmc_usbd.c ****  *
 833:/opt/XMClib/XMC_Peripheral_Library_v2.1.16/XMCLib/src/xmc_usbd.c ****  * This function handles the interrupt, when the rx fifo is not empty anymore.
 834:/opt/XMClib/XMC_Peripheral_Library_v2.1.16/XMCLib/src/xmc_usbd.c ****  */
 835:/opt/XMClib/XMC_Peripheral_Library_v2.1.16/XMCLib/src/xmc_usbd.c **** static void XMC_USBD_lHandleRxFLvl(void) 
 836:/opt/XMClib/XMC_Peripheral_Library_v2.1.16/XMCLib/src/xmc_usbd.c **** {
 837:/opt/XMClib/XMC_Peripheral_Library_v2.1.16/XMCLib/src/xmc_usbd.c ****   device_grxsts_data_t data;	
 838:/opt/XMClib/XMC_Peripheral_Library_v2.1.16/XMCLib/src/xmc_usbd.c ****   data.d32 = xmc_device.global_register->grxstsp;
 839:/opt/XMClib/XMC_Peripheral_Library_v2.1.16/XMCLib/src/xmc_usbd.c **** 
 840:/opt/XMClib/XMC_Peripheral_Library_v2.1.16/XMCLib/src/xmc_usbd.c ****   switch (data.b.pktsts)
 841:/opt/XMClib/XMC_Peripheral_Library_v2.1.16/XMCLib/src/xmc_usbd.c **** 	{
 842:/opt/XMClib/XMC_Peripheral_Library_v2.1.16/XMCLib/src/xmc_usbd.c ****     case XMC_USBD_GRXSTS_PKTSTS_GOUTNAK:
 843:/opt/XMClib/XMC_Peripheral_Library_v2.1.16/XMCLib/src/xmc_usbd.c ****       break;
 844:/opt/XMClib/XMC_Peripheral_Library_v2.1.16/XMCLib/src/xmc_usbd.c ****     case XMC_USBD_GRXSTS_PKTSTS_OUTCMPL:
 845:/opt/XMClib/XMC_Peripheral_Library_v2.1.16/XMCLib/src/xmc_usbd.c ****       break;
 846:/opt/XMClib/XMC_Peripheral_Library_v2.1.16/XMCLib/src/xmc_usbd.c ****     case XMC_USBD_GRXSTS_PKTSTS_OUTDATA:
 847:/opt/XMClib/XMC_Peripheral_Library_v2.1.16/XMCLib/src/xmc_usbd.c ****       XMC_USBD_lReadFifo((uint32_t)data.b.epnum,(uint32_t)data.b.bcnt);
 848:/opt/XMClib/XMC_Peripheral_Library_v2.1.16/XMCLib/src/xmc_usbd.c ****       break;
 849:/opt/XMClib/XMC_Peripheral_Library_v2.1.16/XMCLib/src/xmc_usbd.c ****     case XMC_USBD_GRXSTS_PKTSTS_SETUP:
 850:/opt/XMClib/XMC_Peripheral_Library_v2.1.16/XMCLib/src/xmc_usbd.c ****       XMC_USBD_lReadFifo((uint32_t)data.b.epnum,(uint32_t)data.b.bcnt);
 851:/opt/XMClib/XMC_Peripheral_Library_v2.1.16/XMCLib/src/xmc_usbd.c ****       break;
 852:/opt/XMClib/XMC_Peripheral_Library_v2.1.16/XMCLib/src/xmc_usbd.c ****     case XMC_USBD_GRXSTS_PKTSTS_SETUPCMPL:
 853:/opt/XMClib/XMC_Peripheral_Library_v2.1.16/XMCLib/src/xmc_usbd.c ****       break;
 854:/opt/XMClib/XMC_Peripheral_Library_v2.1.16/XMCLib/src/xmc_usbd.c ****     default:
 855:/opt/XMClib/XMC_Peripheral_Library_v2.1.16/XMCLib/src/xmc_usbd.c ****       break;
 856:/opt/XMClib/XMC_Peripheral_Library_v2.1.16/XMCLib/src/xmc_usbd.c **** 	}
 857:/opt/XMClib/XMC_Peripheral_Library_v2.1.16/XMCLib/src/xmc_usbd.c ****   /* no need to clear */
 858:/opt/XMClib/XMC_Peripheral_Library_v2.1.16/XMCLib/src/xmc_usbd.c **** }
 859:/opt/XMClib/XMC_Peripheral_Library_v2.1.16/XMCLib/src/xmc_usbd.c **** 
 860:/opt/XMClib/XMC_Peripheral_Library_v2.1.16/XMCLib/src/xmc_usbd.c **** /**
 861:/opt/XMClib/XMC_Peripheral_Library_v2.1.16/XMCLib/src/xmc_usbd.c ****  * @brief Global interrupt handler
 862:/opt/XMClib/XMC_Peripheral_Library_v2.1.16/XMCLib/src/xmc_usbd.c ****  *
 863:/opt/XMClib/XMC_Peripheral_Library_v2.1.16/XMCLib/src/xmc_usbd.c ****  * The handler first checks, which global interrupt has caused the interrupt
 864:/opt/XMClib/XMC_Peripheral_Library_v2.1.16/XMCLib/src/xmc_usbd.c ****  * and then dispatches interrupt to the corresponding sub-handler.
 865:/opt/XMClib/XMC_Peripheral_Library_v2.1.16/XMCLib/src/xmc_usbd.c ****  */
 866:/opt/XMClib/XMC_Peripheral_Library_v2.1.16/XMCLib/src/xmc_usbd.c **** void XMC_USBD_IRQHandler(const XMC_USBD_t *const obj) 
 867:/opt/XMClib/XMC_Peripheral_Library_v2.1.16/XMCLib/src/xmc_usbd.c **** {
 868:/opt/XMClib/XMC_Peripheral_Library_v2.1.16/XMCLib/src/xmc_usbd.c ****   gintmsk_data_t gintmsk;
 869:/opt/XMClib/XMC_Peripheral_Library_v2.1.16/XMCLib/src/xmc_usbd.c ****   gintsts_data_t data;
 870:/opt/XMClib/XMC_Peripheral_Library_v2.1.16/XMCLib/src/xmc_usbd.c **** 	
 871:/opt/XMClib/XMC_Peripheral_Library_v2.1.16/XMCLib/src/xmc_usbd.c ****   gintmsk.d32 = xmc_device.global_register->gintmsk;
 872:/opt/XMClib/XMC_Peripheral_Library_v2.1.16/XMCLib/src/xmc_usbd.c ****   data.d32 = xmc_device.global_register->gintsts & gintmsk.d32;
 873:/opt/XMClib/XMC_Peripheral_Library_v2.1.16/XMCLib/src/xmc_usbd.c **** 	
 874:/opt/XMClib/XMC_Peripheral_Library_v2.1.16/XMCLib/src/xmc_usbd.c ****   if (data.b.sofintr)
 875:/opt/XMClib/XMC_Peripheral_Library_v2.1.16/XMCLib/src/xmc_usbd.c ****   {
 876:/opt/XMClib/XMC_Peripheral_Library_v2.1.16/XMCLib/src/xmc_usbd.c ****     xmc_device.DeviceEvent_cb(XMC_USBD_EVENT_SOF);
 877:/opt/XMClib/XMC_Peripheral_Library_v2.1.16/XMCLib/src/xmc_usbd.c ****     XMC_USBD_ClearEvent(XMC_USBD_EVENT_SOF);
 878:/opt/XMClib/XMC_Peripheral_Library_v2.1.16/XMCLib/src/xmc_usbd.c ****   }
 879:/opt/XMClib/XMC_Peripheral_Library_v2.1.16/XMCLib/src/xmc_usbd.c ****   if(obj->usbd_transfer_mode == XMC_USBD_USE_FIFO)
 880:/opt/XMClib/XMC_Peripheral_Library_v2.1.16/XMCLib/src/xmc_usbd.c ****   {
 881:/opt/XMClib/XMC_Peripheral_Library_v2.1.16/XMCLib/src/xmc_usbd.c ****     if (data.b.rxstsqlvl)
 882:/opt/XMClib/XMC_Peripheral_Library_v2.1.16/XMCLib/src/xmc_usbd.c ****     {
 883:/opt/XMClib/XMC_Peripheral_Library_v2.1.16/XMCLib/src/xmc_usbd.c ****       /* Masked that interrupt so its only done once */
 884:/opt/XMClib/XMC_Peripheral_Library_v2.1.16/XMCLib/src/xmc_usbd.c ****       gintmsk.b.rxstsqlvl = 0U;
 885:/opt/XMClib/XMC_Peripheral_Library_v2.1.16/XMCLib/src/xmc_usbd.c ****       xmc_device.global_register->gintmsk = gintmsk.d32;
 886:/opt/XMClib/XMC_Peripheral_Library_v2.1.16/XMCLib/src/xmc_usbd.c ****       XMC_USBD_lHandleRxFLvl(); /* handle the interrupt */
 887:/opt/XMClib/XMC_Peripheral_Library_v2.1.16/XMCLib/src/xmc_usbd.c ****       gintmsk.b.rxstsqlvl = 1U;
 888:/opt/XMClib/XMC_Peripheral_Library_v2.1.16/XMCLib/src/xmc_usbd.c ****       xmc_device.global_register->gintmsk = gintmsk.d32;
 889:/opt/XMClib/XMC_Peripheral_Library_v2.1.16/XMCLib/src/xmc_usbd.c ****     }
 890:/opt/XMClib/XMC_Peripheral_Library_v2.1.16/XMCLib/src/xmc_usbd.c ****   }
 891:/opt/XMClib/XMC_Peripheral_Library_v2.1.16/XMCLib/src/xmc_usbd.c ****   if (data.b.erlysuspend)
 892:/opt/XMClib/XMC_Peripheral_Library_v2.1.16/XMCLib/src/xmc_usbd.c ****   {
 893:/opt/XMClib/XMC_Peripheral_Library_v2.1.16/XMCLib/src/xmc_usbd.c ****     XMC_USBD_ClearEvent(XMC_USBD_EVENT_EARLYSUSPEND);
 894:/opt/XMClib/XMC_Peripheral_Library_v2.1.16/XMCLib/src/xmc_usbd.c ****   }
 895:/opt/XMClib/XMC_Peripheral_Library_v2.1.16/XMCLib/src/xmc_usbd.c ****   if (data.b.usbsuspend)
 896:/opt/XMClib/XMC_Peripheral_Library_v2.1.16/XMCLib/src/xmc_usbd.c ****   {
 897:/opt/XMClib/XMC_Peripheral_Library_v2.1.16/XMCLib/src/xmc_usbd.c ****     xmc_device.DeviceEvent_cb(XMC_USBD_EVENT_SUSPEND);
 898:/opt/XMClib/XMC_Peripheral_Library_v2.1.16/XMCLib/src/xmc_usbd.c ****     XMC_USBD_ClearEvent(XMC_USBD_EVENT_SUSPEND);
 899:/opt/XMClib/XMC_Peripheral_Library_v2.1.16/XMCLib/src/xmc_usbd.c ****   }
 900:/opt/XMClib/XMC_Peripheral_Library_v2.1.16/XMCLib/src/xmc_usbd.c ****   if (data.b.wkupintr)
 901:/opt/XMClib/XMC_Peripheral_Library_v2.1.16/XMCLib/src/xmc_usbd.c ****   {
 902:/opt/XMClib/XMC_Peripheral_Library_v2.1.16/XMCLib/src/xmc_usbd.c ****     xmc_device.DeviceEvent_cb(XMC_USBD_EVENT_REMOTE_WAKEUP);
 903:/opt/XMClib/XMC_Peripheral_Library_v2.1.16/XMCLib/src/xmc_usbd.c ****     XMC_USBD_ClearEvent(XMC_USBD_EVENT_REMOTE_WAKEUP);
 904:/opt/XMClib/XMC_Peripheral_Library_v2.1.16/XMCLib/src/xmc_usbd.c ****   }
 905:/opt/XMClib/XMC_Peripheral_Library_v2.1.16/XMCLib/src/xmc_usbd.c ****   if (data.b.sessreqintr)
 906:/opt/XMClib/XMC_Peripheral_Library_v2.1.16/XMCLib/src/xmc_usbd.c ****   {
 907:/opt/XMClib/XMC_Peripheral_Library_v2.1.16/XMCLib/src/xmc_usbd.c ****     xmc_device.IsPowered = 1U;
 908:/opt/XMClib/XMC_Peripheral_Library_v2.1.16/XMCLib/src/xmc_usbd.c ****     xmc_device.DeviceEvent_cb(XMC_USBD_EVENT_POWER_ON);
 909:/opt/XMClib/XMC_Peripheral_Library_v2.1.16/XMCLib/src/xmc_usbd.c ****     XMC_USBD_ClearEvent(XMC_USBD_EVENT_POWER_ON);
 910:/opt/XMClib/XMC_Peripheral_Library_v2.1.16/XMCLib/src/xmc_usbd.c ****   }
 911:/opt/XMClib/XMC_Peripheral_Library_v2.1.16/XMCLib/src/xmc_usbd.c ****   if (data.b.usbreset)
 912:/opt/XMClib/XMC_Peripheral_Library_v2.1.16/XMCLib/src/xmc_usbd.c ****   {
 913:/opt/XMClib/XMC_Peripheral_Library_v2.1.16/XMCLib/src/xmc_usbd.c ****     XMC_USBD_lHandleUSBReset(obj);
 914:/opt/XMClib/XMC_Peripheral_Library_v2.1.16/XMCLib/src/xmc_usbd.c ****   }
 915:/opt/XMClib/XMC_Peripheral_Library_v2.1.16/XMCLib/src/xmc_usbd.c ****   if (data.b.enumdone)
 916:/opt/XMClib/XMC_Peripheral_Library_v2.1.16/XMCLib/src/xmc_usbd.c ****   {
 917:/opt/XMClib/XMC_Peripheral_Library_v2.1.16/XMCLib/src/xmc_usbd.c ****     XMC_USBD_lHandleEnumDone();
 918:/opt/XMClib/XMC_Peripheral_Library_v2.1.16/XMCLib/src/xmc_usbd.c ****   }
 919:/opt/XMClib/XMC_Peripheral_Library_v2.1.16/XMCLib/src/xmc_usbd.c ****   if (data.b.inepint)
 920:/opt/XMClib/XMC_Peripheral_Library_v2.1.16/XMCLib/src/xmc_usbd.c ****   {
 921:/opt/XMClib/XMC_Peripheral_Library_v2.1.16/XMCLib/src/xmc_usbd.c ****     XMC_USBD_lHandleIEPInt(obj);
 922:/opt/XMClib/XMC_Peripheral_Library_v2.1.16/XMCLib/src/xmc_usbd.c ****   }
 923:/opt/XMClib/XMC_Peripheral_Library_v2.1.16/XMCLib/src/xmc_usbd.c ****   if (data.b.outepintr)
 924:/opt/XMClib/XMC_Peripheral_Library_v2.1.16/XMCLib/src/xmc_usbd.c ****   {
 925:/opt/XMClib/XMC_Peripheral_Library_v2.1.16/XMCLib/src/xmc_usbd.c **** 		XMC_USBD_lHandleOEPInt(obj);
 926:/opt/XMClib/XMC_Peripheral_Library_v2.1.16/XMCLib/src/xmc_usbd.c ****   }
 927:/opt/XMClib/XMC_Peripheral_Library_v2.1.16/XMCLib/src/xmc_usbd.c **** 	if (data.b.otgintr)
 928:/opt/XMClib/XMC_Peripheral_Library_v2.1.16/XMCLib/src/xmc_usbd.c ****   {
 929:/opt/XMClib/XMC_Peripheral_Library_v2.1.16/XMCLib/src/xmc_usbd.c **** 	  XMC_USBD_lHandleOTGInt();
 930:/opt/XMClib/XMC_Peripheral_Library_v2.1.16/XMCLib/src/xmc_usbd.c ****   }
 931:/opt/XMClib/XMC_Peripheral_Library_v2.1.16/XMCLib/src/xmc_usbd.c **** 
 932:/opt/XMClib/XMC_Peripheral_Library_v2.1.16/XMCLib/src/xmc_usbd.c **** }
 933:/opt/XMClib/XMC_Peripheral_Library_v2.1.16/XMCLib/src/xmc_usbd.c **** 
 934:/opt/XMClib/XMC_Peripheral_Library_v2.1.16/XMCLib/src/xmc_usbd.c **** 
 935:/opt/XMClib/XMC_Peripheral_Library_v2.1.16/XMCLib/src/xmc_usbd.c **** /*******************************************************************************
 936:/opt/XMClib/XMC_Peripheral_Library_v2.1.16/XMCLib/src/xmc_usbd.c ****  * API IMPLEMENTATION
 937:/opt/XMClib/XMC_Peripheral_Library_v2.1.16/XMCLib/src/xmc_usbd.c ****  *******************************************************************************/
 938:/opt/XMClib/XMC_Peripheral_Library_v2.1.16/XMCLib/src/xmc_usbd.c **** /**
 939:/opt/XMClib/XMC_Peripheral_Library_v2.1.16/XMCLib/src/xmc_usbd.c ****  * Enables the USB0 module
 940:/opt/XMClib/XMC_Peripheral_Library_v2.1.16/XMCLib/src/xmc_usbd.c ****  **/
 941:/opt/XMClib/XMC_Peripheral_Library_v2.1.16/XMCLib/src/xmc_usbd.c **** void XMC_USBD_Enable(void) 
 942:/opt/XMClib/XMC_Peripheral_Library_v2.1.16/XMCLib/src/xmc_usbd.c **** {
 943:/opt/XMClib/XMC_Peripheral_Library_v2.1.16/XMCLib/src/xmc_usbd.c **** #if defined(CLOCK_GATING_SUPPORTED)
 944:/opt/XMClib/XMC_Peripheral_Library_v2.1.16/XMCLib/src/xmc_usbd.c ****   XMC_SCU_CLOCK_UngatePeripheralClock(XMC_SCU_PERIPHERAL_CLOCK_USB0);
 945:/opt/XMClib/XMC_Peripheral_Library_v2.1.16/XMCLib/src/xmc_usbd.c **** #endif
 946:/opt/XMClib/XMC_Peripheral_Library_v2.1.16/XMCLib/src/xmc_usbd.c ****   /* Reset and power up */
 947:/opt/XMClib/XMC_Peripheral_Library_v2.1.16/XMCLib/src/xmc_usbd.c ****   XMC_SCU_RESET_DeassertPeripheralReset(XMC_SCU_PERIPHERAL_RESET_USB0);
 948:/opt/XMClib/XMC_Peripheral_Library_v2.1.16/XMCLib/src/xmc_usbd.c ****   XMC_SCU_POWER_EnableUsb();
 949:/opt/XMClib/XMC_Peripheral_Library_v2.1.16/XMCLib/src/xmc_usbd.c **** }
 950:/opt/XMClib/XMC_Peripheral_Library_v2.1.16/XMCLib/src/xmc_usbd.c **** 
 951:/opt/XMClib/XMC_Peripheral_Library_v2.1.16/XMCLib/src/xmc_usbd.c **** /**
 952:/opt/XMClib/XMC_Peripheral_Library_v2.1.16/XMCLib/src/xmc_usbd.c ****  * Disables the USB0 module
 953:/opt/XMClib/XMC_Peripheral_Library_v2.1.16/XMCLib/src/xmc_usbd.c ****  **/
 954:/opt/XMClib/XMC_Peripheral_Library_v2.1.16/XMCLib/src/xmc_usbd.c **** void XMC_USBD_Disable(void) 
 955:/opt/XMClib/XMC_Peripheral_Library_v2.1.16/XMCLib/src/xmc_usbd.c **** {
 956:/opt/XMClib/XMC_Peripheral_Library_v2.1.16/XMCLib/src/xmc_usbd.c ****   /* Clear Reset and power up */
 957:/opt/XMClib/XMC_Peripheral_Library_v2.1.16/XMCLib/src/xmc_usbd.c ****   XMC_SCU_RESET_AssertPeripheralReset(XMC_SCU_PERIPHERAL_RESET_USB0);
 958:/opt/XMClib/XMC_Peripheral_Library_v2.1.16/XMCLib/src/xmc_usbd.c **** #if defined(CLOCK_GATING_SUPPORTED)
 959:/opt/XMClib/XMC_Peripheral_Library_v2.1.16/XMCLib/src/xmc_usbd.c ****   XMC_SCU_CLOCK_GatePeripheralClock(XMC_SCU_PERIPHERAL_CLOCK_USB0);
 960:/opt/XMClib/XMC_Peripheral_Library_v2.1.16/XMCLib/src/xmc_usbd.c **** #endif
 961:/opt/XMClib/XMC_Peripheral_Library_v2.1.16/XMCLib/src/xmc_usbd.c ****   XMC_SCU_POWER_DisableUsb();
 962:/opt/XMClib/XMC_Peripheral_Library_v2.1.16/XMCLib/src/xmc_usbd.c **** }
 963:/opt/XMClib/XMC_Peripheral_Library_v2.1.16/XMCLib/src/xmc_usbd.c **** 
 964:/opt/XMClib/XMC_Peripheral_Library_v2.1.16/XMCLib/src/xmc_usbd.c **** /**
 965:/opt/XMClib/XMC_Peripheral_Library_v2.1.16/XMCLib/src/xmc_usbd.c ****  * Clear the USB device event
 966:/opt/XMClib/XMC_Peripheral_Library_v2.1.16/XMCLib/src/xmc_usbd.c ****  **/
 967:/opt/XMClib/XMC_Peripheral_Library_v2.1.16/XMCLib/src/xmc_usbd.c **** void XMC_USBD_ClearEvent(const XMC_USBD_EVENT_t event) 
 968:/opt/XMClib/XMC_Peripheral_Library_v2.1.16/XMCLib/src/xmc_usbd.c **** {
 969:/opt/XMClib/XMC_Peripheral_Library_v2.1.16/XMCLib/src/xmc_usbd.c ****   gintsts_data_t clear;
 970:/opt/XMClib/XMC_Peripheral_Library_v2.1.16/XMCLib/src/xmc_usbd.c ****   clear.d32 = 0U;
 971:/opt/XMClib/XMC_Peripheral_Library_v2.1.16/XMCLib/src/xmc_usbd.c ****   switch(event)
 972:/opt/XMClib/XMC_Peripheral_Library_v2.1.16/XMCLib/src/xmc_usbd.c ****   {
 973:/opt/XMClib/XMC_Peripheral_Library_v2.1.16/XMCLib/src/xmc_usbd.c ****     case (XMC_USBD_EVENT_POWER_ON):
 974:/opt/XMClib/XMC_Peripheral_Library_v2.1.16/XMCLib/src/xmc_usbd.c **** 	  clear.b.sessreqintr = 1U;
 975:/opt/XMClib/XMC_Peripheral_Library_v2.1.16/XMCLib/src/xmc_usbd.c **** 	  break;
 976:/opt/XMClib/XMC_Peripheral_Library_v2.1.16/XMCLib/src/xmc_usbd.c ****     case (XMC_USBD_EVENT_RESET):
 977:/opt/XMClib/XMC_Peripheral_Library_v2.1.16/XMCLib/src/xmc_usbd.c **** 	  clear.b.usbreset = 1U;
 978:/opt/XMClib/XMC_Peripheral_Library_v2.1.16/XMCLib/src/xmc_usbd.c **** 	  break;
 979:/opt/XMClib/XMC_Peripheral_Library_v2.1.16/XMCLib/src/xmc_usbd.c ****     case (XMC_USBD_EVENT_SUSPEND):
 980:/opt/XMClib/XMC_Peripheral_Library_v2.1.16/XMCLib/src/xmc_usbd.c **** 	  clear.b.usbsuspend = 1U;
 981:/opt/XMClib/XMC_Peripheral_Library_v2.1.16/XMCLib/src/xmc_usbd.c **** 	  break;
 982:/opt/XMClib/XMC_Peripheral_Library_v2.1.16/XMCLib/src/xmc_usbd.c ****     case (XMC_USBD_EVENT_RESUME):
 983:/opt/XMClib/XMC_Peripheral_Library_v2.1.16/XMCLib/src/xmc_usbd.c **** 	  clear.b.wkupintr = 1U;
 984:/opt/XMClib/XMC_Peripheral_Library_v2.1.16/XMCLib/src/xmc_usbd.c **** 	  break;
 985:/opt/XMClib/XMC_Peripheral_Library_v2.1.16/XMCLib/src/xmc_usbd.c ****     case (XMC_USBD_EVENT_REMOTE_WAKEUP):
 986:/opt/XMClib/XMC_Peripheral_Library_v2.1.16/XMCLib/src/xmc_usbd.c **** 	  clear.b.wkupintr = 1U;
 987:/opt/XMClib/XMC_Peripheral_Library_v2.1.16/XMCLib/src/xmc_usbd.c **** 	  break;
 988:/opt/XMClib/XMC_Peripheral_Library_v2.1.16/XMCLib/src/xmc_usbd.c ****     case (XMC_USBD_EVENT_SOF):
 989:/opt/XMClib/XMC_Peripheral_Library_v2.1.16/XMCLib/src/xmc_usbd.c **** 	  clear.b.sofintr = 1U;
 990:/opt/XMClib/XMC_Peripheral_Library_v2.1.16/XMCLib/src/xmc_usbd.c **** 	  break;
 991:/opt/XMClib/XMC_Peripheral_Library_v2.1.16/XMCLib/src/xmc_usbd.c ****     case (XMC_USBD_EVENT_EARLYSUSPEND):
 992:/opt/XMClib/XMC_Peripheral_Library_v2.1.16/XMCLib/src/xmc_usbd.c **** 	  clear.b.erlysuspend = 1U;
 993:/opt/XMClib/XMC_Peripheral_Library_v2.1.16/XMCLib/src/xmc_usbd.c **** 	  break;
 994:/opt/XMClib/XMC_Peripheral_Library_v2.1.16/XMCLib/src/xmc_usbd.c ****     case (XMC_USBD_EVENT_ENUMDONE):
 995:/opt/XMClib/XMC_Peripheral_Library_v2.1.16/XMCLib/src/xmc_usbd.c **** 	  clear.b.enumdone = 1U;
 996:/opt/XMClib/XMC_Peripheral_Library_v2.1.16/XMCLib/src/xmc_usbd.c **** 	  break;
 997:/opt/XMClib/XMC_Peripheral_Library_v2.1.16/XMCLib/src/xmc_usbd.c ****     case (XMC_USBD_EVENT_OUTEP):
 998:/opt/XMClib/XMC_Peripheral_Library_v2.1.16/XMCLib/src/xmc_usbd.c **** 	  clear.b.outepintr = 1U;
 999:/opt/XMClib/XMC_Peripheral_Library_v2.1.16/XMCLib/src/xmc_usbd.c **** 	  break;
1000:/opt/XMClib/XMC_Peripheral_Library_v2.1.16/XMCLib/src/xmc_usbd.c **** 		default:
1001:/opt/XMClib/XMC_Peripheral_Library_v2.1.16/XMCLib/src/xmc_usbd.c **** 		break;
1002:/opt/XMClib/XMC_Peripheral_Library_v2.1.16/XMCLib/src/xmc_usbd.c **** 	}
1003:/opt/XMClib/XMC_Peripheral_Library_v2.1.16/XMCLib/src/xmc_usbd.c **** 	xmc_device.global_register->gintsts = clear.d32;
1004:/opt/XMClib/XMC_Peripheral_Library_v2.1.16/XMCLib/src/xmc_usbd.c **** }
1005:/opt/XMClib/XMC_Peripheral_Library_v2.1.16/XMCLib/src/xmc_usbd.c **** 
1006:/opt/XMClib/XMC_Peripheral_Library_v2.1.16/XMCLib/src/xmc_usbd.c **** /**
1007:/opt/XMClib/XMC_Peripheral_Library_v2.1.16/XMCLib/src/xmc_usbd.c ****  * Clear the USB OTG events
1008:/opt/XMClib/XMC_Peripheral_Library_v2.1.16/XMCLib/src/xmc_usbd.c ****  **/
1009:/opt/XMClib/XMC_Peripheral_Library_v2.1.16/XMCLib/src/xmc_usbd.c **** static void XMC_USBD_lClearEventOTG(uint32_t event)
1010:/opt/XMClib/XMC_Peripheral_Library_v2.1.16/XMCLib/src/xmc_usbd.c **** {
1011:/opt/XMClib/XMC_Peripheral_Library_v2.1.16/XMCLib/src/xmc_usbd.c ****   gotgint_data_t clear = { .d32 = 0U};
1012:/opt/XMClib/XMC_Peripheral_Library_v2.1.16/XMCLib/src/xmc_usbd.c ****   clear.d32 = event;
1013:/opt/XMClib/XMC_Peripheral_Library_v2.1.16/XMCLib/src/xmc_usbd.c ****   xmc_device.global_register->gotgint = clear.d32;
1014:/opt/XMClib/XMC_Peripheral_Library_v2.1.16/XMCLib/src/xmc_usbd.c **** }
1015:/opt/XMClib/XMC_Peripheral_Library_v2.1.16/XMCLib/src/xmc_usbd.c **** 
1016:/opt/XMClib/XMC_Peripheral_Library_v2.1.16/XMCLib/src/xmc_usbd.c **** /**
1017:/opt/XMClib/XMC_Peripheral_Library_v2.1.16/XMCLib/src/xmc_usbd.c ****  * Clear the USB IN EP events
1018:/opt/XMClib/XMC_Peripheral_Library_v2.1.16/XMCLib/src/xmc_usbd.c ****  **/
1019:/opt/XMClib/XMC_Peripheral_Library_v2.1.16/XMCLib/src/xmc_usbd.c **** void XMC_USBD_ClearEventINEP(uint32_t event,const uint8_t ep_num)
1020:/opt/XMClib/XMC_Peripheral_Library_v2.1.16/XMCLib/src/xmc_usbd.c **** {
1021:/opt/XMClib/XMC_Peripheral_Library_v2.1.16/XMCLib/src/xmc_usbd.c ****   diepint_data_t clear;
1022:/opt/XMClib/XMC_Peripheral_Library_v2.1.16/XMCLib/src/xmc_usbd.c ****   clear.d32 = event;
1023:/opt/XMClib/XMC_Peripheral_Library_v2.1.16/XMCLib/src/xmc_usbd.c ****   xmc_device.endpoint_in_register[ep_num]->diepint = clear.d32;
1024:/opt/XMClib/XMC_Peripheral_Library_v2.1.16/XMCLib/src/xmc_usbd.c **** }
1025:/opt/XMClib/XMC_Peripheral_Library_v2.1.16/XMCLib/src/xmc_usbd.c **** 
1026:/opt/XMClib/XMC_Peripheral_Library_v2.1.16/XMCLib/src/xmc_usbd.c **** /**
1027:/opt/XMClib/XMC_Peripheral_Library_v2.1.16/XMCLib/src/xmc_usbd.c ****  * Clear the USB OUT EP events
1028:/opt/XMClib/XMC_Peripheral_Library_v2.1.16/XMCLib/src/xmc_usbd.c ****  **/
1029:/opt/XMClib/XMC_Peripheral_Library_v2.1.16/XMCLib/src/xmc_usbd.c **** void XMC_USBD_ClearEventOUTEP(uint32_t event,const uint8_t ep_num)
1030:/opt/XMClib/XMC_Peripheral_Library_v2.1.16/XMCLib/src/xmc_usbd.c **** {
1031:/opt/XMClib/XMC_Peripheral_Library_v2.1.16/XMCLib/src/xmc_usbd.c ****   doepint_data_t clear;
1032:/opt/XMClib/XMC_Peripheral_Library_v2.1.16/XMCLib/src/xmc_usbd.c ****   clear.d32 = event;
1033:/opt/XMClib/XMC_Peripheral_Library_v2.1.16/XMCLib/src/xmc_usbd.c ****   xmc_device.endpoint_out_register[ep_num]->doepint = clear.d32;
1034:/opt/XMClib/XMC_Peripheral_Library_v2.1.16/XMCLib/src/xmc_usbd.c **** }
1035:/opt/XMClib/XMC_Peripheral_Library_v2.1.16/XMCLib/src/xmc_usbd.c **** 
1036:/opt/XMClib/XMC_Peripheral_Library_v2.1.16/XMCLib/src/xmc_usbd.c **** /**
1037:/opt/XMClib/XMC_Peripheral_Library_v2.1.16/XMCLib/src/xmc_usbd.c ****  * Enable the USB OUT EP events
1038:/opt/XMClib/XMC_Peripheral_Library_v2.1.16/XMCLib/src/xmc_usbd.c ****  **/
1039:/opt/XMClib/XMC_Peripheral_Library_v2.1.16/XMCLib/src/xmc_usbd.c **** void XMC_USBD_EnableEventOUTEP(uint32_t event)
1040:/opt/XMClib/XMC_Peripheral_Library_v2.1.16/XMCLib/src/xmc_usbd.c **** {
1041:/opt/XMClib/XMC_Peripheral_Library_v2.1.16/XMCLib/src/xmc_usbd.c **** 	doepint_data_t doepint;
1042:/opt/XMClib/XMC_Peripheral_Library_v2.1.16/XMCLib/src/xmc_usbd.c **** 	doepint.d32 = event;
1043:/opt/XMClib/XMC_Peripheral_Library_v2.1.16/XMCLib/src/xmc_usbd.c **** 	xmc_device.device_register->doepmsk |= doepint.d32;
1044:/opt/XMClib/XMC_Peripheral_Library_v2.1.16/XMCLib/src/xmc_usbd.c **** }
1045:/opt/XMClib/XMC_Peripheral_Library_v2.1.16/XMCLib/src/xmc_usbd.c **** 
1046:/opt/XMClib/XMC_Peripheral_Library_v2.1.16/XMCLib/src/xmc_usbd.c **** /**
1047:/opt/XMClib/XMC_Peripheral_Library_v2.1.16/XMCLib/src/xmc_usbd.c ****  * Enable the USB IN EP events
1048:/opt/XMClib/XMC_Peripheral_Library_v2.1.16/XMCLib/src/xmc_usbd.c ****  **/
1049:/opt/XMClib/XMC_Peripheral_Library_v2.1.16/XMCLib/src/xmc_usbd.c **** void XMC_USBD_EnableEventINEP(uint32_t event)
1050:/opt/XMClib/XMC_Peripheral_Library_v2.1.16/XMCLib/src/xmc_usbd.c **** {
1051:/opt/XMClib/XMC_Peripheral_Library_v2.1.16/XMCLib/src/xmc_usbd.c **** 	diepint_data_t diepint;
1052:/opt/XMClib/XMC_Peripheral_Library_v2.1.16/XMCLib/src/xmc_usbd.c **** 	diepint.d32 = event;
1053:/opt/XMClib/XMC_Peripheral_Library_v2.1.16/XMCLib/src/xmc_usbd.c **** 	xmc_device.device_register->diepmsk |= diepint.d32;
1054:/opt/XMClib/XMC_Peripheral_Library_v2.1.16/XMCLib/src/xmc_usbd.c **** }
1055:/opt/XMClib/XMC_Peripheral_Library_v2.1.16/XMCLib/src/xmc_usbd.c **** 
1056:/opt/XMClib/XMC_Peripheral_Library_v2.1.16/XMCLib/src/xmc_usbd.c **** /**
1057:/opt/XMClib/XMC_Peripheral_Library_v2.1.16/XMCLib/src/xmc_usbd.c ****  * Gets the USB device capabilities
1058:/opt/XMClib/XMC_Peripheral_Library_v2.1.16/XMCLib/src/xmc_usbd.c ****  **/
1059:/opt/XMClib/XMC_Peripheral_Library_v2.1.16/XMCLib/src/xmc_usbd.c **** XMC_USBD_CAPABILITIES_t XMC_USBD_GetCapabilities()
1060:/opt/XMClib/XMC_Peripheral_Library_v2.1.16/XMCLib/src/xmc_usbd.c **** {
 748              		.loc 1 1060 1 is_stmt 1 view -0
 749              		.cfi_startproc
 750              		@ args = 0, pretend = 0, frame = 0
 751              		@ frame_needed = 0, uses_anonymous_args = 0
 752              		@ link register save eliminated.
1061:/opt/XMClib/XMC_Peripheral_Library_v2.1.16/XMCLib/src/xmc_usbd.c ****   XMC_USBD_CAPABILITIES_t cap={0U};
 753              		.loc 1 1061 3 view .LVU261
 754              	.LVL49:
1062:/opt/XMClib/XMC_Peripheral_Library_v2.1.16/XMCLib/src/xmc_usbd.c ****   cap.event_connect = 1U;
 755              		.loc 1 1062 3 view .LVU262
1063:/opt/XMClib/XMC_Peripheral_Library_v2.1.16/XMCLib/src/xmc_usbd.c ****   cap.event_disconnect = 1U;
 756              		.loc 1 1063 3 view .LVU263
1064:/opt/XMClib/XMC_Peripheral_Library_v2.1.16/XMCLib/src/xmc_usbd.c **** #if UC_SERIES == 45
1065:/opt/XMClib/XMC_Peripheral_Library_v2.1.16/XMCLib/src/xmc_usbd.c ****   cap.event_power_off = 1U;
 757              		.loc 1 1065 3 view .LVU264
1066:/opt/XMClib/XMC_Peripheral_Library_v2.1.16/XMCLib/src/xmc_usbd.c ****   cap.event_power_on = 1U;
 758              		.loc 1 1066 3 view .LVU265
1067:/opt/XMClib/XMC_Peripheral_Library_v2.1.16/XMCLib/src/xmc_usbd.c **** #else
1068:/opt/XMClib/XMC_Peripheral_Library_v2.1.16/XMCLib/src/xmc_usbd.c ****   cap.event_power_off = 0U;
1069:/opt/XMClib/XMC_Peripheral_Library_v2.1.16/XMCLib/src/xmc_usbd.c ****   cap.event_power_on = 0U;
1070:/opt/XMClib/XMC_Peripheral_Library_v2.1.16/XMCLib/src/xmc_usbd.c **** #endif
1071:/opt/XMClib/XMC_Peripheral_Library_v2.1.16/XMCLib/src/xmc_usbd.c ****   cap.event_high_speed = 0U;
 759              		.loc 1 1071 3 view .LVU266
1072:/opt/XMClib/XMC_Peripheral_Library_v2.1.16/XMCLib/src/xmc_usbd.c ****   cap.event_remote_wakeup = 1U;
 760              		.loc 1 1072 3 view .LVU267
1073:/opt/XMClib/XMC_Peripheral_Library_v2.1.16/XMCLib/src/xmc_usbd.c ****   cap.event_reset = 1U;
 761              		.loc 1 1073 3 view .LVU268
1074:/opt/XMClib/XMC_Peripheral_Library_v2.1.16/XMCLib/src/xmc_usbd.c ****   cap.event_resume = 1U;
 762              		.loc 1 1074 3 view .LVU269
1075:/opt/XMClib/XMC_Peripheral_Library_v2.1.16/XMCLib/src/xmc_usbd.c ****   cap.event_suspend = 1U;
 763              		.loc 1 1075 3 view .LVU270
1076:/opt/XMClib/XMC_Peripheral_Library_v2.1.16/XMCLib/src/xmc_usbd.c ****   cap.reserved = 0U;
 764              		.loc 1 1076 3 view .LVU271
1077:/opt/XMClib/XMC_Peripheral_Library_v2.1.16/XMCLib/src/xmc_usbd.c ****   return cap;
 765              		.loc 1 1077 3 view .LVU272
1078:/opt/XMClib/XMC_Peripheral_Library_v2.1.16/XMCLib/src/xmc_usbd.c **** }
 766              		.loc 1 1078 1 is_stmt 0 view .LVU273
 767 0000 40F2DF10 		movw	r0, #479
 768 0004 7047     		bx	lr
 769              		.cfi_endproc
 770              	.LFE186:
 772              		.section	.text.XMC_USBD_DeviceConnect,"ax",%progbits
 773              		.align	1
 774              		.global	XMC_USBD_DeviceConnect
 775              		.syntax unified
 776              		.thumb
 777              		.thumb_func
 779              	XMC_USBD_DeviceConnect:
 780              	.LFB189:
1079:/opt/XMClib/XMC_Peripheral_Library_v2.1.16/XMCLib/src/xmc_usbd.c **** 
1080:/opt/XMClib/XMC_Peripheral_Library_v2.1.16/XMCLib/src/xmc_usbd.c **** /**
1081:/opt/XMClib/XMC_Peripheral_Library_v2.1.16/XMCLib/src/xmc_usbd.c ****  * Initializes the USB device
1082:/opt/XMClib/XMC_Peripheral_Library_v2.1.16/XMCLib/src/xmc_usbd.c ****  **/
1083:/opt/XMClib/XMC_Peripheral_Library_v2.1.16/XMCLib/src/xmc_usbd.c **** XMC_USBD_STATUS_t XMC_USBD_Init(XMC_USBD_t *obj)
1084:/opt/XMClib/XMC_Peripheral_Library_v2.1.16/XMCLib/src/xmc_usbd.c **** {
1085:/opt/XMClib/XMC_Peripheral_Library_v2.1.16/XMCLib/src/xmc_usbd.c ****   uint8_t *XMC_USBD_BASE_ADDRESS;
1086:/opt/XMClib/XMC_Peripheral_Library_v2.1.16/XMCLib/src/xmc_usbd.c ****   uint32_t i;
1087:/opt/XMClib/XMC_Peripheral_Library_v2.1.16/XMCLib/src/xmc_usbd.c ****   gahbcfg_data_t gahbcfg;
1088:/opt/XMClib/XMC_Peripheral_Library_v2.1.16/XMCLib/src/xmc_usbd.c ****   gusbcfg_data_t gusbcfg;
1089:/opt/XMClib/XMC_Peripheral_Library_v2.1.16/XMCLib/src/xmc_usbd.c ****   dcfg_data_t dcfg;
1090:/opt/XMClib/XMC_Peripheral_Library_v2.1.16/XMCLib/src/xmc_usbd.c ****   dctl_data_t dctl;
1091:/opt/XMClib/XMC_Peripheral_Library_v2.1.16/XMCLib/src/xmc_usbd.c ****   gintmsk_data_t gintmsk;
1092:/opt/XMClib/XMC_Peripheral_Library_v2.1.16/XMCLib/src/xmc_usbd.c **** 
1093:/opt/XMClib/XMC_Peripheral_Library_v2.1.16/XMCLib/src/xmc_usbd.c ****   XMC_ASSERT("XMC_USBD_Init: obj.usbd_max_num_eps not of type XMC_USBD_MAX_NUM_EPS_t",
1094:/opt/XMClib/XMC_Peripheral_Library_v2.1.16/XMCLib/src/xmc_usbd.c ****  		      XMC_USBD_CHECK_INPUT_MAX_NUM_EPS(obj->usbd_max_num_eps))
1095:/opt/XMClib/XMC_Peripheral_Library_v2.1.16/XMCLib/src/xmc_usbd.c ****   
1096:/opt/XMClib/XMC_Peripheral_Library_v2.1.16/XMCLib/src/xmc_usbd.c ****   XMC_USBD_Enable();
1097:/opt/XMClib/XMC_Peripheral_Library_v2.1.16/XMCLib/src/xmc_usbd.c ****   
1098:/opt/XMClib/XMC_Peripheral_Library_v2.1.16/XMCLib/src/xmc_usbd.c ****   usbd_init = obj;
1099:/opt/XMClib/XMC_Peripheral_Library_v2.1.16/XMCLib/src/xmc_usbd.c **** 
1100:/opt/XMClib/XMC_Peripheral_Library_v2.1.16/XMCLib/src/xmc_usbd.c ****   /* Filling out buffer size */
1101:/opt/XMClib/XMC_Peripheral_Library_v2.1.16/XMCLib/src/xmc_usbd.c ****   for(i = 0U;i < (uint32_t)XMC_USBD_NUM_EPS;i++)
1102:/opt/XMClib/XMC_Peripheral_Library_v2.1.16/XMCLib/src/xmc_usbd.c ****   {
1103:/opt/XMClib/XMC_Peripheral_Library_v2.1.16/XMCLib/src/xmc_usbd.c **** 	  XMC_USBD_EP_OUT_BUFFERSIZE[i] = XMC_USBD_EP0_BUFFER_SIZE;
1104:/opt/XMClib/XMC_Peripheral_Library_v2.1.16/XMCLib/src/xmc_usbd.c **** 	  XMC_USBD_EP_IN_BUFFERSIZE[i] 	= XMC_USBD_EP0_BUFFER_SIZE;
1105:/opt/XMClib/XMC_Peripheral_Library_v2.1.16/XMCLib/src/xmc_usbd.c ****   }
1106:/opt/XMClib/XMC_Peripheral_Library_v2.1.16/XMCLib/src/xmc_usbd.c **** 
1107:/opt/XMClib/XMC_Peripheral_Library_v2.1.16/XMCLib/src/xmc_usbd.c ****   /* clear device status */
1108:/opt/XMClib/XMC_Peripheral_Library_v2.1.16/XMCLib/src/xmc_usbd.c ****   memset((void*)&xmc_device,0x0U,sizeof(XMC_USBD_DEVICE_t));
1109:/opt/XMClib/XMC_Peripheral_Library_v2.1.16/XMCLib/src/xmc_usbd.c **** 
1110:/opt/XMClib/XMC_Peripheral_Library_v2.1.16/XMCLib/src/xmc_usbd.c ****   /* assign callbacks */
1111:/opt/XMClib/XMC_Peripheral_Library_v2.1.16/XMCLib/src/xmc_usbd.c ****   xmc_device.DeviceEvent_cb = obj->cb_xmc_device_event;
1112:/opt/XMClib/XMC_Peripheral_Library_v2.1.16/XMCLib/src/xmc_usbd.c ****   xmc_device.EndpointEvent_cb = obj->cb_endpoint_event;
1113:/opt/XMClib/XMC_Peripheral_Library_v2.1.16/XMCLib/src/xmc_usbd.c ****   XMC_USBD_BASE_ADDRESS = (uint8_t *)(obj->usbd);
1114:/opt/XMClib/XMC_Peripheral_Library_v2.1.16/XMCLib/src/xmc_usbd.c ****   /* assign register address */
1115:/opt/XMClib/XMC_Peripheral_Library_v2.1.16/XMCLib/src/xmc_usbd.c ****   xmc_device.global_register = (dwc_otg_core_global_regs_t*)(obj->usbd);
1116:/opt/XMClib/XMC_Peripheral_Library_v2.1.16/XMCLib/src/xmc_usbd.c ****   xmc_device.device_register = ((dwc_otg_device_global_regs_t*)(XMC_USBD_BASE_ADDRESS + DWC_DEV_GLO
1117:/opt/XMClib/XMC_Peripheral_Library_v2.1.16/XMCLib/src/xmc_usbd.c ****   for (i = 0U;i < (uint32_t)XMC_USBD_NUM_EPS;i++)
1118:/opt/XMClib/XMC_Peripheral_Library_v2.1.16/XMCLib/src/xmc_usbd.c ****   {
1119:/opt/XMClib/XMC_Peripheral_Library_v2.1.16/XMCLib/src/xmc_usbd.c ****     xmc_device.endpoint_in_register[i] = (dwc_otg_dev_in_ep_regs_t*)(XMC_USBD_BASE_ADDRESS + DWC_DE
1120:/opt/XMClib/XMC_Peripheral_Library_v2.1.16/XMCLib/src/xmc_usbd.c ****     ((uint32_t)DWC_EP_REG_OFFSET*i));
1121:/opt/XMClib/XMC_Peripheral_Library_v2.1.16/XMCLib/src/xmc_usbd.c ****   }
1122:/opt/XMClib/XMC_Peripheral_Library_v2.1.16/XMCLib/src/xmc_usbd.c ****   for (i = 0U;i < (uint32_t)XMC_USBD_NUM_EPS;i++)
1123:/opt/XMClib/XMC_Peripheral_Library_v2.1.16/XMCLib/src/xmc_usbd.c ****   {
1124:/opt/XMClib/XMC_Peripheral_Library_v2.1.16/XMCLib/src/xmc_usbd.c ****     xmc_device.endpoint_out_register[i] = (dwc_otg_dev_out_ep_regs_t*)(XMC_USBD_BASE_ADDRESS +
1125:/opt/XMClib/XMC_Peripheral_Library_v2.1.16/XMCLib/src/xmc_usbd.c ****     									  DWC_DEV_OUT_EP_REG_OFFSET +
1126:/opt/XMClib/XMC_Peripheral_Library_v2.1.16/XMCLib/src/xmc_usbd.c ****     									  ((uint32_t)DWC_EP_REG_OFFSET*i));
1127:/opt/XMClib/XMC_Peripheral_Library_v2.1.16/XMCLib/src/xmc_usbd.c ****   }
1128:/opt/XMClib/XMC_Peripheral_Library_v2.1.16/XMCLib/src/xmc_usbd.c ****   for (i = 0U;i < (uint32_t)XMC_USBD_NUM_TX_FIFOS;i++)
1129:/opt/XMClib/XMC_Peripheral_Library_v2.1.16/XMCLib/src/xmc_usbd.c ****   {
1130:/opt/XMClib/XMC_Peripheral_Library_v2.1.16/XMCLib/src/xmc_usbd.c ****     xmc_device.fifo[i] = (uint32_t*)(XMC_USBD_BASE_ADDRESS +
1131:/opt/XMClib/XMC_Peripheral_Library_v2.1.16/XMCLib/src/xmc_usbd.c ****     						XMC_USBD_TX_FIFO_REG_OFFSET +
1132:/opt/XMClib/XMC_Peripheral_Library_v2.1.16/XMCLib/src/xmc_usbd.c ****     						(i * XMC_USBD_TX_FIFO_OFFSET));
1133:/opt/XMClib/XMC_Peripheral_Library_v2.1.16/XMCLib/src/xmc_usbd.c ****   }
1134:/opt/XMClib/XMC_Peripheral_Library_v2.1.16/XMCLib/src/xmc_usbd.c ****   /* obj data structure for endpoint 0 */
1135:/opt/XMClib/XMC_Peripheral_Library_v2.1.16/XMCLib/src/xmc_usbd.c ****   /* Done by driver core */
1136:/opt/XMClib/XMC_Peripheral_Library_v2.1.16/XMCLib/src/xmc_usbd.c ****   /* configure ahb details */  
1137:/opt/XMClib/XMC_Peripheral_Library_v2.1.16/XMCLib/src/xmc_usbd.c ****   gahbcfg.d32 = xmc_device.global_register->gahbcfg;
1138:/opt/XMClib/XMC_Peripheral_Library_v2.1.16/XMCLib/src/xmc_usbd.c ****   gahbcfg.b.glblintrmsk = 1U; /* enable interrupts ( global mask ) */
1139:/opt/XMClib/XMC_Peripheral_Library_v2.1.16/XMCLib/src/xmc_usbd.c ****   gahbcfg.b.nptxfemplvl_txfemplvl = 1U;
1140:/opt/XMClib/XMC_Peripheral_Library_v2.1.16/XMCLib/src/xmc_usbd.c ****   if(obj->usbd_transfer_mode == XMC_USBD_USE_DMA)
1141:/opt/XMClib/XMC_Peripheral_Library_v2.1.16/XMCLib/src/xmc_usbd.c ****   {
1142:/opt/XMClib/XMC_Peripheral_Library_v2.1.16/XMCLib/src/xmc_usbd.c ****     /* Enable dma if needed */
1143:/opt/XMClib/XMC_Peripheral_Library_v2.1.16/XMCLib/src/xmc_usbd.c ****     gahbcfg.b.dmaenable = 1U; /* enable dma if needed */
1144:/opt/XMClib/XMC_Peripheral_Library_v2.1.16/XMCLib/src/xmc_usbd.c ****   }
1145:/opt/XMClib/XMC_Peripheral_Library_v2.1.16/XMCLib/src/xmc_usbd.c ****   else
1146:/opt/XMClib/XMC_Peripheral_Library_v2.1.16/XMCLib/src/xmc_usbd.c ****   {
1147:/opt/XMClib/XMC_Peripheral_Library_v2.1.16/XMCLib/src/xmc_usbd.c ****     gahbcfg.b.dmaenable = 0U;
1148:/opt/XMClib/XMC_Peripheral_Library_v2.1.16/XMCLib/src/xmc_usbd.c ****   }
1149:/opt/XMClib/XMC_Peripheral_Library_v2.1.16/XMCLib/src/xmc_usbd.c ****   xmc_device.global_register->gahbcfg = gahbcfg.d32;
1150:/opt/XMClib/XMC_Peripheral_Library_v2.1.16/XMCLib/src/xmc_usbd.c ****   /* configure usb details */  
1151:/opt/XMClib/XMC_Peripheral_Library_v2.1.16/XMCLib/src/xmc_usbd.c ****   gusbcfg.d32= xmc_device.global_register->gusbcfg;
1152:/opt/XMClib/XMC_Peripheral_Library_v2.1.16/XMCLib/src/xmc_usbd.c ****   gusbcfg.b.force_dev_mode = 1U; /* force us into device mode */
1153:/opt/XMClib/XMC_Peripheral_Library_v2.1.16/XMCLib/src/xmc_usbd.c ****   gusbcfg.b.srpcap = 1U; /* enable session request protocoll */
1154:/opt/XMClib/XMC_Peripheral_Library_v2.1.16/XMCLib/src/xmc_usbd.c ****   xmc_device.global_register->gusbcfg = gusbcfg.d32;
1155:/opt/XMClib/XMC_Peripheral_Library_v2.1.16/XMCLib/src/xmc_usbd.c **** 
1156:/opt/XMClib/XMC_Peripheral_Library_v2.1.16/XMCLib/src/xmc_usbd.c ****   /* Device init */
1157:/opt/XMClib/XMC_Peripheral_Library_v2.1.16/XMCLib/src/xmc_usbd.c ****   /* configure device speed */  
1158:/opt/XMClib/XMC_Peripheral_Library_v2.1.16/XMCLib/src/xmc_usbd.c ****   dcfg.d32 = xmc_device.device_register->dcfg;
1159:/opt/XMClib/XMC_Peripheral_Library_v2.1.16/XMCLib/src/xmc_usbd.c ****   dcfg.b.devspd = XMC_USBD_DCFG_DEVSPD_FS;
1160:/opt/XMClib/XMC_Peripheral_Library_v2.1.16/XMCLib/src/xmc_usbd.c ****   dcfg.b.descdma = 0U;
1161:/opt/XMClib/XMC_Peripheral_Library_v2.1.16/XMCLib/src/xmc_usbd.c ****   xmc_device.device_register->dcfg = dcfg.d32;
1162:/opt/XMClib/XMC_Peripheral_Library_v2.1.16/XMCLib/src/xmc_usbd.c ****   /* configure device functions */  
1163:/opt/XMClib/XMC_Peripheral_Library_v2.1.16/XMCLib/src/xmc_usbd.c ****   dctl.d32 = xmc_device.device_register->dctl;
1164:/opt/XMClib/XMC_Peripheral_Library_v2.1.16/XMCLib/src/xmc_usbd.c ****   dctl.b.sftdiscon = 1U; /* disconnect the device until its connected by the user */
1165:/opt/XMClib/XMC_Peripheral_Library_v2.1.16/XMCLib/src/xmc_usbd.c ****   /* all other config is done by default register value */
1166:/opt/XMClib/XMC_Peripheral_Library_v2.1.16/XMCLib/src/xmc_usbd.c ****   xmc_device.device_register->dctl = dctl.d32;
1167:/opt/XMClib/XMC_Peripheral_Library_v2.1.16/XMCLib/src/xmc_usbd.c ****   /* flush the fifos for proper operation */
1168:/opt/XMClib/XMC_Peripheral_Library_v2.1.16/XMCLib/src/xmc_usbd.c ****   XMC_USBD_lFlushTXFifo((uint8_t)0x10U); /* 0x10 == all fifos, see doc */
1169:/opt/XMClib/XMC_Peripheral_Library_v2.1.16/XMCLib/src/xmc_usbd.c ****   XMC_USBD_lFlushRXFifo();
1170:/opt/XMClib/XMC_Peripheral_Library_v2.1.16/XMCLib/src/xmc_usbd.c ****   /* Enable Global Interrupts */
1171:/opt/XMClib/XMC_Peripheral_Library_v2.1.16/XMCLib/src/xmc_usbd.c ****   /* clear interrupt status bits prior to unmasking */
1172:/opt/XMClib/XMC_Peripheral_Library_v2.1.16/XMCLib/src/xmc_usbd.c ****   xmc_device.global_register->gintmsk = 0U; /* disable all interrupts */
1173:/opt/XMClib/XMC_Peripheral_Library_v2.1.16/XMCLib/src/xmc_usbd.c ****   xmc_device.global_register->gintsts = 0xFFFFFFFFU; /* clear all interrupts */
1174:/opt/XMClib/XMC_Peripheral_Library_v2.1.16/XMCLib/src/xmc_usbd.c ****  
1175:/opt/XMClib/XMC_Peripheral_Library_v2.1.16/XMCLib/src/xmc_usbd.c ****   gintmsk.d32 = 0U;
1176:/opt/XMClib/XMC_Peripheral_Library_v2.1.16/XMCLib/src/xmc_usbd.c ****   /* enable common interrupts */
1177:/opt/XMClib/XMC_Peripheral_Library_v2.1.16/XMCLib/src/xmc_usbd.c ****   gintmsk.b.modemismatch = 1U;
1178:/opt/XMClib/XMC_Peripheral_Library_v2.1.16/XMCLib/src/xmc_usbd.c ****   gintmsk.b.otgintr = 1U;
1179:/opt/XMClib/XMC_Peripheral_Library_v2.1.16/XMCLib/src/xmc_usbd.c ****   gintmsk.b.sessreqintr = 1U;
1180:/opt/XMClib/XMC_Peripheral_Library_v2.1.16/XMCLib/src/xmc_usbd.c ****   /* enable device interrupts */
1181:/opt/XMClib/XMC_Peripheral_Library_v2.1.16/XMCLib/src/xmc_usbd.c ****   gintmsk.b.usbreset = 1U;
1182:/opt/XMClib/XMC_Peripheral_Library_v2.1.16/XMCLib/src/xmc_usbd.c ****   gintmsk.b.enumdone = 1U;
1183:/opt/XMClib/XMC_Peripheral_Library_v2.1.16/XMCLib/src/xmc_usbd.c ****   gintmsk.b.erlysuspend = 1U;
1184:/opt/XMClib/XMC_Peripheral_Library_v2.1.16/XMCLib/src/xmc_usbd.c ****   gintmsk.b.usbsuspend = 1U;
1185:/opt/XMClib/XMC_Peripheral_Library_v2.1.16/XMCLib/src/xmc_usbd.c ****   gintmsk.b.wkupintr = 1U;
1186:/opt/XMClib/XMC_Peripheral_Library_v2.1.16/XMCLib/src/xmc_usbd.c ****   gintmsk.b.sofintr = 1U;
1187:/opt/XMClib/XMC_Peripheral_Library_v2.1.16/XMCLib/src/xmc_usbd.c ****   if(obj->usbd_transfer_mode == XMC_USBD_USE_FIFO)
1188:/opt/XMClib/XMC_Peripheral_Library_v2.1.16/XMCLib/src/xmc_usbd.c ****   {
1189:/opt/XMClib/XMC_Peripheral_Library_v2.1.16/XMCLib/src/xmc_usbd.c ****     gintmsk.b.rxstsqlvl = 1U;
1190:/opt/XMClib/XMC_Peripheral_Library_v2.1.16/XMCLib/src/xmc_usbd.c ****   }
1191:/opt/XMClib/XMC_Peripheral_Library_v2.1.16/XMCLib/src/xmc_usbd.c ****   gintmsk.b.outepintr = 1U;
1192:/opt/XMClib/XMC_Peripheral_Library_v2.1.16/XMCLib/src/xmc_usbd.c ****   gintmsk.b.inepintr = 1U;
1193:/opt/XMClib/XMC_Peripheral_Library_v2.1.16/XMCLib/src/xmc_usbd.c ****   xmc_device.global_register->gintmsk = gintmsk.d32;
1194:/opt/XMClib/XMC_Peripheral_Library_v2.1.16/XMCLib/src/xmc_usbd.c ****   return XMC_USBD_STATUS_OK;
1195:/opt/XMClib/XMC_Peripheral_Library_v2.1.16/XMCLib/src/xmc_usbd.c **** }
1196:/opt/XMClib/XMC_Peripheral_Library_v2.1.16/XMCLib/src/xmc_usbd.c **** 
1197:/opt/XMClib/XMC_Peripheral_Library_v2.1.16/XMCLib/src/xmc_usbd.c **** /**
1198:/opt/XMClib/XMC_Peripheral_Library_v2.1.16/XMCLib/src/xmc_usbd.c ****  * Uninitializes the USB device
1199:/opt/XMClib/XMC_Peripheral_Library_v2.1.16/XMCLib/src/xmc_usbd.c ****  **/
1200:/opt/XMClib/XMC_Peripheral_Library_v2.1.16/XMCLib/src/xmc_usbd.c **** XMC_USBD_STATUS_t XMC_USBD_Uninitialize() 
1201:/opt/XMClib/XMC_Peripheral_Library_v2.1.16/XMCLib/src/xmc_usbd.c **** {
1202:/opt/XMClib/XMC_Peripheral_Library_v2.1.16/XMCLib/src/xmc_usbd.c ****   /* Disconnect the device */
1203:/opt/XMClib/XMC_Peripheral_Library_v2.1.16/XMCLib/src/xmc_usbd.c ****   dctl_data_t dctl;
1204:/opt/XMClib/XMC_Peripheral_Library_v2.1.16/XMCLib/src/xmc_usbd.c **** 	dctl.d32 = xmc_device.device_register->dctl;
1205:/opt/XMClib/XMC_Peripheral_Library_v2.1.16/XMCLib/src/xmc_usbd.c ****   dctl.b.sftdiscon = 1U;
1206:/opt/XMClib/XMC_Peripheral_Library_v2.1.16/XMCLib/src/xmc_usbd.c ****   xmc_device.device_register->dctl = dctl.d32;
1207:/opt/XMClib/XMC_Peripheral_Library_v2.1.16/XMCLib/src/xmc_usbd.c ****   /* clean up */
1208:/opt/XMClib/XMC_Peripheral_Library_v2.1.16/XMCLib/src/xmc_usbd.c ****   memset((void*)&xmc_device,0U,sizeof(xmc_device));
1209:/opt/XMClib/XMC_Peripheral_Library_v2.1.16/XMCLib/src/xmc_usbd.c ****   return XMC_USBD_STATUS_OK;
1210:/opt/XMClib/XMC_Peripheral_Library_v2.1.16/XMCLib/src/xmc_usbd.c **** }
1211:/opt/XMClib/XMC_Peripheral_Library_v2.1.16/XMCLib/src/xmc_usbd.c **** 
1212:/opt/XMClib/XMC_Peripheral_Library_v2.1.16/XMCLib/src/xmc_usbd.c **** /**
1213:/opt/XMClib/XMC_Peripheral_Library_v2.1.16/XMCLib/src/xmc_usbd.c ****  * Connects the USB device to host
1214:/opt/XMClib/XMC_Peripheral_Library_v2.1.16/XMCLib/src/xmc_usbd.c ****  **/
1215:/opt/XMClib/XMC_Peripheral_Library_v2.1.16/XMCLib/src/xmc_usbd.c **** XMC_USBD_STATUS_t XMC_USBD_DeviceConnect() 
1216:/opt/XMClib/XMC_Peripheral_Library_v2.1.16/XMCLib/src/xmc_usbd.c **** {
 781              		.loc 1 1216 1 is_stmt 1 view -0
 782              		.cfi_startproc
 783              		@ args = 0, pretend = 0, frame = 0
 784              		@ frame_needed = 0, uses_anonymous_args = 0
 785              		@ link register save eliminated.
1217:/opt/XMClib/XMC_Peripheral_Library_v2.1.16/XMCLib/src/xmc_usbd.c ****   /* Just disable softdisconnect */
1218:/opt/XMClib/XMC_Peripheral_Library_v2.1.16/XMCLib/src/xmc_usbd.c ****   dctl_data_t dctl;
 786              		.loc 1 1218 3 view .LVU275
1219:/opt/XMClib/XMC_Peripheral_Library_v2.1.16/XMCLib/src/xmc_usbd.c **** 	dctl.d32 = xmc_device.device_register->dctl;
 787              		.loc 1 1219 2 view .LVU276
 788              		.loc 1 1219 23 is_stmt 0 view .LVU277
 789 0000 044B     		ldr	r3, .L60
 790 0002 D3F8A421 		ldr	r2, [r3, #420]
 791              		.loc 1 1219 39 view .LVU278
 792 0006 5368     		ldr	r3, [r2, #4]
1220:/opt/XMClib/XMC_Peripheral_Library_v2.1.16/XMCLib/src/xmc_usbd.c ****   dctl.b.sftdiscon = 0U;
 793              		.loc 1 1220 3 is_stmt 1 view .LVU279
 794              	.LVL50:
 795              		.loc 1 1220 20 is_stmt 0 view .LVU280
 796 0008 23F00203 		bic	r3, r3, #2
 797              	.LVL51:
1221:/opt/XMClib/XMC_Peripheral_Library_v2.1.16/XMCLib/src/xmc_usbd.c ****   xmc_device.device_register->dctl = dctl.d32;
 798              		.loc 1 1221 3 is_stmt 1 view .LVU281
 799              		.loc 1 1221 36 is_stmt 0 view .LVU282
 800 000c 5360     		str	r3, [r2, #4]
1222:/opt/XMClib/XMC_Peripheral_Library_v2.1.16/XMCLib/src/xmc_usbd.c ****   return XMC_USBD_STATUS_OK;
 801              		.loc 1 1222 3 is_stmt 1 view .LVU283
1223:/opt/XMClib/XMC_Peripheral_Library_v2.1.16/XMCLib/src/xmc_usbd.c **** }
 802              		.loc 1 1223 1 is_stmt 0 view .LVU284
 803 000e 0020     		movs	r0, #0
 804 0010 7047     		bx	lr
 805              	.L61:
 806 0012 00BF     		.align	2
 807              	.L60:
 808 0014 00000000 		.word	.LANCHOR0
 809              		.cfi_endproc
 810              	.LFE189:
 812              		.section	.text.XMC_USBD_DeviceDisconnect,"ax",%progbits
 813              		.align	1
 814              		.global	XMC_USBD_DeviceDisconnect
 815              		.syntax unified
 816              		.thumb
 817              		.thumb_func
 819              	XMC_USBD_DeviceDisconnect:
 820              	.LFB190:
1224:/opt/XMClib/XMC_Peripheral_Library_v2.1.16/XMCLib/src/xmc_usbd.c **** 
1225:/opt/XMClib/XMC_Peripheral_Library_v2.1.16/XMCLib/src/xmc_usbd.c **** /**
1226:/opt/XMClib/XMC_Peripheral_Library_v2.1.16/XMCLib/src/xmc_usbd.c ****  * Disconnects the USB device from host
1227:/opt/XMClib/XMC_Peripheral_Library_v2.1.16/XMCLib/src/xmc_usbd.c ****  **/
1228:/opt/XMClib/XMC_Peripheral_Library_v2.1.16/XMCLib/src/xmc_usbd.c **** XMC_USBD_STATUS_t XMC_USBD_DeviceDisconnect() 
1229:/opt/XMClib/XMC_Peripheral_Library_v2.1.16/XMCLib/src/xmc_usbd.c **** {
 821              		.loc 1 1229 1 is_stmt 1 view -0
 822              		.cfi_startproc
 823              		@ args = 0, pretend = 0, frame = 0
 824              		@ frame_needed = 0, uses_anonymous_args = 0
 825              		@ link register save eliminated.
1230:/opt/XMClib/XMC_Peripheral_Library_v2.1.16/XMCLib/src/xmc_usbd.c ****   dctl_data_t dctl;
 826              		.loc 1 1230 3 view .LVU286
1231:/opt/XMClib/XMC_Peripheral_Library_v2.1.16/XMCLib/src/xmc_usbd.c **** 	dctl.d32 = xmc_device.device_register->dctl;
 827              		.loc 1 1231 2 view .LVU287
 828              		.loc 1 1231 23 is_stmt 0 view .LVU288
 829 0000 044B     		ldr	r3, .L63
 830 0002 D3F8A421 		ldr	r2, [r3, #420]
 831              		.loc 1 1231 39 view .LVU289
 832 0006 5368     		ldr	r3, [r2, #4]
1232:/opt/XMClib/XMC_Peripheral_Library_v2.1.16/XMCLib/src/xmc_usbd.c ****   dctl.b.sftdiscon = 1U;
 833              		.loc 1 1232 3 is_stmt 1 view .LVU290
 834              		.loc 1 1232 20 is_stmt 0 view .LVU291
 835 0008 43F00203 		orr	r3, r3, #2
 836              	.LVL52:
1233:/opt/XMClib/XMC_Peripheral_Library_v2.1.16/XMCLib/src/xmc_usbd.c ****   xmc_device.device_register->dctl = dctl.d32;
 837              		.loc 1 1233 3 is_stmt 1 view .LVU292
 838              		.loc 1 1233 36 is_stmt 0 view .LVU293
 839 000c 5360     		str	r3, [r2, #4]
1234:/opt/XMClib/XMC_Peripheral_Library_v2.1.16/XMCLib/src/xmc_usbd.c ****   return XMC_USBD_STATUS_OK;
 840              		.loc 1 1234 3 is_stmt 1 view .LVU294
1235:/opt/XMClib/XMC_Peripheral_Library_v2.1.16/XMCLib/src/xmc_usbd.c **** }
 841              		.loc 1 1235 1 is_stmt 0 view .LVU295
 842 000e 0020     		movs	r0, #0
 843 0010 7047     		bx	lr
 844              	.L64:
 845 0012 00BF     		.align	2
 846              	.L63:
 847 0014 00000000 		.word	.LANCHOR0
 848              		.cfi_endproc
 849              	.LFE190:
 851              		.section	.text.XMC_USBD_EndpointReadStart,"ax",%progbits
 852              		.align	1
 853              		.global	XMC_USBD_EndpointReadStart
 854              		.syntax unified
 855              		.thumb
 856              		.thumb_func
 858              	XMC_USBD_EndpointReadStart:
 859              	.LVL53:
 860              	.LFB192:
1236:/opt/XMClib/XMC_Peripheral_Library_v2.1.16/XMCLib/src/xmc_usbd.c **** 
1237:/opt/XMClib/XMC_Peripheral_Library_v2.1.16/XMCLib/src/xmc_usbd.c **** /**
1238:/opt/XMClib/XMC_Peripheral_Library_v2.1.16/XMCLib/src/xmc_usbd.c ****  * Gets the USB device state.
1239:/opt/XMClib/XMC_Peripheral_Library_v2.1.16/XMCLib/src/xmc_usbd.c ****  **/
1240:/opt/XMClib/XMC_Peripheral_Library_v2.1.16/XMCLib/src/xmc_usbd.c **** XMC_USBD_STATE_t XMC_USBD_DeviceGetState(const XMC_USBD_t *const obj) 
1241:/opt/XMClib/XMC_Peripheral_Library_v2.1.16/XMCLib/src/xmc_usbd.c **** {
1242:/opt/XMClib/XMC_Peripheral_Library_v2.1.16/XMCLib/src/xmc_usbd.c ****   XMC_USBD_STATE_t state={0U};
1243:/opt/XMClib/XMC_Peripheral_Library_v2.1.16/XMCLib/src/xmc_usbd.c ****   state.speed = XMC_USBD_SPEED_FULL;
1244:/opt/XMClib/XMC_Peripheral_Library_v2.1.16/XMCLib/src/xmc_usbd.c ****   state.connected = xmc_device.IsConnected;
1245:/opt/XMClib/XMC_Peripheral_Library_v2.1.16/XMCLib/src/xmc_usbd.c ****   state.active = XMC_USBD_lDeviceActive(obj);
1246:/opt/XMClib/XMC_Peripheral_Library_v2.1.16/XMCLib/src/xmc_usbd.c ****   state.powered = xmc_device.IsPowered;
1247:/opt/XMClib/XMC_Peripheral_Library_v2.1.16/XMCLib/src/xmc_usbd.c ****   return state;
1248:/opt/XMClib/XMC_Peripheral_Library_v2.1.16/XMCLib/src/xmc_usbd.c **** }
1249:/opt/XMClib/XMC_Peripheral_Library_v2.1.16/XMCLib/src/xmc_usbd.c **** 
1250:/opt/XMClib/XMC_Peripheral_Library_v2.1.16/XMCLib/src/xmc_usbd.c **** /**
1251:/opt/XMClib/XMC_Peripheral_Library_v2.1.16/XMCLib/src/xmc_usbd.c ****  * Prepares the endpoint to read next OUT packet
1252:/opt/XMClib/XMC_Peripheral_Library_v2.1.16/XMCLib/src/xmc_usbd.c ****  **/
1253:/opt/XMClib/XMC_Peripheral_Library_v2.1.16/XMCLib/src/xmc_usbd.c **** XMC_USBD_STATUS_t XMC_USBD_EndpointReadStart(const uint8_t ep_addr, uint32_t size) 
1254:/opt/XMClib/XMC_Peripheral_Library_v2.1.16/XMCLib/src/xmc_usbd.c **** {
 861              		.loc 1 1254 1 is_stmt 1 view -0
 862              		.cfi_startproc
 863              		@ args = 0, pretend = 0, frame = 0
 864              		@ frame_needed = 0, uses_anonymous_args = 0
1255:/opt/XMClib/XMC_Peripheral_Library_v2.1.16/XMCLib/src/xmc_usbd.c ****   XMC_USBD_EP_t *ep = &xmc_device.ep[ep_addr & (uint8_t)XMC_USBD_EP_NUM_MASK];
 865              		.loc 1 1255 3 view .LVU297
 866 0000 00F00F03 		and	r3, r0, #15
 867              	.LVL54:
1256:/opt/XMClib/XMC_Peripheral_Library_v2.1.16/XMCLib/src/xmc_usbd.c ****   XMC_USBD_STATUS_t result;
 868              		.loc 1 1256 3 view .LVU298
1257:/opt/XMClib/XMC_Peripheral_Library_v2.1.16/XMCLib/src/xmc_usbd.c **** 	
1258:/opt/XMClib/XMC_Peripheral_Library_v2.1.16/XMCLib/src/xmc_usbd.c ****   if (ep->outInUse || !ep->isConfigured)
 869              		.loc 1 1258 3 view .LVU299
 870              		.loc 1 1258 9 is_stmt 0 view .LVU300
 871 0004 144A     		ldr	r2, .L74
 872 0006 3420     		movs	r0, #52
 873              	.LVL55:
 874              		.loc 1 1258 9 view .LVU301
 875 0008 00FB0322 		mla	r2, r0, r3, r2
 876 000c 5268     		ldr	r2, [r2, #4]
 877              		.loc 1 1258 6 view .LVU302
 878 000e 12F0100F 		tst	r2, #16
 879 0012 1ED1     		bne	.L67
 880              		.loc 1 1258 23 discriminator 1 view .LVU303
 881 0014 104A     		ldr	r2, .L74
 882 0016 00FB0322 		mla	r2, r0, r3, r2
 883 001a 1279     		ldrb	r2, [r2, #4]	@ zero_extendqisi2
 884              		.loc 1 1258 20 discriminator 1 view .LVU304
 885 001c 12F0040F 		tst	r2, #4
 886 0020 01D1     		bne	.L73
1259:/opt/XMClib/XMC_Peripheral_Library_v2.1.16/XMCLib/src/xmc_usbd.c ****   {
1260:/opt/XMClib/XMC_Peripheral_Library_v2.1.16/XMCLib/src/xmc_usbd.c ****     result = XMC_USBD_STATUS_ERROR;
 887              		.loc 1 1260 12 view .LVU305
 888 0022 0120     		movs	r0, #1
 889              	.LVL56:
1261:/opt/XMClib/XMC_Peripheral_Library_v2.1.16/XMCLib/src/xmc_usbd.c ****   }
1262:/opt/XMClib/XMC_Peripheral_Library_v2.1.16/XMCLib/src/xmc_usbd.c ****   else
1263:/opt/XMClib/XMC_Peripheral_Library_v2.1.16/XMCLib/src/xmc_usbd.c ****   {
1264:/opt/XMClib/XMC_Peripheral_Library_v2.1.16/XMCLib/src/xmc_usbd.c ****     /* short the length to buffer size if needed */
1265:/opt/XMClib/XMC_Peripheral_Library_v2.1.16/XMCLib/src/xmc_usbd.c ****     if (size > ep->outBufferSize)
1266:/opt/XMClib/XMC_Peripheral_Library_v2.1.16/XMCLib/src/xmc_usbd.c ****     {
1267:/opt/XMClib/XMC_Peripheral_Library_v2.1.16/XMCLib/src/xmc_usbd.c ****       size = ep->outBufferSize;
1268:/opt/XMClib/XMC_Peripheral_Library_v2.1.16/XMCLib/src/xmc_usbd.c ****     }
1269:/opt/XMClib/XMC_Peripheral_Library_v2.1.16/XMCLib/src/xmc_usbd.c ****     /* set ep values */
1270:/opt/XMClib/XMC_Peripheral_Library_v2.1.16/XMCLib/src/xmc_usbd.c ****     ep->xferTotal = size;
1271:/opt/XMClib/XMC_Peripheral_Library_v2.1.16/XMCLib/src/xmc_usbd.c ****     ep->xferCount = 0U;
1272:/opt/XMClib/XMC_Peripheral_Library_v2.1.16/XMCLib/src/xmc_usbd.c ****     ep->xferLength = 0U;
1273:/opt/XMClib/XMC_Peripheral_Library_v2.1.16/XMCLib/src/xmc_usbd.c ****     ep->xferBuffer = ep->outBuffer;
1274:/opt/XMClib/XMC_Peripheral_Library_v2.1.16/XMCLib/src/xmc_usbd.c ****     ep->outBytesAvailable = 0U;
1275:/opt/XMClib/XMC_Peripheral_Library_v2.1.16/XMCLib/src/xmc_usbd.c ****     XMC_USBD_lStartReadXfer(ep);
1276:/opt/XMClib/XMC_Peripheral_Library_v2.1.16/XMCLib/src/xmc_usbd.c ****     result= XMC_USBD_STATUS_OK;
1277:/opt/XMClib/XMC_Peripheral_Library_v2.1.16/XMCLib/src/xmc_usbd.c ****   }
1278:/opt/XMClib/XMC_Peripheral_Library_v2.1.16/XMCLib/src/xmc_usbd.c ****   return result;
 890              		.loc 1 1278 3 is_stmt 1 view .LVU306
1279:/opt/XMClib/XMC_Peripheral_Library_v2.1.16/XMCLib/src/xmc_usbd.c **** }
 891              		.loc 1 1279 1 is_stmt 0 view .LVU307
 892 0024 7047     		bx	lr
 893              	.LVL57:
 894              	.L73:
1254:/opt/XMClib/XMC_Peripheral_Library_v2.1.16/XMCLib/src/xmc_usbd.c ****   XMC_USBD_EP_t *ep = &xmc_device.ep[ep_addr & (uint8_t)XMC_USBD_EP_NUM_MASK];
 895              		.loc 1 1254 1 view .LVU308
 896 0026 10B5     		push	{r4, lr}
 897              	.LCFI11:
 898              		.cfi_def_cfa_offset 8
 899              		.cfi_offset 4, -8
 900              		.cfi_offset 14, -4
1265:/opt/XMClib/XMC_Peripheral_Library_v2.1.16/XMCLib/src/xmc_usbd.c ****     {
 901              		.loc 1 1265 5 is_stmt 1 view .LVU309
 902              	.LVL58:
1270:/opt/XMClib/XMC_Peripheral_Library_v2.1.16/XMCLib/src/xmc_usbd.c ****     ep->xferCount = 0U;
 903              		.loc 1 1270 5 view .LVU310
1270:/opt/XMClib/XMC_Peripheral_Library_v2.1.16/XMCLib/src/xmc_usbd.c ****     ep->xferCount = 0U;
 904              		.loc 1 1270 19 is_stmt 0 view .LVU311
 905 0028 0B48     		ldr	r0, .L74
 906 002a 4FF0340C 		mov	ip, #52
 907 002e 0CFB0302 		mla	r2, ip, r3, r0
1265:/opt/XMClib/XMC_Peripheral_Library_v2.1.16/XMCLib/src/xmc_usbd.c ****     {
 908              		.loc 1 1265 8 view .LVU312
 909 0032 5469     		ldr	r4, [r2, #20]
 910 0034 A142     		cmp	r1, r4
 911 0036 28BF     		it	cs
 912 0038 2146     		movcs	r1, r4
 913              	.LVL59:
1270:/opt/XMClib/XMC_Peripheral_Library_v2.1.16/XMCLib/src/xmc_usbd.c ****     ep->xferCount = 0U;
 914              		.loc 1 1270 19 view .LVU313
 915 003a 1163     		str	r1, [r2, #48]
1271:/opt/XMClib/XMC_Peripheral_Library_v2.1.16/XMCLib/src/xmc_usbd.c ****     ep->xferLength = 0U;
 916              		.loc 1 1271 5 is_stmt 1 view .LVU314
1271:/opt/XMClib/XMC_Peripheral_Library_v2.1.16/XMCLib/src/xmc_usbd.c ****     ep->xferLength = 0U;
 917              		.loc 1 1271 19 is_stmt 0 view .LVU315
 918 003c 0024     		movs	r4, #0
 919 003e D462     		str	r4, [r2, #44]
1272:/opt/XMClib/XMC_Peripheral_Library_v2.1.16/XMCLib/src/xmc_usbd.c ****     ep->xferBuffer = ep->outBuffer;
 920              		.loc 1 1272 5 is_stmt 1 view .LVU316
1272:/opt/XMClib/XMC_Peripheral_Library_v2.1.16/XMCLib/src/xmc_usbd.c ****     ep->xferBuffer = ep->outBuffer;
 921              		.loc 1 1272 20 is_stmt 0 view .LVU317
 922 0040 9462     		str	r4, [r2, #40]
1273:/opt/XMClib/XMC_Peripheral_Library_v2.1.16/XMCLib/src/xmc_usbd.c ****     ep->outBytesAvailable = 0U;
 923              		.loc 1 1273 5 is_stmt 1 view .LVU318
1273:/opt/XMClib/XMC_Peripheral_Library_v2.1.16/XMCLib/src/xmc_usbd.c ****     ep->outBytesAvailable = 0U;
 924              		.loc 1 1273 20 is_stmt 0 view .LVU319
 925 0042 D168     		ldr	r1, [r2, #12]
 926 0044 5162     		str	r1, [r2, #36]
1274:/opt/XMClib/XMC_Peripheral_Library_v2.1.16/XMCLib/src/xmc_usbd.c ****     XMC_USBD_lStartReadXfer(ep);
 927              		.loc 1 1274 5 is_stmt 1 view .LVU320
1274:/opt/XMClib/XMC_Peripheral_Library_v2.1.16/XMCLib/src/xmc_usbd.c ****     XMC_USBD_lStartReadXfer(ep);
 928              		.loc 1 1274 27 is_stmt 0 view .LVU321
 929 0046 1461     		str	r4, [r2, #16]
1275:/opt/XMClib/XMC_Peripheral_Library_v2.1.16/XMCLib/src/xmc_usbd.c ****     result= XMC_USBD_STATUS_OK;
 930              		.loc 1 1275 5 is_stmt 1 view .LVU322
 931 0048 1046     		mov	r0, r2
 932 004a FFF7FEFF 		bl	XMC_USBD_lStartReadXfer
 933              	.LVL60:
1276:/opt/XMClib/XMC_Peripheral_Library_v2.1.16/XMCLib/src/xmc_usbd.c ****   }
 934              		.loc 1 1276 5 view .LVU323
1276:/opt/XMClib/XMC_Peripheral_Library_v2.1.16/XMCLib/src/xmc_usbd.c ****   }
 935              		.loc 1 1276 11 is_stmt 0 view .LVU324
 936 004e 2046     		mov	r0, r4
 937              	.LVL61:
1278:/opt/XMClib/XMC_Peripheral_Library_v2.1.16/XMCLib/src/xmc_usbd.c **** }
 938              		.loc 1 1278 3 is_stmt 1 view .LVU325
 939              		.loc 1 1279 1 is_stmt 0 view .LVU326
 940 0050 10BD     		pop	{r4, pc}
 941              	.LVL62:
 942              	.L67:
 943              	.LCFI12:
 944              		.cfi_def_cfa_offset 0
 945              		.cfi_restore 4
 946              		.cfi_restore 14
1260:/opt/XMClib/XMC_Peripheral_Library_v2.1.16/XMCLib/src/xmc_usbd.c ****   }
 947              		.loc 1 1260 12 view .LVU327
 948 0052 0120     		movs	r0, #1
 949 0054 7047     		bx	lr
 950              	.L75:
 951 0056 00BF     		.align	2
 952              	.L74:
 953 0058 00000000 		.word	.LANCHOR0
 954              		.cfi_endproc
 955              	.LFE192:
 957              		.section	.text.XMC_USBD_DeviceSetAddress,"ax",%progbits
 958              		.align	1
 959              		.global	XMC_USBD_DeviceSetAddress
 960              		.syntax unified
 961              		.thumb
 962              		.thumb_func
 964              	XMC_USBD_DeviceSetAddress:
 965              	.LVL63:
 966              	.LFB195:
1280:/opt/XMClib/XMC_Peripheral_Library_v2.1.16/XMCLib/src/xmc_usbd.c **** 
1281:/opt/XMClib/XMC_Peripheral_Library_v2.1.16/XMCLib/src/xmc_usbd.c **** /**
1282:/opt/XMClib/XMC_Peripheral_Library_v2.1.16/XMCLib/src/xmc_usbd.c ****  * Reads the number of bytes from the USB OUT endpoint
1283:/opt/XMClib/XMC_Peripheral_Library_v2.1.16/XMCLib/src/xmc_usbd.c ****  **/
1284:/opt/XMClib/XMC_Peripheral_Library_v2.1.16/XMCLib/src/xmc_usbd.c **** int32_t XMC_USBD_EndpointRead(const uint8_t ep_num,uint8_t * buffer,uint32_t length) 
1285:/opt/XMClib/XMC_Peripheral_Library_v2.1.16/XMCLib/src/xmc_usbd.c **** {
1286:/opt/XMClib/XMC_Peripheral_Library_v2.1.16/XMCLib/src/xmc_usbd.c ****   XMC_USBD_EP_t *ep = &xmc_device.ep[ep_num];
1287:/opt/XMClib/XMC_Peripheral_Library_v2.1.16/XMCLib/src/xmc_usbd.c ****   if (length > ep->outBytesAvailable)
1288:/opt/XMClib/XMC_Peripheral_Library_v2.1.16/XMCLib/src/xmc_usbd.c ****   {
1289:/opt/XMClib/XMC_Peripheral_Library_v2.1.16/XMCLib/src/xmc_usbd.c ****     length = ep->outBytesAvailable;
1290:/opt/XMClib/XMC_Peripheral_Library_v2.1.16/XMCLib/src/xmc_usbd.c ****   }
1291:/opt/XMClib/XMC_Peripheral_Library_v2.1.16/XMCLib/src/xmc_usbd.c ****   memcpy(buffer,&ep->outBuffer[ep->outOffset],length);
1292:/opt/XMClib/XMC_Peripheral_Library_v2.1.16/XMCLib/src/xmc_usbd.c ****   ep->outBytesAvailable -= length;
1293:/opt/XMClib/XMC_Peripheral_Library_v2.1.16/XMCLib/src/xmc_usbd.c ****   if (ep->outBytesAvailable)
1294:/opt/XMClib/XMC_Peripheral_Library_v2.1.16/XMCLib/src/xmc_usbd.c ****   {
1295:/opt/XMClib/XMC_Peripheral_Library_v2.1.16/XMCLib/src/xmc_usbd.c ****     ep->outOffset += length;
1296:/opt/XMClib/XMC_Peripheral_Library_v2.1.16/XMCLib/src/xmc_usbd.c ****   }
1297:/opt/XMClib/XMC_Peripheral_Library_v2.1.16/XMCLib/src/xmc_usbd.c ****   else
1298:/opt/XMClib/XMC_Peripheral_Library_v2.1.16/XMCLib/src/xmc_usbd.c ****   {
1299:/opt/XMClib/XMC_Peripheral_Library_v2.1.16/XMCLib/src/xmc_usbd.c ****     ep->outOffset = 0U;
1300:/opt/XMClib/XMC_Peripheral_Library_v2.1.16/XMCLib/src/xmc_usbd.c ****   }
1301:/opt/XMClib/XMC_Peripheral_Library_v2.1.16/XMCLib/src/xmc_usbd.c ****   return (int32_t)length;
1302:/opt/XMClib/XMC_Peripheral_Library_v2.1.16/XMCLib/src/xmc_usbd.c **** }
1303:/opt/XMClib/XMC_Peripheral_Library_v2.1.16/XMCLib/src/xmc_usbd.c **** 
1304:/opt/XMClib/XMC_Peripheral_Library_v2.1.16/XMCLib/src/xmc_usbd.c **** /**
1305:/opt/XMClib/XMC_Peripheral_Library_v2.1.16/XMCLib/src/xmc_usbd.c ****  * Writes number of bytes in to the USB IN endpoint.
1306:/opt/XMClib/XMC_Peripheral_Library_v2.1.16/XMCLib/src/xmc_usbd.c ****  **/
1307:/opt/XMClib/XMC_Peripheral_Library_v2.1.16/XMCLib/src/xmc_usbd.c **** int32_t XMC_USBD_EndpointWrite(const uint8_t ep_num,const uint8_t * buffer,uint32_t length) 
1308:/opt/XMClib/XMC_Peripheral_Library_v2.1.16/XMCLib/src/xmc_usbd.c **** {
1309:/opt/XMClib/XMC_Peripheral_Library_v2.1.16/XMCLib/src/xmc_usbd.c ****   XMC_USBD_EP_t * ep = &xmc_device.ep[ep_num & (uint8_t)XMC_USBD_EP_NUM_MASK];
1310:/opt/XMClib/XMC_Peripheral_Library_v2.1.16/XMCLib/src/xmc_usbd.c ****   int32_t result;
1311:/opt/XMClib/XMC_Peripheral_Library_v2.1.16/XMCLib/src/xmc_usbd.c ****   if (!ep->isConfigured)
1312:/opt/XMClib/XMC_Peripheral_Library_v2.1.16/XMCLib/src/xmc_usbd.c ****   {
1313:/opt/XMClib/XMC_Peripheral_Library_v2.1.16/XMCLib/src/xmc_usbd.c ****     result = (int32_t)XMC_USBD_STATUS_ERROR;
1314:/opt/XMClib/XMC_Peripheral_Library_v2.1.16/XMCLib/src/xmc_usbd.c ****   }
1315:/opt/XMClib/XMC_Peripheral_Library_v2.1.16/XMCLib/src/xmc_usbd.c ****   else if (ep->inInUse == 1U)
1316:/opt/XMClib/XMC_Peripheral_Library_v2.1.16/XMCLib/src/xmc_usbd.c ****   {
1317:/opt/XMClib/XMC_Peripheral_Library_v2.1.16/XMCLib/src/xmc_usbd.c ****     result=(int32_t)0;
1318:/opt/XMClib/XMC_Peripheral_Library_v2.1.16/XMCLib/src/xmc_usbd.c ****   }
1319:/opt/XMClib/XMC_Peripheral_Library_v2.1.16/XMCLib/src/xmc_usbd.c ****   else
1320:/opt/XMClib/XMC_Peripheral_Library_v2.1.16/XMCLib/src/xmc_usbd.c ****   {
1321:/opt/XMClib/XMC_Peripheral_Library_v2.1.16/XMCLib/src/xmc_usbd.c ****     if (length > ep->inBufferSize)
1322:/opt/XMClib/XMC_Peripheral_Library_v2.1.16/XMCLib/src/xmc_usbd.c ****     {
1323:/opt/XMClib/XMC_Peripheral_Library_v2.1.16/XMCLib/src/xmc_usbd.c ****       length = ep->inBufferSize;
1324:/opt/XMClib/XMC_Peripheral_Library_v2.1.16/XMCLib/src/xmc_usbd.c ****     }
1325:/opt/XMClib/XMC_Peripheral_Library_v2.1.16/XMCLib/src/xmc_usbd.c ****     /* copy data into input buffer for DMA and FIFO mode */
1326:/opt/XMClib/XMC_Peripheral_Library_v2.1.16/XMCLib/src/xmc_usbd.c **** 		memcpy(ep->inBuffer,(const void *)buffer,length);
1327:/opt/XMClib/XMC_Peripheral_Library_v2.1.16/XMCLib/src/xmc_usbd.c **** 		ep->xferBuffer = ep->inBuffer;
1328:/opt/XMClib/XMC_Peripheral_Library_v2.1.16/XMCLib/src/xmc_usbd.c ****     ep->xferTotal = length;
1329:/opt/XMClib/XMC_Peripheral_Library_v2.1.16/XMCLib/src/xmc_usbd.c ****     /* set transfer values */
1330:/opt/XMClib/XMC_Peripheral_Library_v2.1.16/XMCLib/src/xmc_usbd.c ****     ep->xferLength = 0U;
1331:/opt/XMClib/XMC_Peripheral_Library_v2.1.16/XMCLib/src/xmc_usbd.c ****     ep->xferCount = 0U;
1332:/opt/XMClib/XMC_Peripheral_Library_v2.1.16/XMCLib/src/xmc_usbd.c ****     ep->inInUse = 1U;
1333:/opt/XMClib/XMC_Peripheral_Library_v2.1.16/XMCLib/src/xmc_usbd.c ****     /* start the transfer */
1334:/opt/XMClib/XMC_Peripheral_Library_v2.1.16/XMCLib/src/xmc_usbd.c ****     XMC_USBD_lStartWriteXfer(ep);
1335:/opt/XMClib/XMC_Peripheral_Library_v2.1.16/XMCLib/src/xmc_usbd.c ****     result=(int32_t)ep->xferTotal;
1336:/opt/XMClib/XMC_Peripheral_Library_v2.1.16/XMCLib/src/xmc_usbd.c ****   }
1337:/opt/XMClib/XMC_Peripheral_Library_v2.1.16/XMCLib/src/xmc_usbd.c ****   return result;
1338:/opt/XMClib/XMC_Peripheral_Library_v2.1.16/XMCLib/src/xmc_usbd.c **** }
1339:/opt/XMClib/XMC_Peripheral_Library_v2.1.16/XMCLib/src/xmc_usbd.c **** 
1340:/opt/XMClib/XMC_Peripheral_Library_v2.1.16/XMCLib/src/xmc_usbd.c **** /**
1341:/opt/XMClib/XMC_Peripheral_Library_v2.1.16/XMCLib/src/xmc_usbd.c ****  * Sets the USB device address.
1342:/opt/XMClib/XMC_Peripheral_Library_v2.1.16/XMCLib/src/xmc_usbd.c ****  **/
1343:/opt/XMClib/XMC_Peripheral_Library_v2.1.16/XMCLib/src/xmc_usbd.c **** XMC_USBD_STATUS_t XMC_USBD_DeviceSetAddress(const uint8_t address,const XMC_USBD_SET_ADDRESS_STAGE_
1344:/opt/XMClib/XMC_Peripheral_Library_v2.1.16/XMCLib/src/xmc_usbd.c **** {
 967              		.loc 1 1344 1 is_stmt 1 view -0
 968              		.cfi_startproc
 969              		@ args = 0, pretend = 0, frame = 0
 970              		@ frame_needed = 0, uses_anonymous_args = 0
 971              		@ link register save eliminated.
1345:/opt/XMClib/XMC_Peripheral_Library_v2.1.16/XMCLib/src/xmc_usbd.c ****   dcfg_data_t data;
 972              		.loc 1 1345 3 view .LVU329
1346:/opt/XMClib/XMC_Peripheral_Library_v2.1.16/XMCLib/src/xmc_usbd.c ****   data.d32 = xmc_device.device_register->dcfg;
 973              		.loc 1 1346 3 view .LVU330
 974              		.loc 1 1346 24 is_stmt 0 view .LVU331
 975 0000 044B     		ldr	r3, .L78
 976 0002 D3F8A431 		ldr	r3, [r3, #420]
 977              		.loc 1 1346 40 view .LVU332
 978 0006 1A68     		ldr	r2, [r3]
 979              	.LVL64:
1347:/opt/XMClib/XMC_Peripheral_Library_v2.1.16/XMCLib/src/xmc_usbd.c ****   if (stage == XMC_USBD_SET_ADDRESS_STAGE_SETUP)
 980              		.loc 1 1347 3 is_stmt 1 view .LVU333
 981              		.loc 1 1347 6 is_stmt 0 view .LVU334
 982 0008 11B9     		cbnz	r1, .L77
1348:/opt/XMClib/XMC_Peripheral_Library_v2.1.16/XMCLib/src/xmc_usbd.c ****   {
1349:/opt/XMClib/XMC_Peripheral_Library_v2.1.16/XMCLib/src/xmc_usbd.c ****     data.b.devaddr = address;
 983              		.loc 1 1349 5 is_stmt 1 view .LVU335
 984              		.loc 1 1349 20 is_stmt 0 view .LVU336
 985 000a 60F30A12 		bfi	r2, r0, #4, #7
1350:/opt/XMClib/XMC_Peripheral_Library_v2.1.16/XMCLib/src/xmc_usbd.c ****     xmc_device.device_register->dcfg = data.d32;
 986              		.loc 1 1350 5 is_stmt 1 view .LVU337
 987              		.loc 1 1350 38 is_stmt 0 view .LVU338
 988 000e 1A60     		str	r2, [r3]
 989              	.L77:
1351:/opt/XMClib/XMC_Peripheral_Library_v2.1.16/XMCLib/src/xmc_usbd.c ****   }
1352:/opt/XMClib/XMC_Peripheral_Library_v2.1.16/XMCLib/src/xmc_usbd.c **** 	return XMC_USBD_STATUS_OK;
 990              		.loc 1 1352 2 is_stmt 1 view .LVU339
1353:/opt/XMClib/XMC_Peripheral_Library_v2.1.16/XMCLib/src/xmc_usbd.c **** }
 991              		.loc 1 1353 1 is_stmt 0 view .LVU340
 992 0010 0020     		movs	r0, #0
 993              	.LVL65:
 994              		.loc 1 1353 1 view .LVU341
 995 0012 7047     		bx	lr
 996              	.L79:
 997              		.align	2
 998              	.L78:
 999 0014 00000000 		.word	.LANCHOR0
 1000              		.cfi_endproc
 1001              	.LFE195:
 1003              		.section	.text.XMC_USBD_EndpointStall,"ax",%progbits
 1004              		.align	1
 1005              		.global	XMC_USBD_EndpointStall
 1006              		.syntax unified
 1007              		.thumb
 1008              		.thumb_func
 1010              	XMC_USBD_EndpointStall:
 1011              	.LVL66:
 1012              	.LFB196:
1354:/opt/XMClib/XMC_Peripheral_Library_v2.1.16/XMCLib/src/xmc_usbd.c **** 
1355:/opt/XMClib/XMC_Peripheral_Library_v2.1.16/XMCLib/src/xmc_usbd.c **** /**
1356:/opt/XMClib/XMC_Peripheral_Library_v2.1.16/XMCLib/src/xmc_usbd.c ****  * Set/clear stall on the selected endpoint.
1357:/opt/XMClib/XMC_Peripheral_Library_v2.1.16/XMCLib/src/xmc_usbd.c ****  **/
1358:/opt/XMClib/XMC_Peripheral_Library_v2.1.16/XMCLib/src/xmc_usbd.c **** XMC_USBD_STATUS_t XMC_USBD_EndpointStall(const uint8_t ep_addr, const bool stall) 
1359:/opt/XMClib/XMC_Peripheral_Library_v2.1.16/XMCLib/src/xmc_usbd.c **** {
 1013              		.loc 1 1359 1 is_stmt 1 view -0
 1014              		.cfi_startproc
 1015              		@ args = 0, pretend = 0, frame = 0
 1016              		@ frame_needed = 0, uses_anonymous_args = 0
 1017              		@ link register save eliminated.
1360:/opt/XMClib/XMC_Peripheral_Library_v2.1.16/XMCLib/src/xmc_usbd.c ****   depctl_data_t data;
 1018              		.loc 1 1360 3 view .LVU343
1361:/opt/XMClib/XMC_Peripheral_Library_v2.1.16/XMCLib/src/xmc_usbd.c ****   XMC_USBD_EP_t *ep = &xmc_device.ep[(ep_addr & (uint8_t)XMC_USBD_EP_NUM_MASK)];
 1019              		.loc 1 1361 3 view .LVU344
 1020              		.loc 1 1361 47 is_stmt 0 view .LVU345
 1021 0000 00F00F02 		and	r2, r0, #15
 1022              	.LVL67:
1362:/opt/XMClib/XMC_Peripheral_Library_v2.1.16/XMCLib/src/xmc_usbd.c ****   if (stall)
 1023              		.loc 1 1362 3 is_stmt 1 view .LVU346
 1024              		.loc 1 1362 6 is_stmt 0 view .LVU347
 1025 0004 8C46     		mov	ip, r1
 1026 0006 51B3     		cbz	r1, .L81
1363:/opt/XMClib/XMC_Peripheral_Library_v2.1.16/XMCLib/src/xmc_usbd.c ****   {
1364:/opt/XMClib/XMC_Peripheral_Library_v2.1.16/XMCLib/src/xmc_usbd.c ****     if (ep_addr & (uint8_t)XMC_USBD_ENDPOINT_DIRECTION_MASK)
 1027              		.loc 1 1364 5 is_stmt 1 view .LVU348
 1028              		.loc 1 1364 8 is_stmt 0 view .LVU349
 1029 0008 10F0800F 		tst	r0, #128
 1030 000c 18D1     		bne	.L87
1365:/opt/XMClib/XMC_Peripheral_Library_v2.1.16/XMCLib/src/xmc_usbd.c ****     {
1366:/opt/XMClib/XMC_Peripheral_Library_v2.1.16/XMCLib/src/xmc_usbd.c ****       /*set stall bit */
1367:/opt/XMClib/XMC_Peripheral_Library_v2.1.16/XMCLib/src/xmc_usbd.c ****       data.d32 = xmc_device.endpoint_in_register[ep->address_u.address_st.number]->diepctl;
1368:/opt/XMClib/XMC_Peripheral_Library_v2.1.16/XMCLib/src/xmc_usbd.c ****       data.b.stall = 1U;
1369:/opt/XMClib/XMC_Peripheral_Library_v2.1.16/XMCLib/src/xmc_usbd.c ****       xmc_device.endpoint_in_register[ep->address_u.address_st.number]->diepctl = data.d32;
1370:/opt/XMClib/XMC_Peripheral_Library_v2.1.16/XMCLib/src/xmc_usbd.c ****     }
1371:/opt/XMClib/XMC_Peripheral_Library_v2.1.16/XMCLib/src/xmc_usbd.c ****     else
1372:/opt/XMClib/XMC_Peripheral_Library_v2.1.16/XMCLib/src/xmc_usbd.c ****     {
1373:/opt/XMClib/XMC_Peripheral_Library_v2.1.16/XMCLib/src/xmc_usbd.c ****       /*set stall bit */
1374:/opt/XMClib/XMC_Peripheral_Library_v2.1.16/XMCLib/src/xmc_usbd.c ****       data.d32 = xmc_device.endpoint_out_register[ep->address_u.address_st.number]->doepctl;
 1031              		.loc 1 1374 7 is_stmt 1 view .LVU350
 1032              		.loc 1 1374 50 is_stmt 0 view .LVU351
 1033 000e 274B     		ldr	r3, .L89
 1034              		.loc 1 1374 75 view .LVU352
 1035 0010 3421     		movs	r1, #52
 1036              	.LVL68:
 1037              		.loc 1 1374 75 view .LVU353
 1038 0012 02FB01F1 		mul	r1, r2, r1
 1039 0016 595C     		ldrb	r1, [r3, r1]	@ zero_extendqisi2
 1040 0018 01F00F01 		and	r1, r1, #15
 1041              		.loc 1 1374 50 view .LVU354
 1042 001c 03EB8103 		add	r3, r3, r1, lsl #2
 1043 0020 D3F8C411 		ldr	r1, [r3, #452]
 1044              		.loc 1 1374 83 view .LVU355
 1045 0024 0B68     		ldr	r3, [r1]
1375:/opt/XMClib/XMC_Peripheral_Library_v2.1.16/XMCLib/src/xmc_usbd.c ****       data.b.stall = 1U;
 1046              		.loc 1 1375 7 is_stmt 1 view .LVU356
 1047              		.loc 1 1375 20 is_stmt 0 view .LVU357
 1048 0026 43F40013 		orr	r3, r3, #2097152
 1049              	.LVL69:
1376:/opt/XMClib/XMC_Peripheral_Library_v2.1.16/XMCLib/src/xmc_usbd.c ****       xmc_device.endpoint_out_register[ep->address_u.address_st.number]->doepctl = data.d32;
 1050              		.loc 1 1376 7 is_stmt 1 view .LVU358
 1051              		.loc 1 1376 82 is_stmt 0 view .LVU359
 1052 002a 0B60     		str	r3, [r1]
1377:/opt/XMClib/XMC_Peripheral_Library_v2.1.16/XMCLib/src/xmc_usbd.c ****     }
1378:/opt/XMClib/XMC_Peripheral_Library_v2.1.16/XMCLib/src/xmc_usbd.c ****     ep->isStalled = 1U;
 1053              		.loc 1 1378 5 is_stmt 1 view .LVU360
 1054              	.L84:
 1055              		.loc 1 1378 19 is_stmt 0 view .LVU361
 1056 002c 1F4B     		ldr	r3, .L89
 1057              	.LVL70:
 1058              		.loc 1 1378 19 view .LVU362
 1059 002e 3421     		movs	r1, #52
 1060 0030 01FB0233 		mla	r3, r1, r2, r3
 1061 0034 1A79     		ldrb	r2, [r3, #4]	@ zero_extendqisi2
 1062              	.LVL71:
 1063              		.loc 1 1378 19 view .LVU363
 1064 0036 6CF34512 		bfi	r2, ip, #5, #1
 1065 003a 1A71     		strb	r2, [r3, #4]
1379:/opt/XMClib/XMC_Peripheral_Library_v2.1.16/XMCLib/src/xmc_usbd.c ****   }
1380:/opt/XMClib/XMC_Peripheral_Library_v2.1.16/XMCLib/src/xmc_usbd.c ****   else
1381:/opt/XMClib/XMC_Peripheral_Library_v2.1.16/XMCLib/src/xmc_usbd.c ****   {
1382:/opt/XMClib/XMC_Peripheral_Library_v2.1.16/XMCLib/src/xmc_usbd.c ****     /* just clear stall bit */
1383:/opt/XMClib/XMC_Peripheral_Library_v2.1.16/XMCLib/src/xmc_usbd.c **** 		if (ep_addr & (uint8_t)XMC_USBD_ENDPOINT_DIRECTION_MASK)
1384:/opt/XMClib/XMC_Peripheral_Library_v2.1.16/XMCLib/src/xmc_usbd.c **** 		{
1385:/opt/XMClib/XMC_Peripheral_Library_v2.1.16/XMCLib/src/xmc_usbd.c **** 			data.d32 = xmc_device.endpoint_in_register[ep->address_u.address_st.number]->diepctl;
1386:/opt/XMClib/XMC_Peripheral_Library_v2.1.16/XMCLib/src/xmc_usbd.c **** 			data.b.stall = 0U;
1387:/opt/XMClib/XMC_Peripheral_Library_v2.1.16/XMCLib/src/xmc_usbd.c **** 			data.b.setd0pid = 1U; /* reset pid to 0 */
1388:/opt/XMClib/XMC_Peripheral_Library_v2.1.16/XMCLib/src/xmc_usbd.c **** 			xmc_device.endpoint_in_register[ep->address_u.address_st.number]->diepctl = data.d32;
1389:/opt/XMClib/XMC_Peripheral_Library_v2.1.16/XMCLib/src/xmc_usbd.c **** 		}
1390:/opt/XMClib/XMC_Peripheral_Library_v2.1.16/XMCLib/src/xmc_usbd.c **** 		else
1391:/opt/XMClib/XMC_Peripheral_Library_v2.1.16/XMCLib/src/xmc_usbd.c **** 		{
1392:/opt/XMClib/XMC_Peripheral_Library_v2.1.16/XMCLib/src/xmc_usbd.c **** 			data.d32 = xmc_device.endpoint_out_register[ep->address_u.address_st.number]->doepctl;
1393:/opt/XMClib/XMC_Peripheral_Library_v2.1.16/XMCLib/src/xmc_usbd.c **** 			data.b.stall = 0U;
1394:/opt/XMClib/XMC_Peripheral_Library_v2.1.16/XMCLib/src/xmc_usbd.c **** 			data.b.setd0pid = 1U; /* reset pid to 0 */
1395:/opt/XMClib/XMC_Peripheral_Library_v2.1.16/XMCLib/src/xmc_usbd.c **** 			xmc_device.endpoint_out_register[ep->address_u.address_st.number]->doepctl = data.d32;
1396:/opt/XMClib/XMC_Peripheral_Library_v2.1.16/XMCLib/src/xmc_usbd.c **** 		}
1397:/opt/XMClib/XMC_Peripheral_Library_v2.1.16/XMCLib/src/xmc_usbd.c **** 		ep->isStalled = 0U;
1398:/opt/XMClib/XMC_Peripheral_Library_v2.1.16/XMCLib/src/xmc_usbd.c **** 	}
1399:/opt/XMClib/XMC_Peripheral_Library_v2.1.16/XMCLib/src/xmc_usbd.c **** 	return XMC_USBD_STATUS_OK;
 1066              		.loc 1 1399 2 is_stmt 1 view .LVU364
1400:/opt/XMClib/XMC_Peripheral_Library_v2.1.16/XMCLib/src/xmc_usbd.c **** }
 1067              		.loc 1 1400 1 is_stmt 0 view .LVU365
 1068 003c 0020     		movs	r0, #0
 1069              	.LVL72:
 1070              		.loc 1 1400 1 view .LVU366
 1071 003e 7047     		bx	lr
 1072              	.LVL73:
 1073              	.L87:
1367:/opt/XMClib/XMC_Peripheral_Library_v2.1.16/XMCLib/src/xmc_usbd.c ****       data.b.stall = 1U;
 1074              		.loc 1 1367 7 is_stmt 1 view .LVU367
1367:/opt/XMClib/XMC_Peripheral_Library_v2.1.16/XMCLib/src/xmc_usbd.c ****       data.b.stall = 1U;
 1075              		.loc 1 1367 49 is_stmt 0 view .LVU368
 1076 0040 1A49     		ldr	r1, .L89
 1077              	.LVL74:
1367:/opt/XMClib/XMC_Peripheral_Library_v2.1.16/XMCLib/src/xmc_usbd.c ****       data.b.stall = 1U;
 1078              		.loc 1 1367 74 view .LVU369
 1079 0042 3423     		movs	r3, #52
 1080 0044 02FB03F3 		mul	r3, r2, r3
 1081 0048 CB5C     		ldrb	r3, [r1, r3]	@ zero_extendqisi2
 1082 004a 03F00F03 		and	r3, r3, #15
1367:/opt/XMClib/XMC_Peripheral_Library_v2.1.16/XMCLib/src/xmc_usbd.c ****       data.b.stall = 1U;
 1083              		.loc 1 1367 49 view .LVU370
 1084 004e 6A33     		adds	r3, r3, #106
 1085 0050 51F82310 		ldr	r1, [r1, r3, lsl #2]
1367:/opt/XMClib/XMC_Peripheral_Library_v2.1.16/XMCLib/src/xmc_usbd.c ****       data.b.stall = 1U;
 1086              		.loc 1 1367 82 view .LVU371
 1087 0054 0B68     		ldr	r3, [r1]
1368:/opt/XMClib/XMC_Peripheral_Library_v2.1.16/XMCLib/src/xmc_usbd.c ****       xmc_device.endpoint_in_register[ep->address_u.address_st.number]->diepctl = data.d32;
 1088              		.loc 1 1368 7 is_stmt 1 view .LVU372
1368:/opt/XMClib/XMC_Peripheral_Library_v2.1.16/XMCLib/src/xmc_usbd.c ****       xmc_device.endpoint_in_register[ep->address_u.address_st.number]->diepctl = data.d32;
 1089              		.loc 1 1368 20 is_stmt 0 view .LVU373
 1090 0056 43F40013 		orr	r3, r3, #2097152
1369:/opt/XMClib/XMC_Peripheral_Library_v2.1.16/XMCLib/src/xmc_usbd.c ****     }
 1091              		.loc 1 1369 7 is_stmt 1 view .LVU374
 1092              	.LVL75:
1369:/opt/XMClib/XMC_Peripheral_Library_v2.1.16/XMCLib/src/xmc_usbd.c ****     }
 1093              		.loc 1 1369 81 is_stmt 0 view .LVU375
 1094 005a 0B60     		str	r3, [r1]
 1095 005c E6E7     		b	.L84
 1096              	.LVL76:
 1097              	.L81:
1383:/opt/XMClib/XMC_Peripheral_Library_v2.1.16/XMCLib/src/xmc_usbd.c **** 		{
 1098              		.loc 1 1383 3 is_stmt 1 view .LVU376
1383:/opt/XMClib/XMC_Peripheral_Library_v2.1.16/XMCLib/src/xmc_usbd.c **** 		{
 1099              		.loc 1 1383 6 is_stmt 0 view .LVU377
 1100 005e 10F0800F 		tst	r0, #128
 1101 0062 11D1     		bne	.L88
1392:/opt/XMClib/XMC_Peripheral_Library_v2.1.16/XMCLib/src/xmc_usbd.c **** 			data.b.stall = 0U;
 1102              		.loc 1 1392 4 is_stmt 1 view .LVU378
1392:/opt/XMClib/XMC_Peripheral_Library_v2.1.16/XMCLib/src/xmc_usbd.c **** 			data.b.stall = 0U;
 1103              		.loc 1 1392 47 is_stmt 0 view .LVU379
 1104 0064 114B     		ldr	r3, .L89
1392:/opt/XMClib/XMC_Peripheral_Library_v2.1.16/XMCLib/src/xmc_usbd.c **** 			data.b.stall = 0U;
 1105              		.loc 1 1392 72 view .LVU380
 1106 0066 3421     		movs	r1, #52
 1107              	.LVL77:
1392:/opt/XMClib/XMC_Peripheral_Library_v2.1.16/XMCLib/src/xmc_usbd.c **** 			data.b.stall = 0U;
 1108              		.loc 1 1392 72 view .LVU381
 1109 0068 02FB01F1 		mul	r1, r2, r1
 1110 006c 595C     		ldrb	r1, [r3, r1]	@ zero_extendqisi2
 1111 006e 01F00F01 		and	r1, r1, #15
1392:/opt/XMClib/XMC_Peripheral_Library_v2.1.16/XMCLib/src/xmc_usbd.c **** 			data.b.stall = 0U;
 1112              		.loc 1 1392 47 view .LVU382
 1113 0072 03EB8103 		add	r3, r3, r1, lsl #2
 1114 0076 D3F8C411 		ldr	r1, [r3, #452]
1392:/opt/XMClib/XMC_Peripheral_Library_v2.1.16/XMCLib/src/xmc_usbd.c **** 			data.b.stall = 0U;
 1115              		.loc 1 1392 80 view .LVU383
 1116 007a 0B68     		ldr	r3, [r1]
1393:/opt/XMClib/XMC_Peripheral_Library_v2.1.16/XMCLib/src/xmc_usbd.c **** 			data.b.setd0pid = 1U; /* reset pid to 0 */
 1117              		.loc 1 1393 4 is_stmt 1 view .LVU384
1393:/opt/XMClib/XMC_Peripheral_Library_v2.1.16/XMCLib/src/xmc_usbd.c **** 			data.b.setd0pid = 1U; /* reset pid to 0 */
 1118              		.loc 1 1393 17 is_stmt 0 view .LVU385
 1119 007c 23F40013 		bic	r3, r3, #2097152
1394:/opt/XMClib/XMC_Peripheral_Library_v2.1.16/XMCLib/src/xmc_usbd.c **** 			xmc_device.endpoint_out_register[ep->address_u.address_st.number]->doepctl = data.d32;
 1120              		.loc 1 1394 4 is_stmt 1 view .LVU386
 1121              	.LVL78:
1394:/opt/XMClib/XMC_Peripheral_Library_v2.1.16/XMCLib/src/xmc_usbd.c **** 			xmc_device.endpoint_out_register[ep->address_u.address_st.number]->doepctl = data.d32;
 1122              		.loc 1 1394 20 is_stmt 0 view .LVU387
 1123 0080 43F08053 		orr	r3, r3, #268435456
 1124              	.LVL79:
1395:/opt/XMClib/XMC_Peripheral_Library_v2.1.16/XMCLib/src/xmc_usbd.c **** 		}
 1125              		.loc 1 1395 4 is_stmt 1 view .LVU388
1395:/opt/XMClib/XMC_Peripheral_Library_v2.1.16/XMCLib/src/xmc_usbd.c **** 		}
 1126              		.loc 1 1395 79 is_stmt 0 view .LVU389
 1127 0084 0B60     		str	r3, [r1]
1397:/opt/XMClib/XMC_Peripheral_Library_v2.1.16/XMCLib/src/xmc_usbd.c **** 	}
 1128              		.loc 1 1397 3 is_stmt 1 view .LVU390
 1129 0086 D1E7     		b	.L84
 1130              	.LVL80:
 1131              	.L88:
1385:/opt/XMClib/XMC_Peripheral_Library_v2.1.16/XMCLib/src/xmc_usbd.c **** 			data.b.stall = 0U;
 1132              		.loc 1 1385 4 view .LVU391
1385:/opt/XMClib/XMC_Peripheral_Library_v2.1.16/XMCLib/src/xmc_usbd.c **** 			data.b.stall = 0U;
 1133              		.loc 1 1385 46 is_stmt 0 view .LVU392
 1134 0088 0849     		ldr	r1, .L89
 1135              	.LVL81:
1385:/opt/XMClib/XMC_Peripheral_Library_v2.1.16/XMCLib/src/xmc_usbd.c **** 			data.b.stall = 0U;
 1136              		.loc 1 1385 71 view .LVU393
 1137 008a 3423     		movs	r3, #52
 1138 008c 02FB03F3 		mul	r3, r2, r3
 1139 0090 CB5C     		ldrb	r3, [r1, r3]	@ zero_extendqisi2
 1140 0092 03F00F03 		and	r3, r3, #15
1385:/opt/XMClib/XMC_Peripheral_Library_v2.1.16/XMCLib/src/xmc_usbd.c **** 			data.b.stall = 0U;
 1141              		.loc 1 1385 46 view .LVU394
 1142 0096 6A33     		adds	r3, r3, #106
 1143 0098 51F82310 		ldr	r1, [r1, r3, lsl #2]
1385:/opt/XMClib/XMC_Peripheral_Library_v2.1.16/XMCLib/src/xmc_usbd.c **** 			data.b.stall = 0U;
 1144              		.loc 1 1385 79 view .LVU395
 1145 009c 0B68     		ldr	r3, [r1]
1386:/opt/XMClib/XMC_Peripheral_Library_v2.1.16/XMCLib/src/xmc_usbd.c **** 			data.b.setd0pid = 1U; /* reset pid to 0 */
 1146              		.loc 1 1386 4 is_stmt 1 view .LVU396
1386:/opt/XMClib/XMC_Peripheral_Library_v2.1.16/XMCLib/src/xmc_usbd.c **** 			data.b.setd0pid = 1U; /* reset pid to 0 */
 1147              		.loc 1 1386 17 is_stmt 0 view .LVU397
 1148 009e 23F40013 		bic	r3, r3, #2097152
1387:/opt/XMClib/XMC_Peripheral_Library_v2.1.16/XMCLib/src/xmc_usbd.c **** 			xmc_device.endpoint_in_register[ep->address_u.address_st.number]->diepctl = data.d32;
 1149              		.loc 1 1387 4 is_stmt 1 view .LVU398
 1150              	.LVL82:
1387:/opt/XMClib/XMC_Peripheral_Library_v2.1.16/XMCLib/src/xmc_usbd.c **** 			xmc_device.endpoint_in_register[ep->address_u.address_st.number]->diepctl = data.d32;
 1151              		.loc 1 1387 20 is_stmt 0 view .LVU399
 1152 00a2 43F08053 		orr	r3, r3, #268435456
 1153              	.LVL83:
1388:/opt/XMClib/XMC_Peripheral_Library_v2.1.16/XMCLib/src/xmc_usbd.c **** 		}
 1154              		.loc 1 1388 4 is_stmt 1 view .LVU400
1388:/opt/XMClib/XMC_Peripheral_Library_v2.1.16/XMCLib/src/xmc_usbd.c **** 		}
 1155              		.loc 1 1388 78 is_stmt 0 view .LVU401
 1156 00a6 0B60     		str	r3, [r1]
 1157 00a8 C0E7     		b	.L84
 1158              	.L90:
 1159 00aa 00BF     		.align	2
 1160              	.L89:
 1161 00ac 00000000 		.word	.LANCHOR0
 1162              		.cfi_endproc
 1163              	.LFE196:
 1165              		.section	.text.XMC_USBD_EndpointAbort,"ax",%progbits
 1166              		.align	1
 1167              		.global	XMC_USBD_EndpointAbort
 1168              		.syntax unified
 1169              		.thumb
 1170              		.thumb_func
 1172              	XMC_USBD_EndpointAbort:
 1173              	.LVL84:
 1174              	.LFB197:
1401:/opt/XMClib/XMC_Peripheral_Library_v2.1.16/XMCLib/src/xmc_usbd.c **** 
1402:/opt/XMClib/XMC_Peripheral_Library_v2.1.16/XMCLib/src/xmc_usbd.c **** /**
1403:/opt/XMClib/XMC_Peripheral_Library_v2.1.16/XMCLib/src/xmc_usbd.c ****  * Aborts the data transfer on the selected endpoint
1404:/opt/XMClib/XMC_Peripheral_Library_v2.1.16/XMCLib/src/xmc_usbd.c ****  **/
1405:/opt/XMClib/XMC_Peripheral_Library_v2.1.16/XMCLib/src/xmc_usbd.c **** XMC_USBD_STATUS_t XMC_USBD_EndpointAbort(const uint8_t ep_addr) {
 1175              		.loc 1 1405 65 is_stmt 1 view -0
 1176              		.cfi_startproc
 1177              		@ args = 0, pretend = 0, frame = 0
 1178              		@ frame_needed = 0, uses_anonymous_args = 0
 1179              		@ link register save eliminated.
1406:/opt/XMClib/XMC_Peripheral_Library_v2.1.16/XMCLib/src/xmc_usbd.c ****   XMC_USBD_EP_t *ep = &xmc_device.ep[ep_addr & (uint8_t)XMC_USBD_ENDPOINT_NUMBER_MASK];
 1180              		.loc 1 1406 3 view .LVU403
 1181              		.loc 1 1406 46 is_stmt 0 view .LVU404
 1182 0000 00F00F00 		and	r0, r0, #15
 1183              	.LVL85:
1407:/opt/XMClib/XMC_Peripheral_Library_v2.1.16/XMCLib/src/xmc_usbd.c ****   if (ep->address_u.address_st.direction)
 1184              		.loc 1 1407 3 is_stmt 1 view .LVU405
 1185              		.loc 1 1407 7 is_stmt 0 view .LVU406
 1186 0004 3423     		movs	r3, #52
 1187 0006 00FB03F3 		mul	r3, r0, r3
 1188              		.loc 1 1407 6 view .LVU407
 1189 000a 124A     		ldr	r2, .L96
 1190 000c D356     		ldrsb	r3, [r2, r3]
 1191 000e 002B     		cmp	r3, #0
 1192 0010 16DB     		blt	.L95
1408:/opt/XMClib/XMC_Peripheral_Library_v2.1.16/XMCLib/src/xmc_usbd.c ****   {
1409:/opt/XMClib/XMC_Peripheral_Library_v2.1.16/XMCLib/src/xmc_usbd.c ****     ep->inInUse = 0U;
1410:/opt/XMClib/XMC_Peripheral_Library_v2.1.16/XMCLib/src/xmc_usbd.c ****   }
1411:/opt/XMClib/XMC_Peripheral_Library_v2.1.16/XMCLib/src/xmc_usbd.c ****   if (!ep->address_u.address_st.direction)
 1193              		.loc 1 1411 3 is_stmt 1 view .LVU408
1412:/opt/XMClib/XMC_Peripheral_Library_v2.1.16/XMCLib/src/xmc_usbd.c ****   {
1413:/opt/XMClib/XMC_Peripheral_Library_v2.1.16/XMCLib/src/xmc_usbd.c ****     ep->outInUse = 0U;
 1194              		.loc 1 1413 5 view .LVU409
 1195              		.loc 1 1413 18 is_stmt 0 view .LVU410
 1196 0012 104B     		ldr	r3, .L96
 1197 0014 3422     		movs	r2, #52
 1198 0016 02FB0033 		mla	r3, r2, r0, r3
 1199 001a 5A68     		ldr	r2, [r3, #4]
 1200 001c 22F01002 		bic	r2, r2, #16
 1201 0020 5A60     		str	r2, [r3, #4]
 1202              	.L93:
1414:/opt/XMClib/XMC_Peripheral_Library_v2.1.16/XMCLib/src/xmc_usbd.c ****   }
1415:/opt/XMClib/XMC_Peripheral_Library_v2.1.16/XMCLib/src/xmc_usbd.c ****   ep->isStalled = 0U;
 1203              		.loc 1 1415 3 is_stmt 1 view .LVU411
 1204              		.loc 1 1415 17 is_stmt 0 view .LVU412
 1205 0022 0C4B     		ldr	r3, .L96
 1206 0024 3422     		movs	r2, #52
 1207 0026 02FB0033 		mla	r3, r2, r0, r3
 1208 002a 1A79     		ldrb	r2, [r3, #4]	@ zero_extendqisi2
 1209 002c 22F02002 		bic	r2, r2, #32
 1210 0030 1A71     		strb	r2, [r3, #4]
1416:/opt/XMClib/XMC_Peripheral_Library_v2.1.16/XMCLib/src/xmc_usbd.c ****   ep->outBytesAvailable = 0U;
 1211              		.loc 1 1416 3 is_stmt 1 view .LVU413
 1212              		.loc 1 1416 25 is_stmt 0 view .LVU414
 1213 0032 0020     		movs	r0, #0
 1214              	.LVL86:
 1215              		.loc 1 1416 25 view .LVU415
 1216 0034 1861     		str	r0, [r3, #16]
1417:/opt/XMClib/XMC_Peripheral_Library_v2.1.16/XMCLib/src/xmc_usbd.c ****   ep->outOffset = 0U;
 1217              		.loc 1 1417 3 is_stmt 1 view .LVU416
 1218              		.loc 1 1417 17 is_stmt 0 view .LVU417
 1219 0036 9861     		str	r0, [r3, #24]
1418:/opt/XMClib/XMC_Peripheral_Library_v2.1.16/XMCLib/src/xmc_usbd.c ****   ep->xferLength = 0U;
 1220              		.loc 1 1418 3 is_stmt 1 view .LVU418
 1221              		.loc 1 1418 18 is_stmt 0 view .LVU419
 1222 0038 9862     		str	r0, [r3, #40]
1419:/opt/XMClib/XMC_Peripheral_Library_v2.1.16/XMCLib/src/xmc_usbd.c ****   ep->xferCount = 0U;
 1223              		.loc 1 1419 3 is_stmt 1 view .LVU420
 1224              		.loc 1 1419 17 is_stmt 0 view .LVU421
 1225 003a D862     		str	r0, [r3, #44]
1420:/opt/XMClib/XMC_Peripheral_Library_v2.1.16/XMCLib/src/xmc_usbd.c ****   ep->xferTotal = 0U;
 1226              		.loc 1 1420 3 is_stmt 1 view .LVU422
 1227              		.loc 1 1420 17 is_stmt 0 view .LVU423
 1228 003c 1863     		str	r0, [r3, #48]
1421:/opt/XMClib/XMC_Peripheral_Library_v2.1.16/XMCLib/src/xmc_usbd.c **** 
1422:/opt/XMClib/XMC_Peripheral_Library_v2.1.16/XMCLib/src/xmc_usbd.c ****   return XMC_USBD_STATUS_OK;
 1229              		.loc 1 1422 3 is_stmt 1 view .LVU424
1423:/opt/XMClib/XMC_Peripheral_Library_v2.1.16/XMCLib/src/xmc_usbd.c **** }
 1230              		.loc 1 1423 1 is_stmt 0 view .LVU425
 1231 003e 7047     		bx	lr
 1232              	.LVL87:
 1233              	.L95:
1409:/opt/XMClib/XMC_Peripheral_Library_v2.1.16/XMCLib/src/xmc_usbd.c ****   }
 1234              		.loc 1 1409 5 is_stmt 1 view .LVU426
1409:/opt/XMClib/XMC_Peripheral_Library_v2.1.16/XMCLib/src/xmc_usbd.c ****   }
 1235              		.loc 1 1409 17 is_stmt 0 view .LVU427
 1236 0040 1346     		mov	r3, r2
 1237 0042 3422     		movs	r2, #52
 1238 0044 02FB0033 		mla	r3, r2, r0, r3
 1239 0048 5A68     		ldr	r2, [r3, #4]
 1240 004a 22F00802 		bic	r2, r2, #8
 1241 004e 5A60     		str	r2, [r3, #4]
1411:/opt/XMClib/XMC_Peripheral_Library_v2.1.16/XMCLib/src/xmc_usbd.c ****   {
 1242              		.loc 1 1411 3 is_stmt 1 view .LVU428
 1243 0050 E7E7     		b	.L93
 1244              	.L97:
 1245 0052 00BF     		.align	2
 1246              	.L96:
 1247 0054 00000000 		.word	.LANCHOR0
 1248              		.cfi_endproc
 1249              	.LFE197:
 1251              		.section	.text.XMC_USBD_EndpointUnconfigure,"ax",%progbits
 1252              		.align	1
 1253              		.global	XMC_USBD_EndpointUnconfigure
 1254              		.syntax unified
 1255              		.thumb
 1256              		.thumb_func
 1258              	XMC_USBD_EndpointUnconfigure:
 1259              	.LVL88:
 1260              	.LFB199:
1424:/opt/XMClib/XMC_Peripheral_Library_v2.1.16/XMCLib/src/xmc_usbd.c **** 
1425:/opt/XMClib/XMC_Peripheral_Library_v2.1.16/XMCLib/src/xmc_usbd.c **** /**
1426:/opt/XMClib/XMC_Peripheral_Library_v2.1.16/XMCLib/src/xmc_usbd.c ****  * Configures the given endpoint
1427:/opt/XMClib/XMC_Peripheral_Library_v2.1.16/XMCLib/src/xmc_usbd.c ****  **/
1428:/opt/XMClib/XMC_Peripheral_Library_v2.1.16/XMCLib/src/xmc_usbd.c **** XMC_USBD_STATUS_t XMC_USBD_EndpointConfigure(const uint8_t ep_addr,
1429:/opt/XMClib/XMC_Peripheral_Library_v2.1.16/XMCLib/src/xmc_usbd.c **** 		                                     const XMC_USBD_ENDPOINT_TYPE_t ep_type,
1430:/opt/XMClib/XMC_Peripheral_Library_v2.1.16/XMCLib/src/xmc_usbd.c **** 		                                     const uint16_t ep_max_packet_size) 
1431:/opt/XMClib/XMC_Peripheral_Library_v2.1.16/XMCLib/src/xmc_usbd.c **** {
1432:/opt/XMClib/XMC_Peripheral_Library_v2.1.16/XMCLib/src/xmc_usbd.c ****   daint_data_t daintmsk;
1433:/opt/XMClib/XMC_Peripheral_Library_v2.1.16/XMCLib/src/xmc_usbd.c ****   XMC_USBD_EP_t *ep;
1434:/opt/XMClib/XMC_Peripheral_Library_v2.1.16/XMCLib/src/xmc_usbd.c ****   daintmsk.d32 = xmc_device.device_register->daintmsk;  
1435:/opt/XMClib/XMC_Peripheral_Library_v2.1.16/XMCLib/src/xmc_usbd.c ****   ep =&xmc_device.ep[ep_addr & (uint32_t)XMC_USBD_ENDPOINT_NUMBER_MASK];
1436:/opt/XMClib/XMC_Peripheral_Library_v2.1.16/XMCLib/src/xmc_usbd.c ****   memset((void*)ep,0x0U,sizeof(XMC_USBD_EP_t)); /* clear endpoint structure */
1437:/opt/XMClib/XMC_Peripheral_Library_v2.1.16/XMCLib/src/xmc_usbd.c ****   /* do ep configuration */
1438:/opt/XMClib/XMC_Peripheral_Library_v2.1.16/XMCLib/src/xmc_usbd.c ****   ep->address_u.address = ep_addr;
1439:/opt/XMClib/XMC_Peripheral_Library_v2.1.16/XMCLib/src/xmc_usbd.c ****   ep->isConfigured = 1U;
1440:/opt/XMClib/XMC_Peripheral_Library_v2.1.16/XMCLib/src/xmc_usbd.c ****   ep->maxPacketSize = (uint8_t)ep_max_packet_size;
1441:/opt/XMClib/XMC_Peripheral_Library_v2.1.16/XMCLib/src/xmc_usbd.c ****   if (ep->address_u.address != 0U)
1442:/opt/XMClib/XMC_Peripheral_Library_v2.1.16/XMCLib/src/xmc_usbd.c ****   {
1443:/opt/XMClib/XMC_Peripheral_Library_v2.1.16/XMCLib/src/xmc_usbd.c ****     ep->maxTransferSize = (uint32_t)XMC_USBD_MAX_TRANSFER_SIZE;
1444:/opt/XMClib/XMC_Peripheral_Library_v2.1.16/XMCLib/src/xmc_usbd.c ****   }
1445:/opt/XMClib/XMC_Peripheral_Library_v2.1.16/XMCLib/src/xmc_usbd.c ****   else
1446:/opt/XMClib/XMC_Peripheral_Library_v2.1.16/XMCLib/src/xmc_usbd.c ****   {
1447:/opt/XMClib/XMC_Peripheral_Library_v2.1.16/XMCLib/src/xmc_usbd.c ****     ep->maxTransferSize = (uint32_t)XMC_USBD_MAX_TRANSFER_SIZE_EP0;
1448:/opt/XMClib/XMC_Peripheral_Library_v2.1.16/XMCLib/src/xmc_usbd.c ****   }
1449:/opt/XMClib/XMC_Peripheral_Library_v2.1.16/XMCLib/src/xmc_usbd.c ****   /* transfer buffer */
1450:/opt/XMClib/XMC_Peripheral_Library_v2.1.16/XMCLib/src/xmc_usbd.c ****   ep->inBuffer = XMC_USBD_EP_IN_BUFFER[ep->address_u.address_st.number];
1451:/opt/XMClib/XMC_Peripheral_Library_v2.1.16/XMCLib/src/xmc_usbd.c ****   ep->outBuffer = XMC_USBD_EP_OUT_BUFFER[ep->address_u.address_st.number];
1452:/opt/XMClib/XMC_Peripheral_Library_v2.1.16/XMCLib/src/xmc_usbd.c ****   /* buffer size*/
1453:/opt/XMClib/XMC_Peripheral_Library_v2.1.16/XMCLib/src/xmc_usbd.c ****   ep->inBufferSize = XMC_USBD_EP_IN_BUFFERSIZE[ep->address_u.address_st.number];
1454:/opt/XMClib/XMC_Peripheral_Library_v2.1.16/XMCLib/src/xmc_usbd.c ****   ep->outBufferSize = XMC_USBD_EP_OUT_BUFFERSIZE[ep->address_u.address_st.number];
1455:/opt/XMClib/XMC_Peripheral_Library_v2.1.16/XMCLib/src/xmc_usbd.c ****   /* is in */
1456:/opt/XMClib/XMC_Peripheral_Library_v2.1.16/XMCLib/src/xmc_usbd.c ****   if ((ep->address_u.address_st.direction == 1U) || (ep_type == XMC_USBD_ENDPOINT_TYPE_CONTROL))
1457:/opt/XMClib/XMC_Peripheral_Library_v2.1.16/XMCLib/src/xmc_usbd.c ****   {
1458:/opt/XMClib/XMC_Peripheral_Library_v2.1.16/XMCLib/src/xmc_usbd.c ****     depctl_data_t data;
1459:/opt/XMClib/XMC_Peripheral_Library_v2.1.16/XMCLib/src/xmc_usbd.c ****     data.d32 = xmc_device.endpoint_in_register[ep->address_u.address_st.number]->diepctl;
1460:/opt/XMClib/XMC_Peripheral_Library_v2.1.16/XMCLib/src/xmc_usbd.c **** 		/*enable endpoint */
1461:/opt/XMClib/XMC_Peripheral_Library_v2.1.16/XMCLib/src/xmc_usbd.c **** 		data.b.usbactep = 1U;
1462:/opt/XMClib/XMC_Peripheral_Library_v2.1.16/XMCLib/src/xmc_usbd.c **** 		/* set ep type */
1463:/opt/XMClib/XMC_Peripheral_Library_v2.1.16/XMCLib/src/xmc_usbd.c **** 		data.b.eptype = (uint8_t)ep_type;
1464:/opt/XMClib/XMC_Peripheral_Library_v2.1.16/XMCLib/src/xmc_usbd.c **** 		/* set mps */
1465:/opt/XMClib/XMC_Peripheral_Library_v2.1.16/XMCLib/src/xmc_usbd.c ****     if (ep_type == XMC_USBD_ENDPOINT_TYPE_CONTROL)
1466:/opt/XMClib/XMC_Peripheral_Library_v2.1.16/XMCLib/src/xmc_usbd.c ****     {
1467:/opt/XMClib/XMC_Peripheral_Library_v2.1.16/XMCLib/src/xmc_usbd.c **** 			switch(ep_max_packet_size)
1468:/opt/XMClib/XMC_Peripheral_Library_v2.1.16/XMCLib/src/xmc_usbd.c **** 			{
1469:/opt/XMClib/XMC_Peripheral_Library_v2.1.16/XMCLib/src/xmc_usbd.c **** 				case (64U):
1470:/opt/XMClib/XMC_Peripheral_Library_v2.1.16/XMCLib/src/xmc_usbd.c **** 				data.b.mps = 0x0U;
1471:/opt/XMClib/XMC_Peripheral_Library_v2.1.16/XMCLib/src/xmc_usbd.c **** 				break;
1472:/opt/XMClib/XMC_Peripheral_Library_v2.1.16/XMCLib/src/xmc_usbd.c **** 				case (32U):
1473:/opt/XMClib/XMC_Peripheral_Library_v2.1.16/XMCLib/src/xmc_usbd.c **** 				data.b.mps = 0x1U;
1474:/opt/XMClib/XMC_Peripheral_Library_v2.1.16/XMCLib/src/xmc_usbd.c **** 				break;
1475:/opt/XMClib/XMC_Peripheral_Library_v2.1.16/XMCLib/src/xmc_usbd.c **** 				case (16U):
1476:/opt/XMClib/XMC_Peripheral_Library_v2.1.16/XMCLib/src/xmc_usbd.c **** 				data.b.mps = 0x2U;
1477:/opt/XMClib/XMC_Peripheral_Library_v2.1.16/XMCLib/src/xmc_usbd.c **** 				break;
1478:/opt/XMClib/XMC_Peripheral_Library_v2.1.16/XMCLib/src/xmc_usbd.c **** 				case (8U):
1479:/opt/XMClib/XMC_Peripheral_Library_v2.1.16/XMCLib/src/xmc_usbd.c **** 				data.b.mps = 0x3U;
1480:/opt/XMClib/XMC_Peripheral_Library_v2.1.16/XMCLib/src/xmc_usbd.c **** 				break;
1481:/opt/XMClib/XMC_Peripheral_Library_v2.1.16/XMCLib/src/xmc_usbd.c **** 				default:
1482:/opt/XMClib/XMC_Peripheral_Library_v2.1.16/XMCLib/src/xmc_usbd.c **** 				break;
1483:/opt/XMClib/XMC_Peripheral_Library_v2.1.16/XMCLib/src/xmc_usbd.c **** 			}
1484:/opt/XMClib/XMC_Peripheral_Library_v2.1.16/XMCLib/src/xmc_usbd.c **** 		}
1485:/opt/XMClib/XMC_Peripheral_Library_v2.1.16/XMCLib/src/xmc_usbd.c **** 		else
1486:/opt/XMClib/XMC_Peripheral_Library_v2.1.16/XMCLib/src/xmc_usbd.c **** 		{
1487:/opt/XMClib/XMC_Peripheral_Library_v2.1.16/XMCLib/src/xmc_usbd.c **** 			data.b.mps = ep_max_packet_size;
1488:/opt/XMClib/XMC_Peripheral_Library_v2.1.16/XMCLib/src/xmc_usbd.c **** 		}
1489:/opt/XMClib/XMC_Peripheral_Library_v2.1.16/XMCLib/src/xmc_usbd.c **** 		/* set first data0 pid */
1490:/opt/XMClib/XMC_Peripheral_Library_v2.1.16/XMCLib/src/xmc_usbd.c **** 		data.b.setd0pid = 1U;
1491:/opt/XMClib/XMC_Peripheral_Library_v2.1.16/XMCLib/src/xmc_usbd.c **** 		/* clear stall */
1492:/opt/XMClib/XMC_Peripheral_Library_v2.1.16/XMCLib/src/xmc_usbd.c **** 		data.b.stall = 0U;
1493:/opt/XMClib/XMC_Peripheral_Library_v2.1.16/XMCLib/src/xmc_usbd.c **** 		/* set tx fifo */
1494:/opt/XMClib/XMC_Peripheral_Library_v2.1.16/XMCLib/src/xmc_usbd.c **** 		ep->txFifoNum = XMC_USBD_lAssignTXFifo(); /* get tx fifo */
1495:/opt/XMClib/XMC_Peripheral_Library_v2.1.16/XMCLib/src/xmc_usbd.c **** 		data.b.txfnum = ep->txFifoNum;
1496:/opt/XMClib/XMC_Peripheral_Library_v2.1.16/XMCLib/src/xmc_usbd.c **** 		xmc_device.endpoint_in_register[ep->address_u.address_st.number]->diepctl = data.d32; /* configur
1497:/opt/XMClib/XMC_Peripheral_Library_v2.1.16/XMCLib/src/xmc_usbd.c **** 		daintmsk.ep.in |= (uint16_t)((uint16_t)1U << (uint8_t)ep->address_u.address_st.number); /* enable
1498:/opt/XMClib/XMC_Peripheral_Library_v2.1.16/XMCLib/src/xmc_usbd.c ****   }
1499:/opt/XMClib/XMC_Peripheral_Library_v2.1.16/XMCLib/src/xmc_usbd.c ****   if ((ep->address_u.address_st.direction == 0U) || (ep_type == XMC_USBD_ENDPOINT_TYPE_CONTROL))
1500:/opt/XMClib/XMC_Peripheral_Library_v2.1.16/XMCLib/src/xmc_usbd.c ****   {
1501:/opt/XMClib/XMC_Peripheral_Library_v2.1.16/XMCLib/src/xmc_usbd.c ****     /* is out */
1502:/opt/XMClib/XMC_Peripheral_Library_v2.1.16/XMCLib/src/xmc_usbd.c **** 		depctl_data_t data;
1503:/opt/XMClib/XMC_Peripheral_Library_v2.1.16/XMCLib/src/xmc_usbd.c **** 		data.d32 = xmc_device.endpoint_out_register[ep->address_u.address_st.number]->doepctl;
1504:/opt/XMClib/XMC_Peripheral_Library_v2.1.16/XMCLib/src/xmc_usbd.c **** 		/*enable endpoint */
1505:/opt/XMClib/XMC_Peripheral_Library_v2.1.16/XMCLib/src/xmc_usbd.c **** 		data.b.usbactep = 1U;
1506:/opt/XMClib/XMC_Peripheral_Library_v2.1.16/XMCLib/src/xmc_usbd.c **** 		/* set ep type */
1507:/opt/XMClib/XMC_Peripheral_Library_v2.1.16/XMCLib/src/xmc_usbd.c **** 		data.b.eptype = (uint8_t)ep_type;
1508:/opt/XMClib/XMC_Peripheral_Library_v2.1.16/XMCLib/src/xmc_usbd.c ****     /* set mps */
1509:/opt/XMClib/XMC_Peripheral_Library_v2.1.16/XMCLib/src/xmc_usbd.c ****     if (ep_type == XMC_USBD_ENDPOINT_TYPE_CONTROL)
1510:/opt/XMClib/XMC_Peripheral_Library_v2.1.16/XMCLib/src/xmc_usbd.c **** 		{
1511:/opt/XMClib/XMC_Peripheral_Library_v2.1.16/XMCLib/src/xmc_usbd.c **** 			switch(ep_max_packet_size)
1512:/opt/XMClib/XMC_Peripheral_Library_v2.1.16/XMCLib/src/xmc_usbd.c **** 			{
1513:/opt/XMClib/XMC_Peripheral_Library_v2.1.16/XMCLib/src/xmc_usbd.c **** 				case (64U):
1514:/opt/XMClib/XMC_Peripheral_Library_v2.1.16/XMCLib/src/xmc_usbd.c **** 					data.b.mps = 0x0U;
1515:/opt/XMClib/XMC_Peripheral_Library_v2.1.16/XMCLib/src/xmc_usbd.c **** 					break;
1516:/opt/XMClib/XMC_Peripheral_Library_v2.1.16/XMCLib/src/xmc_usbd.c **** 				case (32U):
1517:/opt/XMClib/XMC_Peripheral_Library_v2.1.16/XMCLib/src/xmc_usbd.c **** 					data.b.mps = 0x1U;
1518:/opt/XMClib/XMC_Peripheral_Library_v2.1.16/XMCLib/src/xmc_usbd.c **** 					break;
1519:/opt/XMClib/XMC_Peripheral_Library_v2.1.16/XMCLib/src/xmc_usbd.c **** 				case (16U):
1520:/opt/XMClib/XMC_Peripheral_Library_v2.1.16/XMCLib/src/xmc_usbd.c **** 					data.b.mps = 0x2U;
1521:/opt/XMClib/XMC_Peripheral_Library_v2.1.16/XMCLib/src/xmc_usbd.c **** 					break;
1522:/opt/XMClib/XMC_Peripheral_Library_v2.1.16/XMCLib/src/xmc_usbd.c **** 				case (8U):
1523:/opt/XMClib/XMC_Peripheral_Library_v2.1.16/XMCLib/src/xmc_usbd.c **** 					data.b.mps = 0x3U;
1524:/opt/XMClib/XMC_Peripheral_Library_v2.1.16/XMCLib/src/xmc_usbd.c **** 					break;
1525:/opt/XMClib/XMC_Peripheral_Library_v2.1.16/XMCLib/src/xmc_usbd.c **** 				default:
1526:/opt/XMClib/XMC_Peripheral_Library_v2.1.16/XMCLib/src/xmc_usbd.c **** 					break;
1527:/opt/XMClib/XMC_Peripheral_Library_v2.1.16/XMCLib/src/xmc_usbd.c **** 			}
1528:/opt/XMClib/XMC_Peripheral_Library_v2.1.16/XMCLib/src/xmc_usbd.c **** 		}
1529:/opt/XMClib/XMC_Peripheral_Library_v2.1.16/XMCLib/src/xmc_usbd.c **** 		else
1530:/opt/XMClib/XMC_Peripheral_Library_v2.1.16/XMCLib/src/xmc_usbd.c **** 		{
1531:/opt/XMClib/XMC_Peripheral_Library_v2.1.16/XMCLib/src/xmc_usbd.c **** 			data.b.mps = ep_max_packet_size;
1532:/opt/XMClib/XMC_Peripheral_Library_v2.1.16/XMCLib/src/xmc_usbd.c **** 		}
1533:/opt/XMClib/XMC_Peripheral_Library_v2.1.16/XMCLib/src/xmc_usbd.c **** 		/* set first data0 pid */
1534:/opt/XMClib/XMC_Peripheral_Library_v2.1.16/XMCLib/src/xmc_usbd.c **** 		data.b.setd0pid = 1U;
1535:/opt/XMClib/XMC_Peripheral_Library_v2.1.16/XMCLib/src/xmc_usbd.c **** 		/* clear stall */
1536:/opt/XMClib/XMC_Peripheral_Library_v2.1.16/XMCLib/src/xmc_usbd.c **** 		data.b.stall =(uint8_t) 0U;
1537:/opt/XMClib/XMC_Peripheral_Library_v2.1.16/XMCLib/src/xmc_usbd.c **** 		xmc_device.endpoint_out_register[ep->address_u.address_st.number]->doepctl = data.d32; /* configu
1538:/opt/XMClib/XMC_Peripheral_Library_v2.1.16/XMCLib/src/xmc_usbd.c **** 		daintmsk.ep.out |=(uint16_t) ((uint16_t)1U << (uint8_t)ep->address_u.address_st.number); /* enabl
1539:/opt/XMClib/XMC_Peripheral_Library_v2.1.16/XMCLib/src/xmc_usbd.c ****   }
1540:/opt/XMClib/XMC_Peripheral_Library_v2.1.16/XMCLib/src/xmc_usbd.c ****   xmc_device.device_register->daintmsk = daintmsk.d32;
1541:/opt/XMClib/XMC_Peripheral_Library_v2.1.16/XMCLib/src/xmc_usbd.c ****   return XMC_USBD_STATUS_OK;
1542:/opt/XMClib/XMC_Peripheral_Library_v2.1.16/XMCLib/src/xmc_usbd.c **** }
1543:/opt/XMClib/XMC_Peripheral_Library_v2.1.16/XMCLib/src/xmc_usbd.c **** 
1544:/opt/XMClib/XMC_Peripheral_Library_v2.1.16/XMCLib/src/xmc_usbd.c **** /**
1545:/opt/XMClib/XMC_Peripheral_Library_v2.1.16/XMCLib/src/xmc_usbd.c ****  * Unconfigure the selected endpoint.
1546:/opt/XMClib/XMC_Peripheral_Library_v2.1.16/XMCLib/src/xmc_usbd.c ****  **/
1547:/opt/XMClib/XMC_Peripheral_Library_v2.1.16/XMCLib/src/xmc_usbd.c **** XMC_USBD_STATUS_t XMC_USBD_EndpointUnconfigure(const uint8_t ep_addr) 
1548:/opt/XMClib/XMC_Peripheral_Library_v2.1.16/XMCLib/src/xmc_usbd.c **** {
 1261              		.loc 1 1548 1 view -0
 1262              		.cfi_startproc
 1263              		@ args = 0, pretend = 0, frame = 0
 1264              		@ frame_needed = 0, uses_anonymous_args = 0
1549:/opt/XMClib/XMC_Peripheral_Library_v2.1.16/XMCLib/src/xmc_usbd.c ****   XMC_USBD_EP_t *ep = &xmc_device.ep[ep_addr & (uint8_t)XMC_USBD_ENDPOINT_NUMBER_MASK];
 1265              		.loc 1 1549 3 view .LVU430
 1266              		.loc 1 1549 46 is_stmt 0 view .LVU431
 1267 0000 00F00F00 		and	r0, r0, #15
 1268              	.LVL89:
1550:/opt/XMClib/XMC_Peripheral_Library_v2.1.16/XMCLib/src/xmc_usbd.c ****   depctl_data_t data;
 1269              		.loc 1 1550 3 is_stmt 1 view .LVU432
1551:/opt/XMClib/XMC_Peripheral_Library_v2.1.16/XMCLib/src/xmc_usbd.c **** 	daint_data_t daintmsk;
 1270              		.loc 1 1551 2 view .LVU433
1552:/opt/XMClib/XMC_Peripheral_Library_v2.1.16/XMCLib/src/xmc_usbd.c **** 	XMC_USBD_STATUS_t result;
 1271              		.loc 1 1552 2 view .LVU434
1553:/opt/XMClib/XMC_Peripheral_Library_v2.1.16/XMCLib/src/xmc_usbd.c **** 	uint32_t number_temp;
 1272              		.loc 1 1553 2 view .LVU435
1554:/opt/XMClib/XMC_Peripheral_Library_v2.1.16/XMCLib/src/xmc_usbd.c ****   data.d32 = 0U;  
 1273              		.loc 1 1554 3 view .LVU436
1555:/opt/XMClib/XMC_Peripheral_Library_v2.1.16/XMCLib/src/xmc_usbd.c ****   daintmsk.d32 = xmc_device.device_register->daintmsk;  
 1274              		.loc 1 1555 3 view .LVU437
 1275              		.loc 1 1555 28 is_stmt 0 view .LVU438
 1276 0004 404B     		ldr	r3, .L109
 1277 0006 D3F8A421 		ldr	r2, [r3, #420]
 1278              		.loc 1 1555 44 view .LVU439
 1279 000a D269     		ldr	r2, [r2, #28]
1556:/opt/XMClib/XMC_Peripheral_Library_v2.1.16/XMCLib/src/xmc_usbd.c ****   number_temp = (uint32_t)((uint32_t)1U << (uint8_t)ep->address_u.address_st.number);
 1280              		.loc 1 1556 3 is_stmt 1 view .LVU440
 1281              	.LVL90:
1557:/opt/XMClib/XMC_Peripheral_Library_v2.1.16/XMCLib/src/xmc_usbd.c ****   /* if not configured return an error */
1558:/opt/XMClib/XMC_Peripheral_Library_v2.1.16/XMCLib/src/xmc_usbd.c ****   if (!ep->isConfigured)
 1282              		.loc 1 1558 3 view .LVU441
 1283              		.loc 1 1558 7 is_stmt 0 view .LVU442
 1284 000c 3421     		movs	r1, #52
 1285 000e 01FB0033 		mla	r3, r1, r0, r3
 1286 0012 1B79     		ldrb	r3, [r3, #4]	@ zero_extendqisi2
 1287              		.loc 1 1558 6 view .LVU443
 1288 0014 13F0040F 		tst	r3, #4
 1289 0018 74D0     		beq	.L103
1548:/opt/XMClib/XMC_Peripheral_Library_v2.1.16/XMCLib/src/xmc_usbd.c ****   XMC_USBD_EP_t *ep = &xmc_device.ep[ep_addr & (uint8_t)XMC_USBD_ENDPOINT_NUMBER_MASK];
 1290              		.loc 1 1548 1 view .LVU444
 1291 001a F0B5     		push	{r4, r5, r6, r7, lr}
 1292              	.LCFI13:
 1293              		.cfi_def_cfa_offset 20
 1294              		.cfi_offset 4, -20
 1295              		.cfi_offset 5, -16
 1296              		.cfi_offset 6, -12
 1297              		.cfi_offset 7, -8
 1298              		.cfi_offset 14, -4
 1299 001c 1446     		mov	r4, r2
 1300              	.LVL91:
1556:/opt/XMClib/XMC_Peripheral_Library_v2.1.16/XMCLib/src/xmc_usbd.c ****   number_temp = (uint32_t)((uint32_t)1U << (uint8_t)ep->address_u.address_st.number);
 1301              		.loc 1 1556 77 view .LVU445
 1302 001e 3A4E     		ldr	r6, .L109
 1303 0020 01FB00FC 		mul	ip, r1, r0
 1304 0024 06EB0C03 		add	r3, r6, ip
 1305 0028 16F80C10 		ldrb	r1, [r6, ip]	@ zero_extendqisi2
1556:/opt/XMClib/XMC_Peripheral_Library_v2.1.16/XMCLib/src/xmc_usbd.c ****   number_temp = (uint32_t)((uint32_t)1U << (uint8_t)ep->address_u.address_st.number);
 1306              		.loc 1 1556 44 view .LVU446
 1307 002c 01F00F01 		and	r1, r1, #15
1556:/opt/XMClib/XMC_Peripheral_Library_v2.1.16/XMCLib/src/xmc_usbd.c ****   number_temp = (uint32_t)((uint32_t)1U << (uint8_t)ep->address_u.address_st.number);
 1308              		.loc 1 1556 15 view .LVU447
 1309 0030 0125     		movs	r5, #1
 1310 0032 8D40     		lsls	r5, r5, r1
1559:/opt/XMClib/XMC_Peripheral_Library_v2.1.16/XMCLib/src/xmc_usbd.c ****   {
1560:/opt/XMClib/XMC_Peripheral_Library_v2.1.16/XMCLib/src/xmc_usbd.c ****      result = XMC_USBD_STATUS_ERROR;
1561:/opt/XMClib/XMC_Peripheral_Library_v2.1.16/XMCLib/src/xmc_usbd.c ****   }
1562:/opt/XMClib/XMC_Peripheral_Library_v2.1.16/XMCLib/src/xmc_usbd.c ****   else
1563:/opt/XMClib/XMC_Peripheral_Library_v2.1.16/XMCLib/src/xmc_usbd.c ****   {
1564:/opt/XMClib/XMC_Peripheral_Library_v2.1.16/XMCLib/src/xmc_usbd.c ****     /* disable the endpoint, deactivate it and only send naks */
1565:/opt/XMClib/XMC_Peripheral_Library_v2.1.16/XMCLib/src/xmc_usbd.c ****     data.b.usbactep = 0U;
 1311              		.loc 1 1565 5 is_stmt 1 view .LVU448
1566:/opt/XMClib/XMC_Peripheral_Library_v2.1.16/XMCLib/src/xmc_usbd.c ****     data.b.epdis =  1U;
 1312              		.loc 1 1566 5 view .LVU449
1567:/opt/XMClib/XMC_Peripheral_Library_v2.1.16/XMCLib/src/xmc_usbd.c ****     data.b.snak =  1U;
 1313              		.loc 1 1567 5 view .LVU450
1568:/opt/XMClib/XMC_Peripheral_Library_v2.1.16/XMCLib/src/xmc_usbd.c ****     data.b.stall =  0U;
 1314              		.loc 1 1568 5 view .LVU451
1569:/opt/XMClib/XMC_Peripheral_Library_v2.1.16/XMCLib/src/xmc_usbd.c ****     ep->isConfigured =  0U;
 1315              		.loc 1 1569 5 view .LVU452
 1316              		.loc 1 1569 22 is_stmt 0 view .LVU453
 1317 0034 93F804E0 		ldrb	lr, [r3, #4]	@ zero_extendqisi2
1570:/opt/XMClib/XMC_Peripheral_Library_v2.1.16/XMCLib/src/xmc_usbd.c ****     ep->isStalled =  0U;
 1318              		.loc 1 1570 5 is_stmt 1 view .LVU454
 1319              		.loc 1 1570 19 is_stmt 0 view .LVU455
 1320 0038 0EF0FB0E 		and	lr, lr, #251
 1321 003c 2EF0200E 		bic	lr, lr, #32
 1322 0040 83F804E0 		strb	lr, [r3, #4]
1571:/opt/XMClib/XMC_Peripheral_Library_v2.1.16/XMCLib/src/xmc_usbd.c ****     ep->outInUse =  0U;
 1323              		.loc 1 1571 5 is_stmt 1 view .LVU456
 1324              		.loc 1 1571 18 is_stmt 0 view .LVU457
 1325 0044 5F68     		ldr	r7, [r3, #4]
 1326 0046 27F01007 		bic	r7, r7, #16
 1327 004a 5F60     		str	r7, [r3, #4]
 1328              	.LVL92:
1572:/opt/XMClib/XMC_Peripheral_Library_v2.1.16/XMCLib/src/xmc_usbd.c ****     ep->inInUse =  0U;
 1329              		.loc 1 1572 5 is_stmt 1 view .LVU458
 1330              		.loc 1 1572 17 is_stmt 0 view .LVU459
 1331 004c 5F68     		ldr	r7, [r3, #4]
 1332 004e 27F00807 		bic	r7, r7, #8
 1333 0052 5F60     		str	r7, [r3, #4]
1573:/opt/XMClib/XMC_Peripheral_Library_v2.1.16/XMCLib/src/xmc_usbd.c ****     /* chose register based on the direction. Control Endpoint need both */
1574:/opt/XMClib/XMC_Peripheral_Library_v2.1.16/XMCLib/src/xmc_usbd.c ****     if ((ep->address_u.address_st.direction == 1U) || (ep->type == (uint8_t)XMC_USBD_ENDPOINT_TYPE_
 1334              		.loc 1 1574 5 is_stmt 1 view .LVU460
 1335              		.loc 1 1574 8 is_stmt 0 view .LVU461
 1336 0054 16F90C30 		ldrsb	r3, [r6, ip]
 1337 0058 002B     		cmp	r3, #0
 1338 005a 07DB     		blt	.L100
 1339              		.loc 1 1574 65 discriminator 1 view .LVU462
 1340 005c 3346     		mov	r3, r6
 1341 005e 3426     		movs	r6, #52
 1342 0060 06FB0033 		mla	r3, r6, r0, r3
 1343 0064 1B79     		ldrb	r3, [r3, #4]	@ zero_extendqisi2
 1344              		.loc 1 1574 52 discriminator 1 view .LVU463
 1345 0066 13F0030F 		tst	r3, #3
 1346 006a 17D1     		bne	.L101
 1347              	.L100:
1575:/opt/XMClib/XMC_Peripheral_Library_v2.1.16/XMCLib/src/xmc_usbd.c ****     {
1576:/opt/XMClib/XMC_Peripheral_Library_v2.1.16/XMCLib/src/xmc_usbd.c ****       /* disable endpoint configuration */
1577:/opt/XMClib/XMC_Peripheral_Library_v2.1.16/XMCLib/src/xmc_usbd.c ****       xmc_device.endpoint_in_register[ep->address_u.address_st.number]->diepctl = data.d32;
 1348              		.loc 1 1577 7 is_stmt 1 view .LVU464
 1349              		.loc 1 1577 38 is_stmt 0 view .LVU465
 1350 006c 264E     		ldr	r6, .L109
 1351 006e 6A31     		adds	r1, r1, #106
 1352 0070 56F82130 		ldr	r3, [r6, r1, lsl #2]
 1353              		.loc 1 1577 81 view .LVU466
 1354 0074 4FF09041 		mov	r1, #1207959552
 1355 0078 1960     		str	r1, [r3]
1578:/opt/XMClib/XMC_Peripheral_Library_v2.1.16/XMCLib/src/xmc_usbd.c ****       /* disable interrupts */
1579:/opt/XMClib/XMC_Peripheral_Library_v2.1.16/XMCLib/src/xmc_usbd.c ****       daintmsk.ep.in = (uint16_t)((uint32_t)daintmsk.ep.in & (~(uint32_t)number_temp));
 1356              		.loc 1 1579 7 is_stmt 1 view .LVU467
 1357              		.loc 1 1579 24 is_stmt 0 view .LVU468
 1358 007a 22EA0503 		bic	r3, r2, r5
 1359              		.loc 1 1579 22 view .LVU469
 1360 007e 63F30F04 		bfi	r4, r3, #0, #16
 1361              	.LVL93:
1580:/opt/XMClib/XMC_Peripheral_Library_v2.1.16/XMCLib/src/xmc_usbd.c ****     }
1581:/opt/XMClib/XMC_Peripheral_Library_v2.1.16/XMCLib/src/xmc_usbd.c ****     if ((ep->address_u.address_st.direction == 0U) || (ep->type == (uint8_t)XMC_USBD_ENDPOINT_TYPE_
 1362              		.loc 1 1581 5 is_stmt 1 view .LVU470
 1363              		.loc 1 1581 45 is_stmt 0 view .LVU471
 1364 0082 3423     		movs	r3, #52
 1365 0084 00FB03F3 		mul	r3, r0, r3
 1366              		.loc 1 1581 8 view .LVU472
 1367 0088 F356     		ldrsb	r3, [r6, r3]
 1368 008a 002B     		cmp	r3, #0
 1369 008c 06DA     		bge	.L101
 1370              		.loc 1 1581 65 discriminator 1 view .LVU473
 1371 008e 3421     		movs	r1, #52
 1372 0090 01FB0063 		mla	r3, r1, r0, r6
 1373 0094 1B79     		ldrb	r3, [r3, #4]	@ zero_extendqisi2
 1374              		.loc 1 1581 52 discriminator 1 view .LVU474
 1375 0096 13F0030F 		tst	r3, #3
 1376 009a 18D1     		bne	.L102
 1377              	.L101:
1582:/opt/XMClib/XMC_Peripheral_Library_v2.1.16/XMCLib/src/xmc_usbd.c ****     {
1583:/opt/XMClib/XMC_Peripheral_Library_v2.1.16/XMCLib/src/xmc_usbd.c ****       xmc_device.endpoint_out_register[ep->address_u.address_st.number]->doepctl = data.d32;
 1378              		.loc 1 1583 7 is_stmt 1 view .LVU475
 1379              		.loc 1 1583 39 is_stmt 0 view .LVU476
 1380 009c 1A49     		ldr	r1, .L109
 1381              		.loc 1 1583 64 view .LVU477
 1382 009e 3423     		movs	r3, #52
 1383 00a0 00FB03F3 		mul	r3, r0, r3
 1384 00a4 CB5C     		ldrb	r3, [r1, r3]	@ zero_extendqisi2
 1385 00a6 03F00F03 		and	r3, r3, #15
 1386              		.loc 1 1583 39 view .LVU478
 1387 00aa 01EB8303 		add	r3, r1, r3, lsl #2
 1388 00ae D3F8C431 		ldr	r3, [r3, #452]
 1389              		.loc 1 1583 82 view .LVU479
 1390 00b2 4FF09046 		mov	r6, #1207959552
 1391 00b6 1E60     		str	r6, [r3]
1584:/opt/XMClib/XMC_Peripheral_Library_v2.1.16/XMCLib/src/xmc_usbd.c ****       daintmsk.ep.out = (uint16_t)((uint32_t)daintmsk.ep.out & (~(uint32_t)number_temp));
 1392              		.loc 1 1584 7 is_stmt 1 view .LVU480
 1393              		.loc 1 1584 25 is_stmt 0 view .LVU481
 1394 00b8 C2F30F42 		ubfx	r2, r2, #16, #16
 1395 00bc 22EA0502 		bic	r2, r2, r5
 1396              		.loc 1 1584 23 view .LVU482
 1397 00c0 62F31F44 		bfi	r4, r2, #16, #16
1585:/opt/XMClib/XMC_Peripheral_Library_v2.1.16/XMCLib/src/xmc_usbd.c ****       if(usbd_init->usbd_transfer_mode == XMC_USBD_USE_FIFO)
 1398              		.loc 1 1585 7 is_stmt 1 view .LVU483
 1399              		.loc 1 1585 19 is_stmt 0 view .LVU484
 1400 00c4 D1F80832 		ldr	r3, [r1, #520]
 1401              		.loc 1 1585 9 view .LVU485
 1402 00c8 5B7B     		ldrb	r3, [r3, #13]	@ zero_extendqisi2
 1403 00ca 012B     		cmp	r3, #1
 1404 00cc 13D0     		beq	.L108
 1405              	.L102:
1586:/opt/XMClib/XMC_Peripheral_Library_v2.1.16/XMCLib/src/xmc_usbd.c ****       {
1587:/opt/XMClib/XMC_Peripheral_Library_v2.1.16/XMCLib/src/xmc_usbd.c ****         xmc_device.device_register->dtknqr4_fifoemptymsk &= ~number_temp;
1588:/opt/XMClib/XMC_Peripheral_Library_v2.1.16/XMCLib/src/xmc_usbd.c ****       }
1589:/opt/XMClib/XMC_Peripheral_Library_v2.1.16/XMCLib/src/xmc_usbd.c ****     }
1590:/opt/XMClib/XMC_Peripheral_Library_v2.1.16/XMCLib/src/xmc_usbd.c ****     xmc_device.device_register->daintmsk = daintmsk.d32;
 1406              		.loc 1 1590 5 is_stmt 1 view .LVU486
 1407              		.loc 1 1590 15 is_stmt 0 view .LVU487
 1408 00ce 0E4B     		ldr	r3, .L109
 1409 00d0 D3F8A421 		ldr	r2, [r3, #420]
 1410              		.loc 1 1590 42 view .LVU488
 1411 00d4 D461     		str	r4, [r2, #28]
1591:/opt/XMClib/XMC_Peripheral_Library_v2.1.16/XMCLib/src/xmc_usbd.c ****     XMC_USBD_lUnassignFifo(ep->txFifoNum); /* free fifo */
 1412              		.loc 1 1591 5 is_stmt 1 view .LVU489
 1413              	.LVL94:
 1414              	.LBB5:
 1415              	.LBI5:
 382:/opt/XMClib/XMC_Peripheral_Library_v2.1.16/XMCLib/src/xmc_usbd.c **** {
 1416              		.loc 1 382 13 view .LVU490
 1417              	.LBB6:
 384:/opt/XMClib/XMC_Peripheral_Library_v2.1.16/XMCLib/src/xmc_usbd.c **** }
 1418              		.loc 1 384 3 view .LVU491
 1419              	.LBE6:
 1420              	.LBE5:
 1421              		.loc 1 1591 30 is_stmt 0 view .LVU492
 1422 00d6 3422     		movs	r2, #52
 1423 00d8 02FB0030 		mla	r0, r2, r0, r3
 1424              	.LVL95:
 1425              		.loc 1 1591 30 view .LVU493
 1426 00dc 8288     		ldrh	r2, [r0, #4]
 1427              	.LBB8:
 1428              	.LBB7:
 384:/opt/XMClib/XMC_Peripheral_Library_v2.1.16/XMCLib/src/xmc_usbd.c **** }
 1429              		.loc 1 384 83 view .LVU494
 1430 00de C2F38312 		ubfx	r2, r2, #6, #4
 1431 00e2 0121     		movs	r1, #1
 1432 00e4 9140     		lsls	r1, r1, r2
 384:/opt/XMClib/XMC_Peripheral_Library_v2.1.16/XMCLib/src/xmc_usbd.c **** }
 1433              		.loc 1 384 26 view .LVU495
 1434 00e6 B3F8FC21 		ldrh	r2, [r3, #508]
 1435 00ea 22EA0102 		bic	r2, r2, r1
 384:/opt/XMClib/XMC_Peripheral_Library_v2.1.16/XMCLib/src/xmc_usbd.c **** }
 1436              		.loc 1 384 24 view .LVU496
 1437 00ee A3F8FC21 		strh	r2, [r3, #508]	@ movhi
 1438              	.LVL96:
 384:/opt/XMClib/XMC_Peripheral_Library_v2.1.16/XMCLib/src/xmc_usbd.c **** }
 1439              		.loc 1 384 24 view .LVU497
 1440              	.LBE7:
 1441              	.LBE8:
1592:/opt/XMClib/XMC_Peripheral_Library_v2.1.16/XMCLib/src/xmc_usbd.c ****     result = XMC_USBD_STATUS_OK;
 1442              		.loc 1 1592 5 is_stmt 1 view .LVU498
 1443              		.loc 1 1592 12 is_stmt 0 view .LVU499
 1444 00f2 0020     		movs	r0, #0
 1445              	.LVL97:
1593:/opt/XMClib/XMC_Peripheral_Library_v2.1.16/XMCLib/src/xmc_usbd.c ****   }
1594:/opt/XMClib/XMC_Peripheral_Library_v2.1.16/XMCLib/src/xmc_usbd.c ****   return result;
 1446              		.loc 1 1594 3 is_stmt 1 view .LVU500
1595:/opt/XMClib/XMC_Peripheral_Library_v2.1.16/XMCLib/src/xmc_usbd.c **** }
 1447              		.loc 1 1595 1 is_stmt 0 view .LVU501
 1448 00f4 F0BD     		pop	{r4, r5, r6, r7, pc}
 1449              	.LVL98:
 1450              	.L108:
1587:/opt/XMClib/XMC_Peripheral_Library_v2.1.16/XMCLib/src/xmc_usbd.c ****       }
 1451              		.loc 1 1587 9 is_stmt 1 view .LVU502
1587:/opt/XMClib/XMC_Peripheral_Library_v2.1.16/XMCLib/src/xmc_usbd.c ****       }
 1452              		.loc 1 1587 19 is_stmt 0 view .LVU503
 1453 00f6 D1F8A421 		ldr	r2, [r1, #420]
1587:/opt/XMClib/XMC_Peripheral_Library_v2.1.16/XMCLib/src/xmc_usbd.c ****       }
 1454              		.loc 1 1587 35 view .LVU504
 1455 00fa 536B     		ldr	r3, [r2, #52]
1587:/opt/XMClib/XMC_Peripheral_Library_v2.1.16/XMCLib/src/xmc_usbd.c ****       }
 1456              		.loc 1 1587 58 view .LVU505
 1457 00fc 23EA0503 		bic	r3, r3, r5
 1458 0100 5363     		str	r3, [r2, #52]
 1459 0102 E4E7     		b	.L102
 1460              	.LVL99:
 1461              	.L103:
 1462              	.LCFI14:
 1463              		.cfi_def_cfa_offset 0
 1464              		.cfi_restore 4
 1465              		.cfi_restore 5
 1466              		.cfi_restore 6
 1467              		.cfi_restore 7
 1468              		.cfi_restore 14
1560:/opt/XMClib/XMC_Peripheral_Library_v2.1.16/XMCLib/src/xmc_usbd.c ****   }
 1469              		.loc 1 1560 13 view .LVU506
 1470 0104 0120     		movs	r0, #1
 1471              	.LVL100:
1594:/opt/XMClib/XMC_Peripheral_Library_v2.1.16/XMCLib/src/xmc_usbd.c **** }
 1472              		.loc 1 1594 3 is_stmt 1 view .LVU507
 1473              		.loc 1 1595 1 is_stmt 0 view .LVU508
 1474 0106 7047     		bx	lr
 1475              	.L110:
 1476              		.align	2
 1477              	.L109:
 1478 0108 00000000 		.word	.LANCHOR0
 1479              		.cfi_endproc
 1480              	.LFE199:
 1482              		.section	.text.XMC_USBD_GetFrameNumber,"ax",%progbits
 1483              		.align	1
 1484              		.global	XMC_USBD_GetFrameNumber
 1485              		.syntax unified
 1486              		.thumb
 1487              		.thumb_func
 1489              	XMC_USBD_GetFrameNumber:
 1490              	.LFB200:
1596:/opt/XMClib/XMC_Peripheral_Library_v2.1.16/XMCLib/src/xmc_usbd.c **** 
1597:/opt/XMClib/XMC_Peripheral_Library_v2.1.16/XMCLib/src/xmc_usbd.c **** /**
1598:/opt/XMClib/XMC_Peripheral_Library_v2.1.16/XMCLib/src/xmc_usbd.c ****  * Gets the current USB frame number
1599:/opt/XMClib/XMC_Peripheral_Library_v2.1.16/XMCLib/src/xmc_usbd.c ****  **/
1600:/opt/XMClib/XMC_Peripheral_Library_v2.1.16/XMCLib/src/xmc_usbd.c **** uint16_t XMC_USBD_GetFrameNumber(void) 
1601:/opt/XMClib/XMC_Peripheral_Library_v2.1.16/XMCLib/src/xmc_usbd.c **** {
 1491              		.loc 1 1601 1 is_stmt 1 view -0
 1492              		.cfi_startproc
 1493              		@ args = 0, pretend = 0, frame = 0
 1494              		@ frame_needed = 0, uses_anonymous_args = 0
 1495              		@ link register save eliminated.
1602:/opt/XMClib/XMC_Peripheral_Library_v2.1.16/XMCLib/src/xmc_usbd.c ****   uint16_t result;
 1496              		.loc 1 1602 3 view .LVU510
1603:/opt/XMClib/XMC_Peripheral_Library_v2.1.16/XMCLib/src/xmc_usbd.c ****   dsts_data_t dsts;
 1497              		.loc 1 1603 3 view .LVU511
1604:/opt/XMClib/XMC_Peripheral_Library_v2.1.16/XMCLib/src/xmc_usbd.c ****   dsts.d32 = xmc_device.device_register->dsts;
 1498              		.loc 1 1604 3 view .LVU512
 1499              		.loc 1 1604 24 is_stmt 0 view .LVU513
 1500 0000 034B     		ldr	r3, .L112
 1501 0002 D3F8A431 		ldr	r3, [r3, #420]
 1502              		.loc 1 1604 40 view .LVU514
 1503 0006 9868     		ldr	r0, [r3, #8]
1605:/opt/XMClib/XMC_Peripheral_Library_v2.1.16/XMCLib/src/xmc_usbd.c ****   result = (uint16_t)dsts.b.soffn;
 1504              		.loc 1 1605 3 is_stmt 1 view .LVU515
 1505              	.LVL101:
1606:/opt/XMClib/XMC_Peripheral_Library_v2.1.16/XMCLib/src/xmc_usbd.c ****   return result;
 1506              		.loc 1 1606 3 view .LVU516
1607:/opt/XMClib/XMC_Peripheral_Library_v2.1.16/XMCLib/src/xmc_usbd.c **** }
 1507              		.loc 1 1607 1 is_stmt 0 view .LVU517
 1508 0008 C0F30D20 		ubfx	r0, r0, #8, #14
 1509              	.LVL102:
 1510              		.loc 1 1607 1 view .LVU518
 1511 000c 7047     		bx	lr
 1512              	.L113:
 1513 000e 00BF     		.align	2
 1514              	.L112:
 1515 0010 00000000 		.word	.LANCHOR0
 1516              		.cfi_endproc
 1517              	.LFE200:
 1519              		.section	.text.XMC_USBD_IsEnumDone,"ax",%progbits
 1520              		.align	1
 1521              		.global	XMC_USBD_IsEnumDone
 1522              		.syntax unified
 1523              		.thumb
 1524              		.thumb_func
 1526              	XMC_USBD_IsEnumDone:
 1527              	.LFB201:
1608:/opt/XMClib/XMC_Peripheral_Library_v2.1.16/XMCLib/src/xmc_usbd.c **** 
1609:/opt/XMClib/XMC_Peripheral_Library_v2.1.16/XMCLib/src/xmc_usbd.c **** /**
1610:/opt/XMClib/XMC_Peripheral_Library_v2.1.16/XMCLib/src/xmc_usbd.c ****  * Gets the USB speed enumeration completion status.
1611:/opt/XMClib/XMC_Peripheral_Library_v2.1.16/XMCLib/src/xmc_usbd.c ****  * This should not be used for the actual USB enumeration completion status. For the actual USB enu
1612:/opt/XMClib/XMC_Peripheral_Library_v2.1.16/XMCLib/src/xmc_usbd.c ****  * the application layer should check for the completion of USB standard request Set configuration.
1613:/opt/XMClib/XMC_Peripheral_Library_v2.1.16/XMCLib/src/xmc_usbd.c ****  **/
1614:/opt/XMClib/XMC_Peripheral_Library_v2.1.16/XMCLib/src/xmc_usbd.c **** uint32_t XMC_USBD_IsEnumDone(void)
1615:/opt/XMClib/XMC_Peripheral_Library_v2.1.16/XMCLib/src/xmc_usbd.c **** {
 1528              		.loc 1 1615 1 is_stmt 1 view -0
 1529              		.cfi_startproc
 1530              		@ args = 0, pretend = 0, frame = 0
 1531              		@ frame_needed = 0, uses_anonymous_args = 0
 1532              		@ link register save eliminated.
1616:/opt/XMClib/XMC_Peripheral_Library_v2.1.16/XMCLib/src/xmc_usbd.c ****   return (uint32_t)((uint8_t)xmc_device.IsConnected && (uint8_t)xmc_device.IsPowered);
 1533              		.loc 1 1616 3 view .LVU520
 1534              		.loc 1 1616 53 is_stmt 0 view .LVU521
 1535 0000 044B     		ldr	r3, .L115
 1536 0002 93F8FE01 		ldrb	r0, [r3, #510]	@ zero_extendqisi2
 1537 0006 00F00500 		and	r0, r0, #5
1617:/opt/XMClib/XMC_Peripheral_Library_v2.1.16/XMCLib/src/xmc_usbd.c **** }
 1538              		.loc 1 1617 1 view .LVU522
 1539 000a 0528     		cmp	r0, #5
 1540 000c 14BF     		ite	ne
 1541 000e 0020     		movne	r0, #0
 1542 0010 0120     		moveq	r0, #1
 1543 0012 7047     		bx	lr
 1544              	.L116:
 1545              		.align	2
 1546              	.L115:
 1547 0014 00000000 		.word	.LANCHOR0
 1548              		.cfi_endproc
 1549              	.LFE201:
 1551              		.section	.text.XMC_USBD_Uninitialize,"ax",%progbits
 1552              		.align	1
 1553              		.global	XMC_USBD_Uninitialize
 1554              		.syntax unified
 1555              		.thumb
 1556              		.thumb_func
 1558              	XMC_USBD_Uninitialize:
 1559              	.LFB188:
1201:/opt/XMClib/XMC_Peripheral_Library_v2.1.16/XMCLib/src/xmc_usbd.c ****   /* Disconnect the device */
 1560              		.loc 1 1201 1 is_stmt 1 view -0
 1561              		.cfi_startproc
 1562              		@ args = 0, pretend = 0, frame = 0
 1563              		@ frame_needed = 0, uses_anonymous_args = 0
 1564 0000 08B5     		push	{r3, lr}
 1565              	.LCFI15:
 1566              		.cfi_def_cfa_offset 8
 1567              		.cfi_offset 3, -8
 1568              		.cfi_offset 14, -4
1203:/opt/XMClib/XMC_Peripheral_Library_v2.1.16/XMCLib/src/xmc_usbd.c **** 	dctl.d32 = xmc_device.device_register->dctl;
 1569              		.loc 1 1203 3 view .LVU524
1204:/opt/XMClib/XMC_Peripheral_Library_v2.1.16/XMCLib/src/xmc_usbd.c ****   dctl.b.sftdiscon = 1U;
 1570              		.loc 1 1204 2 view .LVU525
1204:/opt/XMClib/XMC_Peripheral_Library_v2.1.16/XMCLib/src/xmc_usbd.c ****   dctl.b.sftdiscon = 1U;
 1571              		.loc 1 1204 23 is_stmt 0 view .LVU526
 1572 0002 0748     		ldr	r0, .L119
 1573 0004 D0F8A421 		ldr	r2, [r0, #420]
1204:/opt/XMClib/XMC_Peripheral_Library_v2.1.16/XMCLib/src/xmc_usbd.c ****   dctl.b.sftdiscon = 1U;
 1574              		.loc 1 1204 39 view .LVU527
 1575 0008 5368     		ldr	r3, [r2, #4]
1205:/opt/XMClib/XMC_Peripheral_Library_v2.1.16/XMCLib/src/xmc_usbd.c ****   xmc_device.device_register->dctl = dctl.d32;
 1576              		.loc 1 1205 3 is_stmt 1 view .LVU528
